(lp0
(lp1
F0.0002231597900390625
aS'TCP'
p2
aI0
aa(lp3
F0.044593095779418945
aS'UDP'
p4
aI0
aa(lp5
F0.4189281463623047
ag2
aI1
aa(lp6
F0.7524771690368652
ag4
aI1
aa(lp7
F1.089440107345581
ag2
aI2
aa(lp8
F1.4188590049743652
ag4
aI2
aa(lp9
F1.7470932006835938
ag2
aI3
aa(lp10
F2.0826351642608643
ag4
aI3
aa(lp11
F2.41276216506958
ag2
aI4
aa(lp12
F2.739922046661377
ag4
aI4
aa(lp13
F3.0789639949798584
ag2
aI5
aa(lp14
F3.4055211544036865
ag4
aI5
aa(lp15
F3.7408530712127686
ag2
aI6
aa(lp16
F4.076515197753906
ag4
aI6
aa(lp17
F4.419100999832153
ag2
aI7
aa(lp18
F5.179182052612305
ag2
aI8
aa(lp19
F6.004680156707764
ag2
aI9
aa(lp20
F6.831918001174927
ag2
aI10
aa(lp21
F7.531803131103516
ag2
aI11
aa(lp22
F8.323491096496582
ag2
aI12
aa(lp23
F9.04345417022705
ag2
aI13
aa(lp24
F9.857452154159546
ag2
aI14
aa(lp25
F10.704040050506592
ag2
aI15
aa(lp26
F11.44403600692749
ag2
aI16
aa(lp27
F12.207603216171265
ag2
aI17
aa(lp28
F12.91210412979126
ag2
aI18
aa(lp29
F13.62573504447937
ag2
aI19
aa(lp30
F14.411559104919434
ag2
aI20
aa(lp31
F14.783068180084229
ag4
aI7
aa(lp32
F15.220540046691895
ag2
aI21
aa(lp33
F15.57318902015686
ag4
aI8
aa(lp34
F15.905524015426636
ag2
aI22
aa(lp35
F16.32998299598694
ag4
aI9
aa(lp36
F16.66180109977722
ag2
aI23
aa(lp37
F17.029097080230713
ag4
aI10
aa(lp38
F17.45690107345581
ag2
aI24
aa(lp39
F18.195987224578857
ag2
aI25
aa(lp40
F18.959644079208374
ag2
aI26
aa(lp41
F19.705429077148438
ag2
aI27
aa(lp42
F20.47228503227234
ag2
aI28
aa(lp43
F21.124059200286865
ag2
aI29
aa(lp44
F21.82388210296631
ag2
aI30
aa(lp45
F22.52289915084839
ag2
aI31
aa(lp46
F23.186044216156006
ag2
aI32
aa(lp47
F23.862498998641968
ag2
aI33
aa(lp48
F24.526462078094482
ag2
aI34
aa(lp49
F25.1931631565094
ag2
aI35
aa(lp50
F25.869237184524536
ag2
aI36
aa(lp51
F26.5345561504364
ag2
aI37
aa(lp52
F27.192894220352173
ag2
aI38
aa(lp53
F27.544036149978638
ag4
aI11
aa(lp54
F27.885160207748413
ag2
aI39
aa(lp55
F28.22691321372986
ag4
aI12
aa(lp56
F28.566434144973755
ag2
aI40
aa(lp57
F28.908809185028076
ag4
aI13
aa(lp58
F29.250831127166748
ag2
aI41
aa(lp59
F29.917440176010132
ag2
aI42
aa(lp60
F30.582133054733276
ag2
aI43
aa(lp61
F31.23560905456543
ag2
aI44
aa(lp62
F31.88757014274597
ag2
aI45
aa(lp63
F32.54066705703735
ag2
aI46
aa(lp64
F33.19137501716614
ag2
aI47
aa(lp65
F33.84350299835205
ag2
aI48
aa(lp66
F34.49951910972595
ag2
aI49
aa(lp67
F35.151339054107666
ag2
aI50
aa(lp68
F35.80406212806702
ag2
aI51
aa(lp69
F36.45226716995239
ag2
aI52
aa(lp70
F37.10386514663696
ag2
aI53
aa(lp71
F37.75243902206421
ag2
aI54
aa(lp72
F38.39991116523743
ag2
aI55
aa(lp73
F39.05133819580078
ag2
aI56
aa(lp74
F39.70357704162598
ag2
aI57
aa(lp75
F40.0271110534668
ag4
aI14
aa(lp76
F40.35151505470276
ag2
aI58
aa(lp77
F40.676259994506836
ag4
aI15
aa(lp78
F41.0034282207489
ag2
aI59
aa(lp79
F41.33554005622864
ag4
aI16
aa(lp80
F41.663252115249634
ag2
aI60
aa(lp81
F41.99529719352722
ag4
aI17
aa(lp82
F42.32031011581421
ag2
aI61
aa(lp83
F42.97236609458923
ag2
aI62
aa(lp84
F43.63878321647644
ag2
aI63
aa(lp85
F44.307157039642334
ag2
aI64
aa(lp86
F44.966673135757446
ag2
aI65
aa(lp87
F45.6329619884491
ag2
aI66
aa(lp88
F46.29995608329773
ag2
aI67
aa(lp89
F46.95299816131592
ag2
aI68
aa(lp90
F47.62431812286377
ag2
aI69
aa(lp91
F48.292962074279785
ag2
aI70
aa(lp92
F48.97507619857788
ag2
aI71
aa(lp93
F49.64184308052063
ag2
aI72
aa(lp94
F50.31428599357605
ag2
aI73
aa(lp95
F50.98468208312988
ag2
aI74
aa(lp96
F51.65453004837036
ag2
aI75
aa(lp97
F52.32148599624634
ag2
aI76
aa(lp98
F52.65734601020813
ag4
aI18
aa(lp99
F52.99287414550781
ag2
aI77
aa(lp100
F53.334288120269775
ag4
aI19
aa(lp101
F53.67860221862793
ag2
aI78
aa(lp102
F54.03000807762146
ag4
aI20
aa(lp103
F54.37891721725464
ag2
aI79
aa(lp104
F54.72892498970032
ag4
aI21
aa(lp105
F55.08028316497803
ag2
aI80
aa(lp106
F55.77742910385132
ag2
aI81
aa(lp107
F56.45565700531006
ag2
aI82
aa(lp108
F57.11931610107422
ag2
aI83
aa(lp109
F57.816092014312744
ag2
aI84
aa(lp110
F58.51521420478821
ag2
aI85
aa(lp111
F59.19533610343933
ag2
aI86
aa(lp112
F59.87333106994629
ag2
aI87
aa(lp113
F60.54471802711487
ag2
aI88
aa(lp114
F61.218324184417725
ag2
aI89
aa(lp115
F61.87277317047119
ag2
aI90
aa(lp116
F62.52494406700134
ag2
aI91
aa(lp117
F63.188475131988525
ag2
aI92
aa(lp118
F63.85365700721741
ag2
aI93
aa(lp119
F64.51090908050537
ag2
aI94
aa(lp120
F65.15759110450745
ag2
aI95
aa(lp121
F65.48570919036865
ag4
aI22
aa(lp122
F65.84180212020874
ag2
aI96
aa(lp123
F66.1859450340271
ag4
aI23
aa(lp124
F66.54418706893921
ag2
aI97
aa(lp125
F66.87569999694824
ag4
aI24
aa(lp126
F67.33735609054565
ag2
aI98
aa(lp127
F68.12649607658386
ag2
aI99
aa(lp128
F68.81197309494019
ag2
aI100
aa(lp129
F69.4851450920105
ag2
aI101
aa(lp130
F70.18453216552734
ag2
aI102
aa(lp131
F70.85209012031555
ag2
aI103
aa(lp132
F71.52240800857544
ag2
aI104
aa(lp133
F72.20268607139587
ag2
aI105
aa(lp134
F72.88168501853943
ag2
aI106
aa(lp135
F73.56391716003418
ag2
aI107
aa(lp136
F74.24368715286255
ag2
aI108
aa(lp137
F74.90944218635559
ag2
aI109
aa(lp138
F75.58513808250427
ag2
aI110
aa(lp139
F76.26161909103394
ag2
aI111
aa(lp140
F76.93385910987854
ag2
aI112
aa(lp141
F77.60628700256348
ag2
aI113
aa(lp142
F77.94492411613464
ag4
aI25
aa(lp143
F78.2808940410614
ag2
aI114
aa(lp144
F78.62280917167664
ag4
aI26
aa(lp145
F78.94827604293823
ag2
aI115
aa(lp146
F79.28056812286377
ag4
aI27
aa(lp147
F79.60453820228577
ag2
aI116
aa(lp148
F79.93249201774597
ag4
aI28
aa(lp149
F80.27431011199951
ag2
aI117
aa(lp150
F80.97105813026428
ag2
aI118
aa(lp151
F81.64229202270508
ag2
aI119
aa(lp152
F82.31347918510437
ag2
aI120
aa(lp153
F82.98603415489197
ag2
aI121
aa(lp154
F83.654470205307
ag2
aI122
aa(lp155
F84.31446719169617
ag2
aI123
aa(lp156
F84.98078322410583
ag2
aI124
aa(lp157
F85.63814115524292
ag2
aI125
aa(lp158
F86.38553619384766
ag2
aI126
aa(lp159
F87.04923415184021
ag2
aI127
aa(lp160
F87.71939706802368
ag2
aI128
aa(lp161
F88.37079000473022
ag2
aI129
aa(lp162
F89.02387118339539
ag2
aI130
aa(lp163
F89.79468202590942
ag2
aI131
aa(lp164
F90.46263909339905
ag2
aI132
aa(lp165
F90.80232501029968
ag4
aI29
aa(lp166
F91.14232110977173
ag2
aI133
aa(lp167
F91.48523616790771
ag4
aI30
aa(lp168
F91.82323122024536
ag2
aI134
aa(lp169
F92.17276215553284
ag4
aI31
aa(lp170
F92.52834510803223
ag2
aI135
aa(lp171
F93.21030116081238
ag2
aI136
aa(lp172
F93.87429118156433
ag2
aI137
aa(lp173
F94.55985021591187
ag2
aI138
aa(lp174
F95.23705101013184
ag2
aI139
aa(lp175
F95.91641807556152
ag2
aI140
aa(lp176
F96.61206102371216
ag2
aI141
aa(lp177
F97.30761313438416
ag2
aI142
aa(lp178
F97.98828411102295
ag2
aI143
aa(lp179
F98.6834511756897
ag2
aI144
aa(lp180
F99.36682319641113
ag2
aI145
aa(lp181
F100.0331962108612
ag2
aI146
aa(lp182
F100.72773718833923
ag2
aI147
aa(lp183
F101.39698100090027
ag2
aI148
aa(lp184
F102.07239818572998
ag2
aI149
aa(lp185
F102.74354910850525
ag2
aI150
aa(lp186
F103.09235000610352
ag4
aI32
aa(lp187
F103.44226717948914
ag2
aI151
aa(lp188
F103.7844500541687
ag4
aI33
aa(lp189
F104.1322271823883
ag2
aI152
aa(lp190
F104.47682905197144
ag4
aI34
aa(lp191
F104.82176518440247
ag2
aI153
aa(lp192
F105.5026581287384
ag2
aI154
aa(lp193
F106.18194508552551
ag2
aI155
aa(lp194
F106.88168907165527
ag2
aI156
aa(lp195
F107.59460401535034
ag2
aI157
aa(lp196
F108.25645613670349
ag2
aI158
aa(lp197
F109.0443811416626
ag2
aI159
aa(lp198
F109.72040104866028
ag2
aI160
aa(lp199
F110.38380813598633
ag2
aI161
aa(lp200
F111.05453300476074
ag2
aI162
aa(lp201
F111.73489713668823
ag2
aI163
aa(lp202
F112.43356013298035
ag2
aI164
aa(lp203
F113.23569011688232
ag2
aI165
aa(lp204
F113.92375802993774
ag2
aI166
aa(lp205
F114.60386800765991
ag2
aI167
aa(lp206
F114.98051905632019
ag4
aI35
aa(lp207
F115.33485817909241
ag2
aI168
aa(lp208
F115.68944716453552
ag4
aI36
aa(lp209
F116.04304099082947
ag2
aI169
aa(lp210
F116.38987016677856
ag4
aI37
aa(lp211
F116.75315999984741
ag2
aI170
aa(lp212
F117.0804090499878
ag4
aI38
aa(lp213
F117.4120261669159
ag2
aI171
aa(lp214
F118.08598017692566
ag2
aI172
aa(lp215
F118.75431108474731
ag2
aI173
aa(lp216
F119.43821907043457
ag2
aI174
aa(lp217
F120.13497400283813
ag2
aI175
aa(lp218
F120.7834620475769
ag2
aI176
aa(lp219
F121.45520305633545
ag2
aI177
aa(lp220
F122.12352514266968
ag2
aI178
aa(lp221
F122.79051613807678
ag2
aI179
aa(lp222
F123.44700121879578
ag2
aI180
aa(lp223
F124.11405515670776
ag2
aI181
aa(lp224
F124.79061007499695
ag2
aI182
aa(lp225
F125.45116305351257
ag2
aI183
aa(lp226
F126.13499617576599
ag2
aI184
aa(lp227
F126.80776000022888
ag2
aI185
aa(lp228
F127.49275207519531
ag2
aI186
aa(lp229
F127.83660912513733
ag4
aI39
aa(lp230
F128.18691420555115
ag2
aI187
aa(lp231
F128.5321810245514
ag4
aI40
aa(lp232
F128.88266110420227
ag2
aI188
aa(lp233
F129.22254920005798
ag4
aI41
aa(lp234
F129.55888104438782
ag2
aI189
aa(lp235
F130.2271602153778
ag2
aI190
aa(lp236
F130.8900260925293
ag2
aI191
aa(lp237
F131.5588390827179
ag2
aI192
aa(lp238
F132.22886300086975
ag2
aI193
aa(lp239
F132.88572716712952
ag2
aI194
aa(lp240
F133.5569770336151
ag2
aI195
aa(lp241
F134.24159502983093
ag2
aI196
aa(lp242
F134.93264603614807
ag2
aI197
aa(lp243
F135.62674117088318
ag2
aI198
aa(lp244
F136.3185760974884
ag2
aI199
aa(lp245
F136.99159502983093
ag2
aI200
aa(lp246
F140.34289622306824
ag2
aI201
aa.