(lp0
(lp1
F0.000720977783203125
aS'TCP'
p2
aI0
aa(lp3
F0.30095791816711426
ag2
aI1
aa(lp4
F0.5310149192810059
aS'UDP'
p5
aI0
aa(lp6
F0.8112680912017822
ag2
aI2
aa(lp7
F1.0818219184875488
ag5
aI1
aa(lp8
F1.323322057723999
ag2
aI3
aa(lp9
F1.6039221286773682
ag5
aI2
aa(lp10
F1.876471996307373
ag2
aI4
aa(lp11
F2.239954948425293
ag5
aI3
aa(lp12
F2.594151020050049
ag2
aI5
aa(lp13
F2.9090099334716797
ag5
aI4
aa(lp14
F3.149989128112793
ag2
aI6
aa(lp15
F3.3841381072998047
ag5
aI5
aa(lp16
F3.62939190864563
ag2
aI7
aa(lp17
F3.8969380855560303
ag5
aI6
aa(lp18
F4.1709160804748535
ag2
aI8
aa(lp19
F4.411569118499756
ag5
aI7
aa(lp20
F4.650917053222656
ag2
aI9
aa(lp21
F4.88652491569519
ag5
aI8
aa(lp22
F5.126132011413574
ag2
aI10
aa(lp23
F5.3747570514678955
ag5
aI9
aa(lp24
F5.615971088409424
ag2
aI11
aa(lp25
F5.861375093460083
ag5
aI10
aa(lp26
F6.097865104675293
ag2
aI12
aa(lp27
F6.330554008483887
ag5
aI11
aa(lp28
F6.557485103607178
ag2
aI13
aa(lp29
F6.806262016296387
ag5
aI12
aa(lp30
F7.062982082366943
ag2
aI14
aa(lp31
F7.297708988189697
ag5
aI13
aa(lp32
F7.534102916717529
ag2
aI15
aa(lp33
F7.7741639614105225
ag5
aI14
aa(lp34
F8.01422905921936
ag2
aI16
aa(lp35
F8.386665105819702
ag5
aI15
aa(lp36
F8.615108013153076
ag2
aI17
aa(lp37
F8.864179134368896
ag5
aI16
aa(lp38
F9.12326192855835
ag2
aI18
aa(lp39
F9.366213083267212
ag5
aI17
aa(lp40
F9.596390008926392
ag2
aI19
aa(lp41
F9.83555006980896
ag5
aI18
aa(lp42
F10.0801260471344
ag2
aI20
aa(lp43
F10.323482036590576
ag5
aI19
aa(lp44
F10.561538934707642
ag2
aI21
aa(lp45
F10.792964935302734
ag5
aI20
aa(lp46
F11.025005102157593
ag2
aI22
aa(lp47
F11.256686925888062
ag5
aI21
aa(lp48
F11.495167970657349
ag2
aI23
aa(lp49
F11.729387998580933
ag5
aI22
aa(lp50
F11.966072082519531
ag2
aI24
aa(lp51
F12.206358909606934
ag5
aI23
aa(lp52
F12.437818050384521
ag2
aI25
aa(lp53
F12.66410493850708
ag5
aI24
aa(lp54
F12.903595924377441
ag2
aI26
aa(lp55
F13.133246898651123
ag5
aI25
aa(lp56
F13.37050199508667
ag2
aI27
aa(lp57
F13.59643292427063
ag5
aI26
aa(lp58
F13.835499048233032
ag2
aI28
aa(lp59
F14.080909013748169
ag5
aI27
aa(lp60
F14.320432901382446
ag2
aI29
aa(lp61
F14.556250095367432
ag5
aI28
aa(lp62
F14.793049097061157
ag2
aI30
aa(lp63
F15.015283107757568
ag5
aI29
aa(lp64
F15.24737000465393
ag2
aI31
aa(lp65
F15.485234022140503
ag5
aI30
aa(lp66
F15.704762935638428
ag2
aI32
aa(lp67
F15.936754941940308
ag5
aI31
aa(lp68
F16.164576053619385
ag2
aI33
aa(lp69
F16.400803089141846
ag5
aI32
aa(lp70
F16.628345012664795
ag2
aI34
aa(lp71
F16.85465097427368
ag5
aI33
aa(lp72
F17.085257053375244
ag2
aI35
aa(lp73
F17.313321113586426
ag5
aI34
aa(lp74
F17.548407077789307
ag2
aI36
aa(lp75
F17.77222490310669
ag5
aI35
aa(lp76
F18.003171920776367
ag2
aI37
aa(lp77
F18.22905206680298
ag5
aI36
aa(lp78
F18.45692491531372
ag2
aI38
aa(lp79
F18.692182064056396
ag5
aI37
aa(lp80
F18.92675495147705
ag2
aI39
aa(lp81
F19.15335512161255
ag5
aI38
aa(lp82
F19.386871099472046
ag2
aI40
aa(lp83
F19.6269268989563
ag5
aI39
aa(lp84
F19.868147134780884
ag2
aI41
aa(lp85
F20.095396995544434
ag5
aI40
aa(lp86
F20.329203128814697
ag2
aI42
aa(lp87
F20.57152795791626
ag5
aI41
aa(lp88
F20.796905040740967
ag2
aI43
aa(lp89
F21.04223608970642
ag5
aI42
aa(lp90
F21.26054310798645
ag2
aI44
aa(lp91
F21.493149042129517
ag5
aI43
aa(lp92
F21.721868991851807
ag2
aI45
aa(lp93
F21.954085111618042
ag5
aI44
aa(lp94
F22.19867706298828
ag2
aI46
aa(lp95
F22.433713912963867
ag5
aI45
aa(lp96
F22.65611696243286
ag2
aI47
aa(lp97
F22.884516954421997
ag5
aI46
aa(lp98
F23.1217520236969
ag2
aI48
aa(lp99
F23.35902500152588
ag5
aI47
aa(lp100
F23.59683394432068
ag2
aI49
aa(lp101
F23.82918906211853
ag5
aI48
aa(lp102
F24.081427097320557
ag2
aI50
aa(lp103
F24.317023038864136
ag5
aI49
aa(lp104
F24.556616067886353
ag2
aI51
aa(lp105
F24.804455041885376
ag5
aI50
aa(lp106
F25.053667068481445
ag2
aI52
aa(lp107
F25.29404091835022
ag5
aI51
aa(lp108
F25.53750205039978
ag2
aI53
aa(lp109
F25.772462129592896
ag5
aI52
aa(lp110
F26.03707194328308
ag2
aI54
aa(lp111
F26.277292013168335
ag5
aI53
aa(lp112
F26.519836902618408
ag2
aI55
aa(lp113
F26.764374017715454
ag5
aI54
aa(lp114
F27.007745027542114
ag2
aI56
aa(lp115
F27.27297306060791
ag5
aI55
aa(lp116
F27.53170394897461
ag2
aI57
aa(lp117
F27.809876918792725
ag5
aI56
aa(lp118
F28.04565405845642
ag2
aI58
aa(lp119
F28.281904935836792
ag5
aI57
aa(lp120
F28.53671407699585
ag2
aI59
aa(lp121
F28.82478904724121
ag5
aI58
aa(lp122
F29.074671030044556
ag2
aI60
aa(lp123
F29.312206029891968
ag5
aI59
aa(lp124
F29.556015968322754
ag2
aI61
aa(lp125
F29.811584949493408
ag5
aI60
aa(lp126
F30.04208993911743
ag2
aI62
aa(lp127
F30.266720056533813
ag5
aI61
aa(lp128
F30.514915943145752
ag2
aI63
aa(lp129
F30.756913900375366
ag5
aI62
aa(lp130
F31.004467010498047
ag2
aI64
aa(lp131
F31.24065899848938
ag5
aI63
aa(lp132
F31.480319023132324
ag2
aI65
aa(lp133
F31.717668056488037
ag5
aI64
aa(lp134
F31.954731941223145
ag2
aI66
aa(lp135
F32.18207406997681
ag5
aI65
aa(lp136
F32.40878391265869
ag2
aI67
aa(lp137
F32.63519310951233
ag5
aI66
aa(lp138
F32.870161056518555
ag2
aI68
aa(lp139
F33.114644050598145
ag5
aI67
aa(lp140
F33.34066891670227
ag2
aI69
aa(lp141
F33.57964491844177
ag5
aI68
aa(lp142
F33.828840017318726
ag2
aI70
aa(lp143
F34.066298961639404
ag5
aI69
aa(lp144
F34.30242609977722
ag2
aI71
aa(lp145
F34.52412390708923
ag5
aI70
aa(lp146
F34.75018906593323
ag2
aI72
aa(lp147
F34.97507095336914
ag5
aI71
aa(lp148
F35.21250796318054
ag2
aI73
aa(lp149
F35.44682002067566
ag5
aI72
aa(lp150
F35.69148898124695
ag2
aI74
aa(lp151
F35.93251395225525
ag5
aI73
aa(lp152
F36.17901802062988
ag2
aI75
aa(lp153
F36.42599701881409
ag5
aI74
aa(lp154
F36.66348910331726
ag2
aI76
aa(lp155
F36.884040117263794
ag5
aI75
aa(lp156
F37.122188091278076
ag2
aI77
aa(lp157
F37.366920948028564
ag5
aI76
aa(lp158
F37.60941505432129
ag2
aI78
aa(lp159
F37.84834408760071
ag5
aI77
aa(lp160
F38.08610796928406
ag2
aI79
aa(lp161
F38.32250094413757
ag5
aI78
aa(lp162
F38.563295125961304
ag2
aI80
aa(lp163
F38.788087129592896
ag5
aI79
aa(lp164
F39.0173659324646
ag2
aI81
aa(lp165
F39.238553047180176
ag5
aI80
aa(lp166
F39.47170305252075
ag2
aI82
aa(lp167
F39.717063903808594
ag5
aI81
aa(lp168
F40.09105706214905
ag2
aI83
aa(lp169
F40.322904109954834
ag5
aI82
aa(lp170
F40.56265902519226
ag2
aI84
aa(lp171
F40.79608702659607
ag5
aI83
aa(lp172
F41.03799891471863
ag2
aI85
aa(lp173
F41.29381990432739
ag5
aI84
aa(lp174
F41.52269101142883
ag2
aI86
aa(lp175
F41.76051592826843
ag5
aI85
aa(lp176
F41.98428797721863
ag2
aI87
aa(lp177
F42.21130990982056
ag5
aI86
aa(lp178
F42.450783014297485
ag2
aI88
aa(lp179
F42.77505612373352
ag5
aI87
aa(lp180
F43.008440017700195
ag2
aI89
aa(lp181
F43.25886297225952
ag5
aI88
aa(lp182
F43.475574016571045
ag2
aI90
aa(lp183
F43.71608090400696
ag5
aI89
aa(lp184
F43.951294898986816
ag2
aI91
aa(lp185
F44.18153691291809
ag5
aI90
aa(lp186
F44.414977073669434
ag2
aI92
aa(lp187
F44.64043402671814
ag5
aI91
aa(lp188
F44.86954307556152
ag2
aI93
aa(lp189
F45.09871792793274
ag5
aI92
aa(lp190
F45.32661509513855
ag2
aI94
aa(lp191
F45.559653997421265
ag5
aI93
aa(lp192
F45.795762062072754
ag2
aI95
aa(lp193
F46.03622508049011
ag5
aI94
aa(lp194
F46.26483511924744
ag2
aI96
aa(lp195
F46.5064640045166
ag5
aI95
aa(lp196
F46.72862100601196
ag2
aI97
aa(lp197
F46.961008071899414
ag5
aI96
aa(lp198
F47.18839502334595
ag2
aI98
aa(lp199
F47.42262291908264
ag5
aI97
aa(lp200
F47.63949394226074
ag2
aI99
aa(lp201
F47.87231397628784
ag5
aI98
aa(lp202
F48.10044312477112
ag2
aI100
aa(lp203
F48.333616971969604
ag5
aI99
aa(lp204
F48.58590602874756
ag2
aI101
aa(lp205
F48.803674936294556
ag5
aI100
aa(lp206
F49.04101204872131
ag2
aI102
aa(lp207
F49.28251600265503
ag5
aI101
aa(lp208
F49.51668310165405
ag2
aI103
aa(lp209
F49.73533296585083
ag5
aI102
aa(lp210
F49.96589493751526
ag2
aI104
aa(lp211
F50.18743109703064
ag5
aI103
aa(lp212
F50.41951608657837
ag2
aI105
aa(lp213
F50.64171504974365
ag5
aI104
aa(lp214
F50.8758270740509
ag2
aI106
aa(lp215
F51.10448598861694
ag5
aI105
aa(lp216
F51.34927201271057
ag2
aI107
aa(lp217
F51.586689949035645
ag5
aI106
aa(lp218
F51.82311010360718
ag2
aI108
aa(lp219
F52.05665302276611
ag5
aI107
aa(lp220
F52.28889203071594
ag2
aI109
aa(lp221
F52.53389596939087
ag5
aI108
aa(lp222
F52.756349086761475
ag2
aI110
aa(lp223
F53.01059889793396
ag5
aI109
aa(lp224
F53.25555896759033
ag2
aI111
aa(lp225
F53.51757192611694
ag5
aI110
aa(lp226
F53.75615191459656
ag2
aI112
aa(lp227
F53.99553990364075
ag5
aI111
aa(lp228
F54.232012033462524
ag2
aI113
aa(lp229
F54.46444892883301
ag5
aI112
aa(lp230
F54.71657395362854
ag2
aI114
aa(lp231
F54.96148109436035
ag5
aI113
aa(lp232
F55.20075798034668
ag2
aI115
aa(lp233
F55.44484496116638
ag5
aI114
aa(lp234
F55.70887613296509
ag2
aI116
aa(lp235
F55.97228407859802
ag5
aI115
aa(lp236
F56.24484395980835
ag2
aI117
aa(lp237
F56.4845769405365
ag5
aI116
aa(lp238
F56.71436905860901
ag2
aI118
aa(lp239
F56.9522819519043
ag5
aI117
aa(lp240
F57.213091135025024
ag2
aI119
aa(lp241
F57.4829261302948
ag5
aI118
aa(lp242
F57.71469306945801
ag2
aI120
aa(lp243
F57.973597049713135
ag5
aI119
aa(lp244
F58.3389630317688
ag2
aI121
aa(lp245
F58.59472608566284
ag5
aI120
aa(lp246
F58.851279973983765
ag2
aI122
aa(lp247
F59.119996070861816
ag5
aI121
aa(lp248
F59.361263036727905
ag2
aI123
aa(lp249
F59.60786509513855
ag5
aI122
aa(lp250
F59.86308407783508
ag2
aI124
aa(lp251
F60.11297011375427
ag5
aI123
aa(lp252
F60.35171294212341
ag2
aI125
aa(lp253
F60.59320306777954
ag5
aI124
aa(lp254
F60.827744007110596
ag2
aI126
aa(lp255
F61.06078910827637
ag5
aI125
aa(lp256
F61.305341958999634
ag2
aI127
aa(lp257
F61.54734492301941
ag5
aI126
aa(lp258
F61.78281307220459
ag2
aI128
aa(lp259
F62.012232065200806
ag5
aI127
aa(lp260
F62.24772000312805
ag2
aI129
aa(lp261
F62.49041509628296
ag5
aI128
aa(lp262
F62.722360134124756
ag2
aI130
aa(lp263
F62.952409982681274
ag5
aI129
aa(lp264
F63.17197608947754
ag2
aI131
aa(lp265
F63.40499806404114
ag5
aI130
aa(lp266
F63.633183002471924
ag2
aI132
aa(lp267
F63.865209102630615
ag5
aI131
aa(lp268
F64.0993959903717
ag2
aI133
aa(lp269
F64.33621191978455
ag5
aI132
aa(lp270
F64.57182002067566
ag2
aI134
aa(lp271
F64.80864691734314
ag5
aI133
aa(lp272
F65.04664611816406
ag2
aI135
aa(lp273
F65.29054498672485
ag5
aI134
aa(lp274
F65.5277259349823
ag2
aI136
aa(lp275
F65.76356196403503
ag5
aI135
aa(lp276
F66.00275111198425
ag2
aI137
aa(lp277
F66.23292112350464
ag5
aI136
aa(lp278
F66.46677303314209
ag2
aI138
aa(lp279
F66.69287300109863
ag5
aI137
aa(lp280
F66.93071508407593
ag2
aI139
aa(lp281
F67.15427803993225
ag5
aI138
aa(lp282
F67.38247013092041
ag2
aI140
aa(lp283
F67.60873508453369
ag5
aI139
aa(lp284
F67.8354320526123
ag2
aI141
aa(lp285
F68.06445693969727
ag5
aI140
aa(lp286
F68.28943490982056
ag2
aI142
aa(lp287
F68.51219296455383
ag5
aI141
aa(lp288
F68.74534702301025
ag2
aI143
aa(lp289
F68.98717093467712
ag5
aI142
aa(lp290
F69.22671699523926
ag2
aI144
aa(lp291
F69.46527194976807
ag5
aI143
aa(lp292
F69.70632600784302
ag2
aI145
aa(lp293
F69.92727613449097
ag5
aI144
aa(lp294
F70.16104698181152
ag2
aI146
aa(lp295
F70.51948499679565
ag5
aI145
aa(lp296
F70.749764919281
ag2
aI147
aa(lp297
F70.97658109664917
ag5
aI146
aa(lp298
F71.2148790359497
ag2
aI148
aa(lp299
F71.44580793380737
ag5
aI147
aa(lp300
F71.67787790298462
ag2
aI149
aa(lp301
F71.90667510032654
ag5
aI148
aa(lp302
F72.13663291931152
ag2
aI150
aa(lp303
F72.37006711959839
ag5
aI149
aa(lp304
F72.61024403572083
ag2
aI151
aa(lp305
F72.83691096305847
ag5
aI150
aa(lp306
F73.06742000579834
ag2
aI152
aa(lp307
F73.29935908317566
ag5
aI151
aa(lp308
F73.53373789787292
ag2
aI153
aa(lp309
F73.76797699928284
ag5
aI152
aa(lp310
F74.0022349357605
ag2
aI154
aa(lp311
F74.23332405090332
ag5
aI153
aa(lp312
F74.47211790084839
ag2
aI155
aa(lp313
F74.71534705162048
ag5
aI154
aa(lp314
F74.95850110054016
ag2
aI156
aa(lp315
F75.19884705543518
ag5
aI155
aa(lp316
F75.44458198547363
ag2
aI157
aa(lp317
F75.68494510650635
ag5
aI156
aa(lp318
F75.91273903846741
ag2
aI158
aa(lp319
F76.27336502075195
ag5
aI157
aa(lp320
F76.63609099388123
ag2
aI159
aa(lp321
F76.86767506599426
ag5
aI158
aa(lp322
F77.10040092468262
ag2
aI160
aa(lp323
F77.33131003379822
ag5
aI159
aa(lp324
F77.57576203346252
ag2
aI161
aa(lp325
F77.7920310497284
ag5
aI160
aa(lp326
F78.02131509780884
ag2
aI162
aa(lp327
F78.25991606712341
ag5
aI161
aa(lp328
F78.4911561012268
ag2
aI163
aa(lp329
F78.7299370765686
ag5
aI162
aa(lp330
F78.96631407737732
ag2
aI164
aa(lp331
F79.35303592681885
ag5
aI163
aa(lp332
F79.57648801803589
ag2
aI165
aa(lp333
F79.80569195747375
ag5
aI164
aa(lp334
F80.03322792053223
ag2
aI166
aa(lp335
F80.26889991760254
ag5
aI165
aa(lp336
F80.49580097198486
ag2
aI167
aa(lp337
F80.72219395637512
ag5
aI166
aa(lp338
F80.96123003959656
ag2
aI168
aa(lp339
F81.20224905014038
ag5
aI167
aa(lp340
F81.42936301231384
ag2
aI169
aa(lp341
F81.69071102142334
ag5
aI168
aa(lp342
F81.94582390785217
ag2
aI170
aa(lp343
F82.18284201622009
ag5
aI169
aa(lp344
F82.4203770160675
ag2
aI171
aa(lp345
F82.65292406082153
ag5
aI170
aa(lp346
F82.89767003059387
ag2
aI172
aa(lp347
F83.13682508468628
ag5
aI171
aa(lp348
F83.39021611213684
ag2
aI173
aa(lp349
F83.63058090209961
ag5
aI172
aa(lp350
F83.87420105934143
ag2
aI174
aa(lp351
F84.13061308860779
ag5
aI173
aa(lp352
F84.3576889038086
ag2
aI175
aa(lp353
F84.59924006462097
ag5
aI174
aa(lp354
F84.84123396873474
ag2
aI176
aa(lp355
F85.09610199928284
ag5
aI175
aa(lp356
F85.33267307281494
ag2
aI177
aa(lp357
F85.7034330368042
ag5
aI176
aa(lp358
F85.97067403793335
ag2
aI178
aa(lp359
F86.23981094360352
ag5
aI177
aa(lp360
F86.48190093040466
ag2
aI179
aa(lp361
F86.73093509674072
ag5
aI178
aa(lp362
F87.10704803466797
ag2
aI180
aa(lp363
F87.34997296333313
ag5
aI179
aa(lp364
F87.57656502723694
ag2
aI181
aa(lp365
F87.80955600738525
ag5
aI180
aa(lp366
F88.04194712638855
ag2
aI182
aa(lp367
F88.28137397766113
ag5
aI181
aa(lp368
F88.5138349533081
ag2
aI183
aa(lp369
F88.74055504798889
ag5
aI182
aa(lp370
F88.97828102111816
ag2
aI184
aa(lp371
F89.22179412841797
ag5
aI183
aa(lp372
F89.46037197113037
ag2
aI185
aa(lp373
F89.69870710372925
ag5
aI184
aa(lp374
F89.9205060005188
ag2
aI186
aa(lp375
F90.14780592918396
ag5
aI185
aa(lp376
F90.3783860206604
ag2
aI187
aa(lp377
F90.61609196662903
ag5
aI186
aa(lp378
F90.84856104850769
ag2
aI188
aa(lp379
F91.07750701904297
ag5
aI187
aa(lp380
F91.30294013023376
ag2
aI189
aa(lp381
F91.54451298713684
ag5
aI188
aa(lp382
F91.78123807907104
ag2
aI190
aa(lp383
F92.02253794670105
ag5
aI189
aa(lp384
F92.25250697135925
ag2
aI191
aa(lp385
F92.49065113067627
ag5
aI190
aa(lp386
F92.7251660823822
ag2
aI192
aa(lp387
F92.96117305755615
ag5
aI191
aa(lp388
F93.20250201225281
ag2
aI193
aa(lp389
F93.43017911911011
ag5
aI192
aa(lp390
F93.67044496536255
ag2
aI194
aa(lp391
F93.9098129272461
ag5
aI193
aa(lp392
F94.15458607673645
ag2
aI195
aa(lp393
F94.39331412315369
ag5
aI194
aa(lp394
F94.63806104660034
ag2
aI196
aa(lp395
F94.89116096496582
ag5
aI195
aa(lp396
F95.11358690261841
ag2
aI197
aa(lp397
F95.35858392715454
ag5
aI196
aa(lp398
F95.59772300720215
ag2
aI198
aa(lp399
F95.83755207061768
ag5
aI197
aa(lp400
F96.07855701446533
ag2
aI199
aa(lp401
F96.33495807647705
ag5
aI198
aa(lp402
F96.57598495483398
ag2
aI200
aa(lp403
F99.83281803131104
ag2
aI201
aa.