(lp0
(lp1
F0.003679037094116211
aS'TCP'
p2
aI0
aa(lp3
F0.05540204048156738
aS'UDP'
p4
aI0
aa(lp5
F0.2904951572418213
ag2
aI1
aa(lp6
F0.5301291942596436
ag4
aI1
aa(lp7
F0.7784700393676758
ag2
aI2
aa(lp8
F1.005753993988037
ag4
aI2
aa(lp9
F1.2618579864501953
ag2
aI3
aa(lp10
F1.5019721984863281
ag4
aI3
aa(lp11
F1.7258551120758057
ag2
aI4
aa(lp12
F1.953383207321167
ag4
aI4
aa(lp13
F2.1872591972351074
ag2
aI5
aa(lp14
F2.4214491844177246
ag4
aI5
aa(lp15
F2.658306121826172
ag2
aI6
aa(lp16
F2.893238067626953
ag4
aI6
aa(lp17
F3.131192207336426
ag2
aI7
aa(lp18
F3.592332124710083
ag2
aI8
aa(lp19
F4.056124210357666
ag2
aI9
aa(lp20
F4.530339002609253
ag2
aI10
aa(lp21
F5.0082361698150635
ag2
aI11
aa(lp22
F5.490833044052124
ag2
aI12
aa(lp23
F5.951364994049072
ag2
aI13
aa(lp24
F6.44362211227417
ag2
aI14
aa(lp25
F6.91559910774231
ag2
aI15
aa(lp26
F7.390362977981567
ag2
aI16
aa(lp27
F7.871124982833862
ag2
aI17
aa(lp28
F8.144671201705933
ag4
aI7
aa(lp29
F8.382246017456055
ag2
aI18
aa(lp30
F8.611004114151001
ag4
aI8
aa(lp31
F8.844411134719849
ag2
aI19
aa(lp32
F9.074740171432495
ag4
aI9
aa(lp33
F9.309552192687988
ag2
aI20
aa(lp34
F9.534888982772827
ag4
aI10
aa(lp35
F9.766355991363525
ag2
aI21
aa(lp36
F10.001654148101807
ag4
aI11
aa(lp37
F10.239647150039673
ag2
aI22
aa(lp38
F10.486272096633911
ag4
aI12
aa(lp39
F10.724035024642944
ag2
aI23
aa(lp40
F10.967828035354614
ag4
aI13
aa(lp41
F11.206778049468994
ag2
aI24
aa(lp42
F11.456436157226562
ag4
aI14
aa(lp43
F11.69943618774414
ag2
aI25
aa(lp44
F11.94119119644165
ag4
aI15
aa(lp45
F12.179419040679932
ag2
aI26
aa(lp46
F12.638704061508179
ag2
aI27
aa(lp47
F13.108298063278198
ag2
aI28
aa(lp48
F13.574717998504639
ag2
aI29
aa(lp49
F14.059590101242065
ag2
aI30
aa(lp50
F14.557318210601807
ag2
aI31
aa(lp51
F15.036171197891235
ag2
aI32
aa(lp52
F15.495076179504395
ag2
aI33
aa(lp53
F15.95190715789795
ag2
aI34
aa(lp54
F16.40273118019104
ag2
aI35
aa(lp55
F16.858960151672363
ag2
aI36
aa(lp56
F17.315141201019287
ag2
aI37
aa(lp57
F17.542750120162964
ag4
aI16
aa(lp58
F17.7784321308136
ag2
aI38
aa(lp59
F18.010361194610596
ag4
aI17
aa(lp60
F18.25025200843811
ag2
aI39
aa(lp61
F18.482376098632812
ag4
aI18
aa(lp62
F18.713147163391113
ag2
aI40
aa(lp63
F18.938721179962158
ag4
aI19
aa(lp64
F19.175096035003662
ag2
aI41
aa(lp65
F19.406660079956055
ag4
aI20
aa(lp66
F19.634666204452515
ag2
aI42
aa(lp67
F19.863099098205566
ag4
aI21
aa(lp68
F20.091041088104248
ag2
aI43
aa(lp69
F20.32104802131653
ag4
aI22
aa(lp70
F20.546447038650513
ag2
aI44
aa(lp71
F20.772101163864136
ag4
aI23
aa(lp72
F20.994912147521973
ag2
aI45
aa(lp73
F21.222567081451416
ag4
aI24
aa(lp74
F21.45455813407898
ag2
aI46
aa(lp75
F21.684929132461548
ag4
aI25
aa(lp76
F21.910773992538452
ag2
aI47
aa(lp77
F22.376017093658447
ag2
aI48
aa(lp78
F22.839632987976074
ag2
aI49
aa(lp79
F23.31034207344055
ag2
aI50
aa(lp80
F23.766674995422363
ag2
aI51
aa(lp81
F24.227215051651
ag2
aI52
aa(lp82
F24.694661140441895
ag2
aI53
aa(lp83
F25.16684317588806
ag2
aI54
aa(lp84
F25.61892604827881
ag2
aI55
aa(lp85
F26.074311017990112
ag2
aI56
aa(lp86
F26.526632070541382
ag2
aI57
aa(lp87
F26.97833800315857
ag2
aI58
aa(lp88
F27.206748008728027
ag4
aI26
aa(lp89
F27.434507131576538
ag2
aI59
aa(lp90
F27.679501056671143
ag4
aI27
aa(lp91
F27.927762985229492
ag2
aI60
aa(lp92
F28.162940979003906
ag4
aI28
aa(lp93
F28.39137601852417
ag2
aI61
aa(lp94
F28.623697996139526
ag4
aI29
aa(lp95
F28.855682134628296
ag2
aI62
aa(lp96
F29.08664298057556
ag4
aI30
aa(lp97
F29.330769062042236
ag2
aI63
aa(lp98
F29.579641103744507
ag4
aI31
aa(lp99
F29.83660101890564
ag2
aI64
aa(lp100
F30.110114097595215
ag4
aI32
aa(lp101
F30.35544514656067
ag2
aI65
aa(lp102
F30.60468101501465
ag4
aI33
aa(lp103
F30.855642080307007
ag2
aI66
aa(lp104
F31.36698818206787
ag2
aI67
aa(lp105
F31.835007190704346
ag2
aI68
aa(lp106
F32.34307408332825
ag2
aI69
aa(lp107
F32.84424018859863
ag2
aI70
aa(lp108
F33.331271171569824
ag2
aI71
aa(lp109
F33.80683517456055
ag2
aI72
aa(lp110
F34.29846811294556
ag2
aI73
aa(lp111
F34.7824170589447
ag2
aI74
aa(lp112
F35.273553133010864
ag2
aI75
aa(lp113
F35.772409200668335
ag2
aI76
aa(lp114
F36.239819049835205
ag2
aI77
aa(lp115
F36.47613215446472
ag4
aI34
aa(lp116
F36.721384048461914
ag2
aI78
aa(lp117
F36.95679306983948
ag4
aI35
aa(lp118
F37.187944173812866
ag2
aI79
aa(lp119
F37.4280149936676
ag4
aI36
aa(lp120
F37.68240308761597
ag2
aI80
aa(lp121
F37.92044520378113
ag4
aI37
aa(lp122
F38.1650550365448
ag2
aI81
aa(lp123
F38.404338121414185
ag4
aI38
aa(lp124
F38.637463092803955
ag2
aI82
aa(lp125
F38.87435007095337
ag4
aI39
aa(lp126
F39.12729001045227
ag2
aI83
aa(lp127
F39.36916708946228
ag4
aI40
aa(lp128
F39.6253399848938
ag2
aI84
aa(lp129
F39.84652400016785
ag4
aI41
aa(lp130
F40.094897985458374
ag2
aI85
aa(lp131
F40.331560134887695
ag4
aI42
aa(lp132
F40.69377517700195
ag2
aI86
aa(lp133
F41.173686027526855
ag2
aI87
aa(lp134
F41.67089605331421
ag2
aI88
aa(lp135
F42.15770220756531
ag2
aI89
aa(lp136
F42.65429210662842
ag2
aI90
aa(lp137
F43.12685298919678
ag2
aI91
aa(lp138
F43.6170380115509
ag2
aI92
aa(lp139
F44.11211800575256
ag2
aI93
aa(lp140
F44.59682512283325
ag2
aI94
aa(lp141
F45.08020210266113
ag2
aI95
aa(lp142
F45.569761991500854
ag2
aI96
aa(lp143
F45.816023111343384
ag4
aI43
aa(lp144
F46.04624009132385
ag2
aI97
aa(lp145
F46.28971815109253
ag4
aI44
aa(lp146
F46.532427072525024
ag2
aI98
aa(lp147
F46.77404808998108
ag4
aI45
aa(lp148
F47.01204013824463
ag2
aI99
aa(lp149
F47.26088809967041
ag4
aI46
aa(lp150
F47.50395107269287
ag2
aI100
aa(lp151
F47.74628210067749
ag4
aI47
aa(lp152
F47.98480820655823
ag2
aI101
aa(lp153
F48.215039014816284
ag4
aI48
aa(lp154
F48.46271109580994
ag2
aI102
aa(lp155
F48.703580141067505
ag4
aI49
aa(lp156
F48.94011211395264
ag2
aI103
aa(lp157
F49.18191409111023
ag4
aI50
aa(lp158
F49.42510199546814
ag2
aI104
aa(lp159
F49.66057801246643
ag4
aI51
aa(lp160
F50.0232470035553
ag2
aI105
aa(lp161
F50.49003505706787
ag2
aI106
aa(lp162
F50.9472541809082
ag2
aI107
aa(lp163
F51.424347162246704
ag2
aI108
aa(lp164
F51.882203102111816
ag2
aI109
aa(lp165
F52.34208798408508
ag2
aI110
aa(lp166
F52.810203075408936
ag2
aI111
aa(lp167
F53.271109104156494
ag2
aI112
aa(lp168
F53.75623297691345
ag2
aI113
aa(lp169
F54.21524214744568
ag2
aI114
aa(lp170
F54.67584013938904
ag2
aI115
aa(lp171
F55.13246011734009
ag2
aI116
aa(lp172
F55.36624503135681
ag4
aI52
aa(lp173
F55.61102318763733
ag2
aI117
aa(lp174
F55.851097106933594
ag4
aI53
aa(lp175
F56.087494134902954
ag2
aI118
aa(lp176
F56.32587218284607
ag4
aI54
aa(lp177
F56.56289005279541
ag2
aI119
aa(lp178
F56.81033420562744
ag4
aI55
aa(lp179
F57.04633402824402
ag2
aI120
aa(lp180
F57.29823112487793
ag4
aI56
aa(lp181
F57.53156805038452
ag2
aI121
aa(lp182
F57.76425004005432
ag4
aI57
aa(lp183
F57.9993531703949
ag2
aI122
aa(lp184
F58.23312306404114
ag4
aI58
aa(lp185
F58.47106599807739
ag2
aI123
aa(lp186
F58.71084213256836
ag4
aI59
aa(lp187
F58.95429611206055
ag2
aI124
aa(lp188
F59.42792820930481
ag2
aI125
aa(lp189
F59.885051012039185
ag2
aI126
aa(lp190
F60.35011005401611
ag2
aI127
aa(lp191
F60.81794714927673
ag2
aI128
aa(lp192
F61.28630304336548
ag2
aI129
aa(lp193
F61.76268911361694
ag2
aI130
aa(lp194
F62.21064519882202
ag2
aI131
aa(lp195
F62.68148708343506
ag2
aI132
aa(lp196
F63.129388093948364
ag2
aI133
aa(lp197
F63.58138418197632
ag2
aI134
aa(lp198
F64.05015301704407
ag2
aI135
aa(lp199
F64.28665804862976
ag4
aI60
aa(lp200
F64.52951717376709
ag2
aI136
aa(lp201
F64.77198219299316
ag4
aI61
aa(lp202
F65.01579999923706
ag2
aI137
aa(lp203
F65.24299216270447
ag4
aI62
aa(lp204
F65.4759521484375
ag2
aI138
aa(lp205
F65.70679020881653
ag4
aI63
aa(lp206
F65.93373203277588
ag2
aI139
aa(lp207
F66.15448999404907
ag4
aI64
aa(lp208
F66.39027404785156
ag2
aI140
aa(lp209
F66.616219997406
ag4
aI65
aa(lp210
F66.84478807449341
ag2
aI141
aa(lp211
F67.09154009819031
ag4
aI66
aa(lp212
F67.31536197662354
ag2
aI142
aa(lp213
F67.54758715629578
ag4
aI67
aa(lp214
F67.78700017929077
ag2
aI143
aa(lp215
F68.03865218162537
ag4
aI68
aa(lp216
F68.27766418457031
ag2
aI144
aa(lp217
F68.75998711585999
ag2
aI145
aa(lp218
F69.21647500991821
ag2
aI146
aa(lp219
F69.69369721412659
ag2
aI147
aa(lp220
F70.15388917922974
ag2
aI148
aa(lp221
F70.61345219612122
ag2
aI149
aa(lp222
F71.08183598518372
ag2
aI150
aa(lp223
F71.55185914039612
ag2
aI151
aa(lp224
F72.02029418945312
ag2
aI152
aa(lp225
F72.47718715667725
ag2
aI153
aa(lp226
F72.94230914115906
ag2
aI154
aa(lp227
F73.40351605415344
ag2
aI155
aa(lp228
F73.61466598510742
ag4
aI69
aa(lp229
F73.85214114189148
ag2
aI156
aa(lp230
F74.08990907669067
ag4
aI70
aa(lp231
F74.32419800758362
ag2
aI157
aa(lp232
F74.5590181350708
ag4
aI71
aa(lp233
F74.92736005783081
ag2
aI158
aa(lp234
F75.1793041229248
ag4
aI72
aa(lp235
F75.42626309394836
ag2
aI159
aa(lp236
F75.67311811447144
ag4
aI73
aa(lp237
F75.91128611564636
ag2
aI160
aa(lp238
F76.15797019004822
ag4
aI74
aa(lp239
F76.39449000358582
ag2
aI161
aa(lp240
F76.64440202713013
ag4
aI75
aa(lp241
F76.88153100013733
ag2
aI162
aa(lp242
F77.1115779876709
ag4
aI76
aa(lp243
F77.36276412010193
ag2
aI163
aa(lp244
F77.88123917579651
ag2
aI164
aa(lp245
F78.34968209266663
ag2
aI165
aa(lp246
F78.8128080368042
ag2
aI166
aa(lp247
F79.2768771648407
ag2
aI167
aa(lp248
F79.74869704246521
ag2
aI168
aa(lp249
F80.22874116897583
ag2
aI169
aa(lp250
F80.72180199623108
ag2
aI170
aa(lp251
F81.19652915000916
ag2
aI171
aa(lp252
F81.67743015289307
ag2
aI172
aa(lp253
F82.15474700927734
ag2
aI173
aa(lp254
F82.39506912231445
ag4
aI77
aa(lp255
F82.64466214179993
ag2
aI174
aa(lp256
F82.90007519721985
ag4
aI78
aa(lp257
F83.14203119277954
ag2
aI175
aa(lp258
F83.3939561843872
ag4
aI79
aa(lp259
F83.6369321346283
ag2
aI176
aa(lp260
F83.88940811157227
ag4
aI80
aa(lp261
F84.1276581287384
ag2
aI177
aa(lp262
F84.36049318313599
ag4
aI81
aa(lp263
F84.60273718833923
ag2
aI178
aa(lp264
F84.84329915046692
ag4
aI82
aa(lp265
F85.07871699333191
ag2
aI179
aa(lp266
F85.3106460571289
ag4
aI83
aa(lp267
F85.53963112831116
ag2
aI180
aa(lp268
F85.75988698005676
ag4
aI84
aa(lp269
F85.99038505554199
ag2
aI181
aa(lp270
F86.22545599937439
ag4
aI85
aa(lp271
F86.4564139842987
ag2
aI182
aa(lp272
F86.93347811698914
ag2
aI183
aa(lp273
F87.38616514205933
ag2
aI184
aa(lp274
F87.8523621559143
ag2
aI185
aa(lp275
F88.32374405860901
ag2
aI186
aa(lp276
F88.79382300376892
ag2
aI187
aa(lp277
F89.25679016113281
ag2
aI188
aa(lp278
F89.73998403549194
ag2
aI189
aa(lp279
F90.22870802879333
ag2
aI190
aa(lp280
F90.695876121521
ag2
aI191
aa(lp281
F91.16017413139343
ag2
aI192
aa(lp282
F91.62573218345642
ag2
aI193
aa(lp283
F91.85427904129028
ag4
aI86
aa(lp284
F92.08840608596802
ag2
aI194
aa(lp285
F92.31106305122375
ag4
aI87
aa(lp286
F92.54871821403503
ag2
aI195
aa(lp287
F92.79892015457153
ag4
aI88
aa(lp288
F93.0244631767273
ag2
aI196
aa(lp289
F93.24784207344055
ag4
aI89
aa(lp290
F93.47611713409424
ag2
aI197
aa(lp291
F93.70082402229309
ag4
aI90
aa(lp292
F93.92833209037781
ag2
aI198
aa(lp293
F94.1559681892395
ag4
aI91
aa(lp294
F94.3897590637207
ag2
aI199
aa(lp295
F94.62935709953308
ag4
aI92
aa(lp296
F94.8639349937439
ag2
aI200
aa(lp297
F98.125648021698
ag2
aI201
aa.