(lp0
(lp1
F0.007202863693237305
aS'TCP'
p2
aI0
aa(lp3
F0.3236348628997803
ag2
aI1
aa(lp4
F0.5979208946228027
aS'UDP'
p5
aI0
aa(lp6
F0.867006778717041
ag2
aI2
aa(lp7
F0.9561059474945068
ag5
aI1
aa(lp8
F1.1506519317626953
ag5
aI2
aa(lp9
F1.303292989730835
ag2
aI3
aa(lp10
F1.415287971496582
ag2
aI4
aa(lp11
F1.5744028091430664
ag5
aI3
aa(lp12
F1.6846518516540527
ag5
aI4
aa(lp13
F1.7955989837646484
ag2
aI5
aa(lp14
F1.928238868713379
ag2
aI6
aa(lp15
F2.079342842102051
ag5
aI5
aa(lp16
F2.187898874282837
ag5
aI6
aa(lp17
F2.3560848236083984
ag2
aI7
aa(lp18
F2.4640119075775146
ag2
aI8
aa(lp19
F2.6039397716522217
ag5
aI7
aa(lp20
F2.7492849826812744
ag5
aI8
aa(lp21
F2.846155881881714
ag2
aI9
aa(lp22
F2.980717897415161
ag2
aI10
aa(lp23
F3.1055028438568115
ag5
aI9
aa(lp24
F3.241795778274536
ag5
aI10
aa(lp25
F3.346186876296997
ag2
aI11
aa(lp26
F3.473294973373413
ag2
aI12
aa(lp27
F3.624177932739258
ag5
aI11
aa(lp28
F3.7675538063049316
ag5
aI12
aa(lp29
F3.8568389415740967
ag2
aI13
aa(lp30
F4.030561923980713
ag2
aI14
aa(lp31
F4.1435418128967285
ag5
aI13
aa(lp32
F4.384883880615234
ag2
aI15
aa(lp33
F4.5429699420928955
ag2
aI16
aa(lp34
F5.050782918930054
ag2
aI17
aa(lp35
F5.527422904968262
ag2
aI18
aa(lp36
F5.910825967788696
ag2
aI19
aa(lp37
F6.015653848648071
ag2
aI20
aa(lp38
F6.426165819168091
ag2
aI21
aa(lp39
F6.502684831619263
ag2
aI22
aa(lp40
F6.910935878753662
ag2
aI23
aa(lp41
F7.056410789489746
ag2
aI24
aa(lp42
F7.390952825546265
ag2
aI25
aa(lp43
F7.5632078647613525
ag2
aI26
aa(lp44
F7.992642879486084
ag2
aI27
aa(lp45
F8.157225847244263
ag2
aI28
aa(lp46
F8.513752937316895
ag2
aI29
aa(lp47
F8.671788930892944
ag2
aI30
aa(lp48
F9.056842803955078
ag2
aI31
aa(lp49
F9.181335926055908
ag2
aI32
aa(lp50
F9.556862831115723
ag2
aI33
aa(lp51
F9.673146963119507
ag2
aI34
aa(lp52
F10.098327875137329
ag2
aI35
aa(lp53
F10.191446781158447
ag2
aI36
aa(lp54
F10.574952840805054
ag2
aI37
aa(lp55
F10.69171690940857
ag2
aI38
aa(lp56
F11.069222927093506
ag2
aI39
aa(lp57
F11.188715934753418
ag2
aI40
aa(lp58
F11.566183805465698
ag2
aI41
aa(lp59
F11.655742883682251
ag2
aI42
aa(lp60
F12.066800832748413
ag2
aI43
aa(lp61
F12.176095962524414
ag2
aI44
aa(lp62
F12.539423942565918
ag2
aI45
aa(lp63
F12.660515785217285
ag2
aI46
aa(lp64
F13.039801836013794
ag2
aI47
aa(lp65
F13.204984903335571
ag2
aI48
aa(lp66
F13.513954877853394
ag2
aI49
aa(lp67
F13.681915998458862
ag2
aI50
aa(lp68
F14.001198768615723
ag2
aI51
aa(lp69
F14.143742799758911
ag2
aI52
aa(lp70
F14.400442838668823
ag5
aI14
aa(lp71
F14.542876958847046
ag2
aI53
aa(lp72
F14.637724876403809
ag2
aI54
aa(lp73
F14.769568920135498
ag5
aI15
aa(lp74
F14.890414953231812
ag5
aI16
aa(lp75
F15.041513919830322
ag2
aI55
aa(lp76
F15.130145788192749
ag2
aI56
aa(lp77
F15.283093929290771
ag5
aI17
aa(lp78
F15.356460809707642
ag5
aI18
aa(lp79
F15.527445793151855
ag2
aI57
aa(lp80
F15.6075758934021
ag2
aI58
aa(lp81
F15.756101846694946
ag5
aI19
aa(lp82
F15.845455884933472
ag5
aI20
aa(lp83
F15.989921808242798
ag2
aI59
aa(lp84
F16.08024787902832
ag2
aI60
aa(lp85
F16.24256682395935
ag5
aI21
aa(lp86
F16.374254941940308
ag5
aI22
aa(lp87
F16.48004984855652
ag2
aI61
aa(lp88
F16.611976861953735
ag2
aI62
aa(lp89
F16.956995964050293
ag2
aI63
aa(lp90
F17.119093894958496
ag2
aI64
aa(lp91
F17.4283390045166
ag2
aI65
aa(lp92
F17.583062887191772
ag2
aI66
aa(lp93
F17.91204595565796
ag2
aI67
aa(lp94
F18.107152938842773
ag2
aI68
aa(lp95
F18.40353488922119
ag2
aI69
aa(lp96
F18.591607809066772
ag2
aI70
aa(lp97
F18.88096785545349
ag2
aI71
aa(lp98
F19.06469488143921
ag2
aI72
aa(lp99
F19.350534915924072
ag2
aI73
aa(lp100
F19.54048180580139
ag2
aI74
aa(lp101
F19.828996896743774
ag2
aI75
aa(lp102
F20.004653930664062
ag2
aI76
aa(lp103
F20.323143005371094
ag2
aI77
aa(lp104
F20.47831892967224
ag2
aI78
aa(lp105
F20.850469827651978
ag2
aI79
aa(lp106
F21.0135657787323
ag2
aI80
aa(lp107
F21.348867893218994
ag2
aI81
aa(lp108
F21.503845930099487
ag2
aI82
aa(lp109
F21.93065595626831
ag2
aI83
aa(lp110
F22.007324934005737
ag2
aI84
aa(lp111
F22.395094871520996
ag2
aI85
aa(lp112
F22.56643581390381
ag2
aI86
aa(lp113
F22.862363815307617
ag2
aI87
aa(lp114
F23.055741786956787
ag2
aI88
aa(lp115
F23.32301092147827
ag2
aI89
aa(lp116
F23.542983770370483
ag2
aI90
aa(lp117
F23.875942945480347
ag2
aI91
aa(lp118
F24.022648811340332
ag2
aI92
aa(lp119
F24.3464617729187
ag2
aI93
aa(lp120
F24.51996898651123
ag2
aI94
aa(lp121
F24.815469980239868
ag2
aI95
aa(lp122
F24.985886812210083
ag2
aI96
aa(lp123
F25.29049587249756
ag2
aI97
aa(lp124
F25.445615768432617
ag2
aI98
aa(lp125
F25.784754991531372
ag2
aI99
aa(lp126
F25.930240869522095
ag2
aI100
aa(lp127
F26.260209798812866
ag2
aI101
aa(lp128
F26.4236958026886
ag2
aI102
aa(lp129
F26.498052835464478
ag5
aI23
aa(lp130
F26.69430685043335
ag5
aI24
aa(lp131
F26.753607988357544
ag2
aI103
aa(lp132
F26.949837923049927
ag2
aI104
aa(lp133
F26.989085912704468
ag5
aI25
aa(lp134
F27.183324813842773
ag5
aI26
aa(lp135
F27.22948980331421
ag2
aI105
aa(lp136
F27.431577920913696
ag2
aI106
aa(lp137
F27.47538185119629
ag5
aI27
aa(lp138
F27.68486499786377
ag5
aI28
aa(lp139
F27.826735973358154
ag2
aI107
aa(lp140
F27.91368079185486
ag2
aI108
aa(lp141
F28.052430868148804
ag5
aI29
aa(lp142
F28.14726686477661
ag5
aI30
aa(lp143
F28.28047490119934
ag2
aI109
aa(lp144
F28.408175945281982
ag2
aI110
aa(lp145
F28.5255868434906
ag5
aI31
aa(lp146
F28.658739805221558
ag5
aI32
aa(lp147
F28.761534929275513
ag2
aI111
aa(lp148
F28.897634983062744
ag2
aI112
aa(lp149
F29.232948780059814
ag2
aI113
aa(lp150
F29.36731791496277
ag2
aI114
aa(lp151
F29.703125953674316
ag2
aI115
aa(lp152
F29.855133771896362
ag2
aI116
aa(lp153
F30.187084913253784
ag2
aI117
aa(lp154
F30.34560990333557
ag2
aI118
aa(lp155
F30.65838098526001
ag2
aI119
aa(lp156
F30.80644178390503
ag2
aI120
aa(lp157
F31.15436291694641
ag2
aI121
aa(lp158
F31.324495792388916
ag2
aI122
aa(lp159
F31.827067852020264
ag2
aI123
aa(lp160
F32.21221590042114
ag2
aI124
aa(lp161
F32.34588098526001
ag2
aI125
aa(lp162
F32.72917699813843
ag2
aI126
aa(lp163
F32.90678381919861
ag2
aI127
aa(lp164
F33.22119188308716
ag2
aI128
aa(lp165
F33.4122200012207
ag2
aI129
aa(lp166
F33.75939083099365
ag2
aI130
aa(lp167
F33.90955591201782
ag2
aI131
aa(lp168
F34.24723696708679
ag2
aI132
aa(lp169
F34.397865772247314
ag2
aI133
aa(lp170
F34.74258780479431
ag2
aI134
aa(lp171
F34.903865814208984
ag2
aI135
aa(lp172
F35.23984384536743
ag2
aI136
aa(lp173
F35.4094979763031
ag2
aI137
aa(lp174
F35.723389863967896
ag2
aI138
aa(lp175
F35.91592884063721
ag2
aI139
aa(lp176
F36.22659492492676
ag2
aI140
aa(lp177
F36.38794493675232
ag2
aI141
aa(lp178
F36.76060199737549
ag2
aI142
aa(lp179
F36.88216590881348
ag2
aI143
aa(lp180
F37.2624077796936
ag2
aI144
aa(lp181
F37.35708689689636
ag2
aI145
aa(lp182
F37.71947979927063
ag2
aI146
aa(lp183
F37.85342478752136
ag2
aI147
aa(lp184
F38.17171382904053
ag2
aI148
aa(lp185
F38.31005597114563
ag2
aI149
aa(lp186
F38.66917896270752
ag2
aI150
aa(lp187
F38.798141956329346
ag2
aI151
aa(lp188
F38.910860776901245
ag5
aI33
aa(lp189
F39.03587198257446
ag5
aI34
aa(lp190
F39.1822988986969
ag2
aI152
aa(lp191
F39.29237079620361
ag2
aI153
aa(lp192
F39.4157919883728
ag5
aI35
aa(lp193
F39.53313589096069
ag5
aI36
aa(lp194
F39.65246295928955
ag2
aI154
aa(lp195
F39.76438283920288
ag2
aI155
aa(lp196
F39.893176794052124
ag5
aI37
aa(lp197
F40.0212287902832
ag5
aI38
aa(lp198
F40.12417984008789
ag2
aI156
aa(lp199
F40.25555491447449
ag2
aI157
aa(lp200
F40.36509990692139
ag5
aI39
aa(lp201
F40.49786591529846
ag5
aI40
aa(lp202
F40.65247583389282
ag2
aI158
aa(lp203
F40.73663091659546
ag2
aI159
aa(lp204
F40.927294969558716
ag5
aI41
aa(lp205
F41.222288846969604
ag2
aI160
aa(lp206
F41.36801290512085
ag2
aI161
aa(lp207
F41.676636934280396
ag2
aI162
aa(lp208
F41.84395790100098
ag2
aI163
aa(lp209
F42.204572916030884
ag2
aI164
aa(lp210
F42.378173828125
ag2
aI165
aa(lp211
F42.67181396484375
ag2
aI166
aa(lp212
F42.85623598098755
ag2
aI167
aa(lp213
F43.3347008228302
ag2
aI168
aa(lp214
F43.65035581588745
ag2
aI169
aa(lp215
F43.82046580314636
ag2
aI170
aa(lp216
F44.11527395248413
ag2
aI171
aa(lp217
F44.29147696495056
ag2
aI172
aa(lp218
F44.594910860061646
ag2
aI173
aa(lp219
F44.762335777282715
ag2
aI174
aa(lp220
F45.06198287010193
ag2
aI175
aa(lp221
F45.22015190124512
ag2
aI176
aa(lp222
F45.53125596046448
ag2
aI177
aa(lp223
F45.68289399147034
ag2
aI178
aa(lp224
F46.00937795639038
ag2
aI179
aa(lp225
F46.16568994522095
ag2
aI180
aa(lp226
F46.48676776885986
ag2
aI181
aa(lp227
F46.648197889328
ag2
aI182
aa(lp228
F46.955694913864136
ag2
aI183
aa(lp229
F47.119170904159546
ag2
aI184
aa(lp230
F47.462135791778564
ag2
aI185
aa(lp231
F47.62056589126587
ag2
aI186
aa(lp232
F48.071167945861816
ag2
aI187
aa(lp233
F48.22307991981506
ag2
aI188
aa(lp234
F48.54722595214844
ag2
aI189
aa(lp235
F48.72405791282654
ag2
aI190
aa(lp236
F49.018664836883545
ag2
aI191
aa(lp237
F49.20013689994812
ag2
aI192
aa(lp238
F49.52694392204285
ag2
aI193
aa(lp239
F49.68037295341492
ag2
aI194
aa(lp240
F50.00422978401184
ag2
aI195
aa(lp241
F50.16880178451538
ag2
aI196
aa(lp242
F50.50223183631897
ag2
aI197
aa(lp243
F50.63052296638489
ag2
aI198
aa(lp244
F50.979278802871704
ag2
aI199
aa(lp245
F51.11000394821167
ag2
aI200
aa(lp246
F51.20702791213989
ag5
aI42
aa(lp247
F51.359123945236206
ag5
aI43
aa(lp248
F51.447380781173706
ag2
aI201
aa(lp249
F51.59559893608093
ag2
aI202
aa(lp250
F51.681147813797
ag5
aI44
aa(lp251
F51.824211835861206
ag5
aI45
aa(lp252
F51.91769289970398
ag2
aI203
aa(lp253
F52.07031583786011
ag2
aI204
aa(lp254
F52.22563600540161
ag5
aI46
aa(lp255
F52.29983377456665
ag5
aI47
aa(lp256
F52.475000858306885
ag2
aI205
aa(lp257
F52.56565999984741
ag2
aI206
aa(lp258
F52.70707082748413
ag5
aI48
aa(lp259
F52.79997682571411
ag5
aI49
aa(lp260
F52.97236394882202
ag2
aI207
aa(lp261
F53.123464822769165
ag2
aI208
aa(lp262
F53.44110894203186
ag2
aI209
aa(lp263
F53.62172198295593
ag2
aI210
aa(lp264
F53.91789984703064
ag2
aI211
aa(lp265
F54.07566690444946
ag2
aI212
aa(lp266
F54.38413977622986
ag2
aI213
aa(lp267
F54.57510280609131
ag2
aI214
aa(lp268
F54.864906787872314
ag2
aI215
aa(lp269
F55.03981685638428
ag2
aI216
aa(lp270
F55.34432792663574
ag2
aI217
aa(lp271
F55.50769281387329
ag2
aI218
aa(lp272
F55.856069803237915
ag2
aI219
aa(lp273
F56.00002193450928
ag2
aI220
aa(lp274
F56.34305000305176
ag2
aI221
aa(lp275
F56.53499698638916
ag2
aI222
aa(lp276
F57.0058958530426
ag2
aI223
aa(lp277
F57.36859488487244
ag2
aI224
aa(lp278
F57.4796199798584
ag2
aI225
aa(lp279
F57.85391592979431
ag2
aI226
aa(lp280
F58.0038058757782
ag2
aI227
aa(lp281
F58.5316698551178
ag2
aI228
aa(lp282
F58.80557084083557
ag2
aI229
aa(lp283
F59.003925800323486
ag2
aI230
aa(lp284
F59.288086891174316
ag2
aI231
aa(lp285
F59.45988178253174
ag2
aI232
aa(lp286
F59.77131199836731
ag2
aI233
aa(lp287
F59.94320297241211
ag2
aI234
aa(lp288
F60.24867296218872
ag2
aI235
aa(lp289
F60.39175987243652
ag2
aI236
aa(lp290
F60.738077878952026
ag2
aI237
aa(lp291
F60.845345973968506
ag2
aI238
aa(lp292
F61.189026832580566
ag2
aI239
aa(lp293
F61.30927491188049
ag2
aI240
aa(lp294
F61.634974002838135
ag2
aI241
aa(lp295
F61.79028797149658
ag2
aI242
aa(lp296
F62.11200189590454
ag2
aI243
aa(lp297
F62.24425792694092
ag2
aI244
aa(lp298
F62.57129383087158
ag2
aI245
aa(lp299
F62.734163999557495
ag2
aI246
aa(lp300
F63.05674386024475
ag2
aI247
aa(lp301
F63.1970329284668
ag2
aI248
aa(lp302
F63.299821853637695
ag5
aI50
aa(lp303
F63.4276168346405
ag5
aI51
aa(lp304
F63.525635957717896
ag2
aI249
aa(lp305
F63.66398096084595
ag2
aI250
aa(lp306
F63.75667595863342
ag5
aI52
aa(lp307
F63.91586184501648
ag5
aI53
aa(lp308
F63.99014592170715
ag2
aI251
aa(lp309
F64.14862585067749
ag2
aI252
aa(lp310
F64.21963286399841
ag5
aI54
aa(lp311
F64.37576794624329
ag5
aI55
aa(lp312
F64.46162986755371
ag2
aI253
aa(lp313
F64.61200094223022
ag2
aI254
aa(lp314
F64.69529986381531
ag5
aI56
aa(lp315
F64.86102795600891
ag5
aI57
aa(lp316
F64.9197289943695
ag2
aI255
aa(lp317
F65.09531283378601
ag2
aI256
aa(lp318
F65.16774296760559
ag5
aI58
aa(lp319
F65.39931082725525
ag2
aI257
aa(lp320
F65.56442594528198
ag2
aI258
aa(lp321
F65.87461400032043
ag2
aI259
aa(lp322
F66.05347990989685
ag2
aI260
aa(lp323
F66.3591628074646
ag2
aI261
aa(lp324
F66.50478196144104
ag2
aI262
aa(lp325
F66.83525490760803
ag2
aI263
aa(lp326
F67.0095899105072
ag2
aI264
aa(lp327
F67.30980896949768
ag2
aI265
aa(lp328
F67.46702790260315
ag2
aI266
aa(lp329
F67.77207899093628
ag2
aI267
aa(lp330
F67.94835495948792
ag2
aI268
aa(lp331
F68.26576280593872
ag2
aI269
aa(lp332
F68.44718384742737
ag2
aI270
aa(lp333
F68.7598569393158
ag2
aI271
aa(lp334
F68.91107892990112
ag2
aI272
aa(lp335
F69.21296191215515
ag2
aI273
aa(lp336
F69.36316990852356
ag2
aI274
aa(lp337
F69.68291282653809
ag2
aI275
aa(lp338
F69.82014083862305
ag2
aI276
aa(lp339
F70.620187997818
ag2
aI277
aa(lp340
F71.09706091880798
ag2
aI278
aa(lp341
F71.48062586784363
ag2
aI279
aa(lp342
F71.74257278442383
ag2
aI280
aa(lp343
F72.23202991485596
ag2
aI281
aa(lp344
F72.80452585220337
ag2
aI282
aa(lp345
F73.27515578269958
ag2
aI283
aa(lp346
F73.74217987060547
ag2
aI284
aa(lp347
F74.1243507862091
ag2
aI285
aa(lp348
F74.29231595993042
ag2
aI286
aa(lp349
F74.60592699050903
ag2
aI287
aa(lp350
F74.76403284072876
ag2
aI288
aa(lp351
F75.10259985923767
ag2
aI289
aa(lp352
F75.2269549369812
ag2
aI290
aa(lp353
F75.35890984535217
ag5
aI59
aa(lp354
F75.49932384490967
ag5
aI60
aa(lp355
F75.60372591018677
ag2
aI291
aa(lp356
F75.75079083442688
ag2
aI292
aa(lp357
F75.88424897193909
ag5
aI61
aa(lp358
F75.98512578010559
ag5
aI62
aa(lp359
F76.11738896369934
ag2
aI293
aa(lp360
F76.21284079551697
ag2
aI294
aa(lp361
F76.35812377929688
ag5
aI63
aa(lp362
F76.47555088996887
ag5
aI64
aa(lp363
F76.64255499839783
ag2
aI295
aa(lp364
F76.73990893363953
ag2
aI296
aa(lp365
F76.88819193840027
ag5
aI65
aa(lp366
F77.05166697502136
ag5
aI66
aa(lp367
F77.12355995178223
ag2
aI297
aa(lp368
F77.29163384437561
ag2
aI298
aa(lp369
F77.36341786384583
ag5
aI67
aa(lp370
F77.50721597671509
ag5
aI68
aa(lp371
F77.59944200515747
ag2
aI299
aa(lp372
F77.73168897628784
ag2
aI300
aa(lp373
F78.06571388244629
ag2
aI301
aa(lp374
F78.54202389717102
ag2
aI302
aa(lp375
F79.02025580406189
ag2
aI303
aa(lp376
F79.4964849948883
ag2
aI304
aa(lp377
F79.86905097961426
ag2
aI305
aa(lp378
F79.96270298957825
ag2
aI306
aa(lp379
F80.34050488471985
ag2
aI307
aa(lp380
F80.42320680618286
ag2
aI308
aa(lp381
F80.81231594085693
ag2
aI309
aa(lp382
F80.90420985221863
ag2
aI310
aa(lp383
F81.3059298992157
ag2
aI311
aa(lp384
F81.47174191474915
ag2
aI312
aa(lp385
F81.78914880752563
ag2
aI313
aa(lp386
F81.94204592704773
ag2
aI314
aa(lp387
F82.2864158153534
ag2
aI315
aa(lp388
F82.40946197509766
ag2
aI316
aa(lp389
F82.75476384162903
ag2
aI317
aa(lp390
F82.89159893989563
ag2
aI318
aa(lp391
F83.24642992019653
ag2
aI319
aa(lp392
F83.40704679489136
ag2
aI320
aa(lp393
F83.71589589118958
ag2
aI321
aa(lp394
F84.30494379997253
ag2
aI322
aa(lp395
F84.78304886817932
ag2
aI323
aa(lp396
F84.93571186065674
ag2
aI324
aa(lp397
F85.25239896774292
ag2
aI325
aa(lp398
F85.43160486221313
ag2
aI326
aa(lp399
F85.73377084732056
ag2
aI327
aa(lp400
F85.91300082206726
ag2
aI328
aa(lp401
F86.20582580566406
ag2
aI329
aa(lp402
F86.37259793281555
ag2
aI330
aa(lp403
F86.68870186805725
ag2
aI331
aa(lp404
F86.84769582748413
ag2
aI332
aa(lp405
F87.20690488815308
ag2
aI333
aa(lp406
F87.34747290611267
ag2
aI334
aa(lp407
F87.67793583869934
ag2
aI335
aa(lp408
F87.8135278224945
ag2
aI336
aa(lp409
F87.92185997962952
ag5
aI69
aa(lp410
F88.04011678695679
ag5
aI70
aa(lp411
F88.1646339893341
ag2
aI337
aa(lp412
F88.266441822052
ag2
aI338
aa(lp413
F88.41701197624207
ag5
aI71
aa(lp414
F88.50090289115906
ag5
aI72
aa(lp415
F88.67066788673401
ag2
aI339
aa(lp416
F88.7964608669281
ag2
aI340
aa(lp417
F88.91647386550903
ag5
aI73
aa(lp418
F89.02299785614014
ag5
aI74
aa(lp419
F89.14782786369324
ag2
aI341
aa(lp420
F89.3056788444519
ag2
aI342
aa(lp421
F89.46334791183472
ag5
aI75
aa(lp422
F89.5476598739624
ag5
aI76
aa(lp423
F89.73337078094482
ag2
aI343
aa(lp424
F89.78070497512817
ag2
aI344
aa(lp425
F90.18976783752441
ag2
aI345
aa(lp426
F90.2530529499054
ag2
aI346
aa(lp427
F90.8585147857666
ag2
aI347
aa(lp428
F91.23554396629333
ag2
aI348
aa(lp429
F91.39628577232361
ag2
aI349
aa(lp430
F91.71590781211853
ag2
aI350
aa(lp431
F91.87169885635376
ag2
aI351
aa(lp432
F92.31477093696594
ag2
aI352
aa(lp433
F92.80884790420532
ag2
aI353
aa(lp434
F93.28566884994507
ag2
aI354
aa(lp435
F93.40214395523071
ag2
aI355
aa(lp436
F93.74640679359436
ag2
aI356
aa(lp437
F93.90719199180603
ag2
aI357
aa(lp438
F94.23174786567688
ag2
aI358
aa(lp439
F94.36736392974854
ag2
aI359
aa(lp440
F94.71593189239502
ag2
aI360
aa(lp441
F94.87498688697815
ag2
aI361
aa(lp442
F95.19271183013916
ag2
aI362
aa(lp443
F95.34800100326538
ag2
aI363
aa(lp444
F95.70241379737854
ag2
aI364
aa(lp445
F95.84608292579651
ag2
aI365
aa(lp446
F96.16606092453003
ag2
aI366
aa(lp447
F96.34496784210205
ag2
aI367
aa(lp448
F96.67896294593811
ag2
aI368
aa(lp449
F96.80615496635437
ag2
aI369
aa(lp450
F97.17431092262268
ag2
aI370
aa(lp451
F97.3363687992096
ag2
aI371
aa(lp452
F97.64365792274475
ag2
aI372
aa(lp453
F97.83813381195068
ag2
aI373
aa(lp454
F98.17481994628906
ag2
aI374
aa(lp455
F98.31976580619812
ag2
aI375
aa(lp456
F98.64043998718262
ag2
aI376
aa(lp457
F98.80721998214722
ag2
aI377
aa(lp458
F99.11230492591858
ag2
aI378
aa(lp459
F99.6202278137207
ag2
aI379
aa(lp460
F102.05175399780273
ag2
aI380
aa.