(lp0
(lp1
F0.000331878662109375
aS'TCP'
p2
aI0
aa(lp3
F0.060594797134399414
aS'UDP'
p4
aI0
aa(lp5
F0.30297279357910156
ag2
aI1
aa(lp6
F0.550386905670166
ag4
aI1
aa(lp7
F0.7733108997344971
ag2
aI2
aa(lp8
F1.0001249313354492
ag4
aI2
aa(lp9
F1.2318429946899414
ag2
aI3
aa(lp10
F1.4740378856658936
ag4
aI3
aa(lp11
F1.7088878154754639
ag2
aI4
aa(lp12
F1.755687952041626
ag4
aI4
aa(lp13
F1.9645648002624512
ag4
aI5
aa(lp14
F2.2043979167938232
ag2
aI5
aa(lp15
F2.3757588863372803
ag4
aI6
aa(lp16
F2.4272868633270264
ag4
aI7
aa(lp17
F2.622135877609253
ag2
aI6
aa(lp18
F2.7792928218841553
ag2
aI7
aa(lp19
F2.8479650020599365
ag4
aI8
aa(lp20
F3.0798449516296387
ag2
aI8
aa(lp21
F3.238642930984497
ag2
aI9
aa(lp22
F3.546721935272217
ag2
aI10
aa(lp23
F3.699793815612793
ag2
aI11
aa(lp24
F4.00177788734436
ag2
aI12
aa(lp25
F4.155616998672485
ag2
aI13
aa(lp26
F4.662795782089233
ag2
aI14
aa(lp27
F5.031836986541748
ag2
aI15
aa(lp28
F5.175656795501709
ag2
aI16
aa(lp29
F5.474563837051392
ag2
aI17
aa(lp30
F5.6398398876190186
ag2
aI18
aa(lp31
F5.933717966079712
ag2
aI19
aa(lp32
F6.107458829879761
ag2
aI20
aa(lp33
F6.39948582649231
ag2
aI21
aa(lp34
F6.587110996246338
ag2
aI22
aa(lp35
F7.061115980148315
ag2
aI23
aa(lp36
F7.437579870223999
ag2
aI24
aa(lp37
F7.529092788696289
ag2
aI25
aa(lp38
F7.91129994392395
ag2
aI26
aa(lp39
F8.135374784469604
ag2
aI27
aa(lp40
F8.381380796432495
ag4
aI9
aa(lp41
F8.626771926879883
ag2
aI28
aa(lp42
F8.734256982803345
ag4
aI10
aa(lp43
F8.859370946884155
ag4
aI11
aa(lp44
F9.010888814926147
ag2
aI29
aa(lp45
F9.095253944396973
ag2
aI30
aa(lp46
F9.247935771942139
ag4
aI12
aa(lp47
F9.330150842666626
ag4
aI13
aa(lp48
F9.509122848510742
ag2
aI31
aa(lp49
F9.567375898361206
ag2
aI32
aa(lp50
F9.775864839553833
ag4
aI14
aa(lp51
F10.012874841690063
ag2
aI33
aa(lp52
F10.25694489479065
ag4
aI15
aa(lp53
F10.382315874099731
ag4
aI16
aa(lp54
F10.48329496383667
ag2
aI34
aa(lp55
F10.654769897460938
ag2
aI35
aa(lp56
F10.715053796768188
ag4
aI17
aa(lp57
F10.891321897506714
ag4
aI18
aa(lp58
F10.978463888168335
ag2
aI36
aa(lp59
F11.12297797203064
ag2
aI37
aa(lp60
F11.214318990707397
ag4
aI19
aa(lp61
F11.347771883010864
ag4
aI20
aa(lp62
F11.465717792510986
ag2
aI38
aa(lp63
F11.587540864944458
ag2
aI39
aa(lp64
F11.71929383277893
ag4
aI21
aa(lp65
F12.064619779586792
ag2
aI40
aa(lp66
F12.533989906311035
ag2
aI41
aa(lp67
F12.58432388305664
ag2
aI42
aa(lp68
F12.988897800445557
ag2
aI43
aa(lp69
F13.14753794670105
ag2
aI44
aa(lp70
F13.454253911972046
ag2
aI45
aa(lp71
F13.615856885910034
ag2
aI46
aa(lp72
F13.921101808547974
ag2
aI47
aa(lp73
F14.078136920928955
ag2
aI48
aa(lp74
F14.405450820922852
ag2
aI49
aa(lp75
F14.567497968673706
ag2
aI50
aa(lp76
F15.07620882987976
ag2
aI51
aa(lp77
F15.442591905593872
ag2
aI52
aa(lp78
F15.596894979476929
ag2
aI53
aa(lp79
F15.944986820220947
ag2
aI54
aa(lp80
F16.091386795043945
ag2
aI55
aa(lp81
F16.40587282180786
ag2
aI56
aa(lp82
F16.549954891204834
ag2
aI57
aa(lp83
F16.869759798049927
ag2
aI58
aa(lp84
F17.027795791625977
ag2
aI59
aa(lp85
F17.324726819992065
ag2
aI60
aa(lp86
F17.524664878845215
ag2
aI61
aa(lp87
F17.552060842514038
ag4
aI22
aa(lp88
F17.755703926086426
ag4
aI23
aa(lp89
F17.99278998374939
ag2
aI62
aa(lp90
F18.123600959777832
ag4
aI24
aa(lp91
F18.231339931488037
ag4
aI25
aa(lp92
F18.39150094985962
ag2
aI63
aa(lp93
F18.463669776916504
ag2
aI64
aa(lp94
F18.889172792434692
ag2
aI65
aa(lp95
F19.361055850982666
ag2
aI66
aa(lp96
F19.40090298652649
ag2
aI67
aa(lp97
F19.843520879745483
ag2
aI68
aa(lp98
F20.310139894485474
ag2
aI69
aa(lp99
F20.780791997909546
ag2
aI70
aa(lp100
F21.248180866241455
ag2
aI71
aa(lp101
F21.702746868133545
ag2
aI72
aa(lp102
F22.17401885986328
ag2
aI73
aa(lp103
F22.647650957107544
ag2
aI74
aa(lp104
F22.781462907791138
ag2
aI75
aa(lp105
F23.127344846725464
ag2
aI76
aa(lp106
F23.249794960021973
ag2
aI77
aa(lp107
F23.52536392211914
ag4
aI26
aa(lp108
F23.603859901428223
ag2
aI78
aa(lp109
F23.763534784317017
ag2
aI79
aa(lp110
F23.894393920898438
ag4
aI27
aa(lp111
F23.995510816574097
ag4
aI28
aa(lp112
F24.142054796218872
ag2
aI80
aa(lp113
F24.246885776519775
ag2
aI81
aa(lp114
F24.375755786895752
ag4
aI29
aa(lp115
F24.620033979415894
ag2
aI82
aa(lp116
F24.724883794784546
ag2
aI83
aa(lp117
F25.088087797164917
ag2
aI84
aa(lp118
F25.232362985610962
ag2
aI85
aa(lp119
F25.6080539226532
ag2
aI86
aa(lp120
F25.79593777656555
ag2
aI87
aa(lp121
F26.27164888381958
ag2
aI88
aa(lp122
F26.599055767059326
ag2
aI89
aa(lp123
F26.781725883483887
ag2
aI90
aa(lp124
F27.085944890975952
ag2
aI91
aa(lp125
F27.238807916641235
ag2
aI92
aa(lp126
F27.572016954421997
ag2
aI93
aa(lp127
F27.727128982543945
ag2
aI94
aa(lp128
F28.080493927001953
ag2
aI95
aa(lp129
F28.216010808944702
ag2
aI96
aa(lp130
F28.56316089630127
ag2
aI97
aa(lp131
F28.723695993423462
ag2
aI98
aa(lp132
F29.040520906448364
ag2
aI99
aa(lp133
F29.20376992225647
ag2
aI100
aa(lp134
F29.517754793167114
ag2
aI101
aa(lp135
F29.684165954589844
ag2
aI102
aa(lp136
F29.755483865737915
ag4
aI30
aa(lp137
F29.942539930343628
ag4
aI31
aa(lp138
F30.089226961135864
ag2
aI103
aa(lp139
F30.16794991493225
ag2
aI104
aa(lp140
F30.330482959747314
ag4
aI32
aa(lp141
F30.495224952697754
ag4
aI33
aa(lp142
F30.725198984146118
ag2
aI105
aa(lp143
F31.12560796737671
ag2
aI106
aa(lp144
F31.288420915603638
ag2
aI107
aa(lp145
F31.603047847747803
ag2
aI108
aa(lp146
F31.772114992141724
ag2
aI109
aa(lp147
F32.06498384475708
ag2
aI110
aa(lp148
F32.231735944747925
ag2
aI111
aa(lp149
F32.659321784973145
ag2
aI112
aa(lp150
F32.81496787071228
ag2
aI113
aa(lp151
F33.11286377906799
ag2
aI114
aa(lp152
F33.27188992500305
ag2
aI115
aa(lp153
F33.5785129070282
ag2
aI116
aa(lp154
F34.024385929107666
ag2
aI117
aa(lp155
F34.183889865875244
ag2
aI118
aa(lp156
F34.47175478935242
ag2
aI119
aa(lp157
F34.67572593688965
ag2
aI120
aa(lp158
F34.94044589996338
ag2
aI121
aa(lp159
F35.12819695472717
ag2
aI122
aa(lp160
F35.403382778167725
ag2
aI123
aa(lp161
F35.584104776382446
ag2
aI124
aa(lp162
F35.81155586242676
ag4
aI34
aa(lp163
F35.89675688743591
ag2
aI125
aa(lp164
F36.03936982154846
ag2
aI126
aa(lp165
F36.16764497756958
ag4
aI35
aa(lp166
F36.2637038230896
ag4
aI36
aa(lp167
F36.39782094955444
ag2
aI127
aa(lp168
F36.49351477622986
ag2
aI128
aa(lp169
F36.615545988082886
ag4
aI37
aa(lp170
F36.71533393859863
ag4
aI38
aa(lp171
F36.88954997062683
ag2
aI129
aa(lp172
F36.94469380378723
ag2
aI130
aa(lp173
F37.35162687301636
ag2
aI131
aa(lp174
F37.4870069026947
ag2
aI132
aa(lp175
F37.80908489227295
ag2
aI133
aa(lp176
F38.39376091957092
ag2
aI134
aa(lp177
F38.84607481956482
ag2
aI135
aa(lp178
F39.00773882865906
ag2
aI136
aa(lp179
F39.30780076980591
ag2
aI137
aa(lp180
F39.499351978302
ag2
aI138
aa(lp181
F39.79252481460571
ag2
aI139
aa(lp182
F39.96773982048035
ag2
aI140
aa(lp183
F40.274712800979614
ag2
aI141
aa(lp184
F40.447494983673096
ag2
aI142
aa(lp185
F40.737536907196045
ag2
aI143
aa(lp186
F40.90416097640991
ag2
aI144
aa(lp187
F41.21612477302551
ag2
aI145
aa(lp188
F41.38017797470093
ag2
aI146
aa(lp189
F41.74658679962158
ag2
aI147
aa(lp190
F41.90768599510193
ag2
aI148
aa(lp191
F42.02334785461426
ag4
aI39
aa(lp192
F42.16782093048096
ag4
aI40
aa(lp193
F42.287200927734375
ag2
aI149
aa(lp194
F42.39826583862305
ag2
aI150
aa(lp195
F42.539124965667725
ag4
aI41
aa(lp196
F42.6683828830719
ag4
aI42
aa(lp197
F42.80477499961853
ag2
aI151
aa(lp198
F42.8951199054718
ag2
aI152
aa(lp199
F43.27773880958557
ag2
aI153
aa(lp200
F43.436513900756836
ag2
aI154
aa(lp201
F43.76499080657959
ag2
aI155
aa(lp202
F43.931315898895264
ag2
aI156
aa(lp203
F44.22044396400452
ag2
aI157
aa(lp204
F44.37943196296692
ag2
aI158
aa(lp205
F44.67304491996765
ag2
aI159
aa(lp206
F44.8477988243103
ag2
aI160
aa(lp207
F45.1849148273468
ag2
aI161
aa(lp208
F45.33663988113403
ag2
aI162
aa(lp209
F45.65204477310181
ag2
aI163
aa(lp210
F45.82864594459534
ag2
aI164
aa(lp211
F46.22991585731506
ag2
aI165
aa(lp212
F46.36775183677673
ag2
aI166
aa(lp213
F46.71382284164429
ag2
aI167
aa(lp214
F46.85629391670227
ag2
aI168
aa(lp215
F47.160573959350586
ag2
aI169
aa(lp216
F47.32365679740906
ag2
aI170
aa(lp217
F47.82895493507385
ag2
aI171
aa(lp218
F48.05567288398743
ag4
aI43
aa(lp219
F48.08010387420654
ag2
aI172
aa(lp220
F48.28467297554016
ag2
aI173
aa(lp221
F48.50867486000061
ag4
aI44
aa(lp222
F48.542245864868164
ag2
aI174
aa(lp223
F48.736222982406616
ag2
aI175
aa(lp224
F48.770811796188354
ag4
aI45
aa(lp225
F48.95947480201721
ag4
aI46
aa(lp226
F48.9955677986145
ag2
aI176
aa(lp227
F49.190024852752686
ag2
aI177
aa(lp228
F49.4545419216156
ag2
aI178
aa(lp229
F49.63123297691345
ag2
aI179
aa(lp230
F49.90426683425903
ag2
aI180
aa(lp231
F50.083191871643066
ag2
aI181
aa(lp232
F50.393221855163574
ag2
aI182
aa(lp233
F50.55949091911316
ag2
aI183
aa(lp234
F50.840680837631226
ag2
aI184
aa(lp235
F51.0068838596344
ag2
aI185
aa(lp236
F51.29740881919861
ag2
aI186
aa(lp237
F51.45550584793091
ag2
aI187
aa(lp238
F51.753745794296265
ag2
aI188
aa(lp239
F51.91146779060364
ag2
aI189
aa(lp240
F52.217267990112305
ag2
aI190
aa(lp241
F52.35974097251892
ag2
aI191
aa(lp242
F52.67552089691162
ag2
aI192
aa(lp243
F53.12806987762451
ag2
aI193
aa(lp244
F53.287420988082886
ag2
aI194
aa(lp245
F53.577465772628784
ag2
aI195
aa(lp246
F53.7434937953949
ag2
aI196
aa(lp247
F54.02955889701843
ag2
aI197
aa(lp248
F54.20006990432739
ag2
aI198
aa(lp249
F54.24760389328003
ag4
aI47
aa(lp250
F54.433138847351074
ag4
aI48
aa(lp251
F54.48055386543274
ag2
aI199
aa(lp252
F54.65131092071533
ag2
aI200
aa(lp253
F54.711856842041016
ag4
aI49
aa(lp254
F54.8793568611145
ag4
aI50
aa(lp255
F54.93490695953369
ag2
aI201
aa(lp256
F55.108566999435425
ag2
aI202
aa(lp257
F55.17929482460022
ag4
aI51
aa(lp258
F55.4194598197937
ag2
aI203
aa(lp259
F55.55157494544983
ag2
aI204
aa(lp260
F55.87908887863159
ag2
aI205
aa(lp261
F56.03933596611023
ag2
aI206
aa(lp262
F56.33376693725586
ag2
aI207
aa(lp263
F56.49493384361267
ag2
aI208
aa(lp264
F56.786932945251465
ag2
aI209
aa(lp265
F56.95113778114319
ag2
aI210
aa(lp266
F57.460009813308716
ag2
aI211
aa(lp267
F57.82857298851013
ag2
aI212
aa(lp268
F57.991397857666016
ag2
aI213
aa(lp269
F58.28878378868103
ag2
aI214
aa(lp270
F58.44828677177429
ag2
aI215
aa(lp271
F58.769757986068726
ag2
aI216
aa(lp272
F58.89822196960449
ag2
aI217
aa(lp273
F59.25258493423462
ag2
aI218
aa(lp274
F59.351876974105835
ag2
aI219
aa(lp275
F59.73310995101929
ag2
aI220
aa(lp276
F59.884227991104126
ag2
aI221
aa(lp277
F60.31381392478943
ag2
aI222
aa(lp278
F60.45623183250427
ag2
aI223
aa(lp279
F60.53502798080444
ag4
aI52
aa(lp280
F60.6806378364563
ag4
aI53
aa(lp281
F60.76997184753418
ag2
aI224
aa(lp282
F60.90603590011597
ag2
aI225
aa(lp283
F60.998695850372314
ag4
aI54
aa(lp284
F61.13112497329712
ag4
aI55
aa(lp285
F61.22326683998108
ag2
aI226
aa(lp286
F61.35719299316406
ag2
aI227
aa(lp287
F61.68538689613342
ag2
aI228
aa(lp288
F61.84748077392578
ag2
aI229
aa(lp289
F62.156940937042236
ag2
aI230
aa(lp290
F62.33631086349487
ag2
aI231
aa(lp291
F62.60940480232239
ag2
aI232
aa(lp292
F62.7875189781189
ag2
aI233
aa(lp293
F63.062782764434814
ag2
aI234
aa(lp294
F63.23505187034607
ag2
aI235
aa(lp295
F63.50939178466797
ag2
aI236
aa(lp296
F63.69171190261841
ag2
aI237
aa(lp297
F63.96882390975952
ag2
aI238
aa(lp298
F64.13918089866638
ag2
aI239
aa(lp299
F64.4292938709259
ag2
aI240
aa(lp300
F64.61564993858337
ag2
aI241
aa(lp301
F64.88443779945374
ag2
aI242
aa(lp302
F65.0711829662323
ag2
aI243
aa(lp303
F65.34228777885437
ag2
aI244
aa(lp304
F65.51994681358337
ag2
aI245
aa(lp305
F65.80517482757568
ag2
aI246
aa(lp306
F65.97107291221619
ag2
aI247
aa(lp307
F66.26104879379272
ag2
aI248
aa(lp308
F66.43905782699585
ag2
aI249
aa(lp309
F66.48692488670349
ag4
aI56
aa(lp310
F66.66910481452942
ag4
aI57
aa(lp311
F66.73240280151367
ag2
aI250
aa(lp312
F66.89176082611084
ag2
aI251
aa(lp313
F66.95633888244629
ag4
aI58
aa(lp314
F67.11771297454834
ag4
aI59
aa(lp315
F67.18883776664734
ag2
aI252
aa(lp316
F67.34878396987915
ag2
aI253
aa(lp317
F67.48362278938293
ag4
aI60
aa(lp318
F67.57539677619934
ag4
aI61
aa(lp319
F67.716787815094
ag2
aI254
aa(lp320
F67.8086609840393
ag2
aI255
aa(lp321
F68.18092894554138
ag2
aI256
aa(lp322
F68.27375888824463
ag2
aI257
aa(lp323
F68.63815689086914
ag2
aI258
aa(lp324
F68.79493689537048
ag2
aI259
aa(lp325
F69.08618593215942
ag2
aI260
aa(lp326
F69.28360199928284
ag2
aI261
aa(lp327
F69.54374885559082
ag2
aI262
aa(lp328
F69.74005198478699
ag2
aI263
aa(lp329
F70.12726497650146
ag2
aI264
aa(lp330
F70.2790949344635
ag2
aI265
aa(lp331
F70.6258909702301
ag2
aI266
aa(lp332
F70.76796698570251
ag2
aI267
aa(lp333
F71.09230184555054
ag2
aI268
aa(lp334
F71.22245597839355
ag2
aI269
aa(lp335
F71.56361293792725
ag2
aI270
aa(lp336
F71.69638895988464
ag2
aI271
aa(lp337
F72.03449082374573
ag2
aI272
aa(lp338
F72.1876437664032
ag2
aI273
aa(lp339
F72.62208580970764
ag2
aI274
aa(lp340
F72.67781090736389
ag2
aI275
aa(lp341
F72.85963296890259
ag4
aI62
aa(lp342
F73.01132798194885
ag4
aI63
aa(lp343
F73.09220385551453
ag2
aI276
aa(lp344
F73.26596999168396
ag2
aI277
aa(lp345
F73.3233277797699
ag4
aI64
aa(lp346
F73.52489876747131
ag4
aI65
aa(lp347
F73.5716028213501
ag2
aI278
aa(lp348
F73.77721285820007
ag2
aI279
aa(lp349
F74.13212180137634
ag2
aI280
aa(lp350
F74.29214882850647
ag2
aI281
aa(lp351
F74.60037088394165
ag2
aI282
aa(lp352
F74.7797908782959
ag2
aI283
aa(lp353
F75.0673999786377
ag2
aI284
aa(lp354
F75.2437698841095
ag2
aI285
aa(lp355
F75.54478478431702
ag2
aI286
aa(lp356
F75.74511194229126
ag2
aI287
aa(lp357
F76.21919393539429
ag2
aI288
aa(lp358
F76.59582495689392
ag2
aI289
aa(lp359
F76.69990992546082
ag2
aI290
aa(lp360
F77.06439995765686
ag2
aI291
aa(lp361
F77.2425479888916
ag2
aI292
aa(lp362
F77.60859489440918
ag2
aI293
aa(lp363
F77.70316195487976
ag2
aI294
aa(lp364
F78.07588076591492
ag2
aI295
aa(lp365
F78.22305297851562
ag2
aI296
aa(lp366
F78.5358247756958
ag2
aI297
aa(lp367
F78.73361277580261
ag2
aI298
aa(lp368
F78.96873688697815
ag4
aI66
aa(lp369
F79.21289587020874
ag2
aI299
aa(lp370
F79.45427179336548
ag4
aI67
aa(lp371
F79.70490884780884
ag2
aI300
aa(lp372
F79.9437928199768
ag4
aI68
aa(lp373
F80.18387985229492
ag2
aI301
aa(lp374
F80.42449593544006
ag4
aI69
aa(lp375
F80.77325081825256
ag2
aI302
aa(lp376
F81.02782082557678
ag4
aI70
aa(lp377
F81.18332886695862
ag2
aI303
aa(lp378
F81.28485798835754
ag2
aI304
aa(lp379
F81.43935799598694
ag4
aI71
aa(lp380
F81.52355790138245
ag4
aI72
aa(lp381
F81.70789194107056
ag2
aI305
aa(lp382
F81.7548828125
ag2
aI306
aa(lp383
F81.9431688785553
ag4
aI73
aa(lp384
F82.00435280799866
ag4
aI74
aa(lp385
F82.17154097557068
ag2
aI307
aa(lp386
F82.24165296554565
ag2
aI308
aa(lp387
F82.40356683731079
ag4
aI75
aa(lp388
F82.47561192512512
ag4
aI76
aa(lp389
F82.64284896850586
ag2
aI309
aa(lp390
F82.78543090820312
ag2
aI310
aa(lp391
F82.87134885787964
ag4
aI77
aa(lp392
F83.15668988227844
ag2
aI311
aa(lp393
F83.25748991966248
ag2
aI312
aa(lp394
F83.62919592857361
ag2
aI313
aa(lp395
F83.79931688308716
ag2
aI314
aa(lp396
F84.09554481506348
ag2
aI315
aa(lp397
F84.26333498954773
ag2
aI316
aa(lp398
F84.55993294715881
ag2
aI317
aa(lp399
F84.73972177505493
ag2
aI318
aa(lp400
F85.02047896385193
ag2
aI319
aa(lp401
F85.19959878921509
ag2
aI320
aa(lp402
F85.4802258014679
ag2
aI321
aa(lp403
F85.66017293930054
ag2
aI322
aa(lp404
F85.93652892112732
ag2
aI323
aa(lp405
F86.13550686836243
ag2
aI324
aa(lp406
F86.41165900230408
ag2
aI325
aa(lp407
F86.60454082489014
ag2
aI326
aa(lp408
F86.88308191299438
ag2
aI327
aa(lp409
F87.06361293792725
ag2
aI328
aa(lp410
F87.34383177757263
ag2
aI329
aa(lp411
F87.52931880950928
ag2
aI330
aa(lp412
F87.8134138584137
ag2
aI331
aa(lp413
F87.99001884460449
ag2
aI332
aa(lp414
F88.05100679397583
ag4
aI78
aa(lp415
F88.21774482727051
ag4
aI79
aa(lp416
F88.28750276565552
ag2
aI333
aa(lp417
F88.4397029876709
ag2
aI334
aa(lp418
F88.57469582557678
ag4
aI80
aa(lp419
F88.68914699554443
ag4
aI81
aa(lp420
F88.81521081924438
ag2
aI335
aa(lp421
F88.94397377967834
ag2
aI336
aa(lp422
F89.04789400100708
ag4
aI82
aa(lp423
F89.2765839099884
ag2
aI337
aa(lp424
F89.43900799751282
ag2
aI338
aa(lp425
F89.94406700134277
ag2
aI339
aa(lp426
F90.31635999679565
ag2
aI340
aa(lp427
F90.42258477210999
ag2
aI341
aa(lp428
F90.7971408367157
ag2
aI342
aa(lp429
F90.96334481239319
ag2
aI343
aa(lp430
F91.26438689231873
ag2
aI344
aa(lp431
F91.45516300201416
ag2
aI345
aa(lp432
F91.72852778434753
ag2
aI346
aa(lp433
F91.92200183868408
ag2
aI347
aa(lp434
F92.21228289604187
ag2
aI348
aa(lp435
F92.38929200172424
ag2
aI349
aa(lp436
F92.67993998527527
ag2
aI350
aa(lp437
F92.87021994590759
ag2
aI351
aa(lp438
F93.15612983703613
ag2
aI352
aa(lp439
F93.33602595329285
ag2
aI353
aa(lp440
F93.61671876907349
ag2
aI354
aa(lp441
F93.80802083015442
ag2
aI355
aa(lp442
F94.08336091041565
ag2
aI356
aa(lp443
F94.28068995475769
ag2
aI357
aa(lp444
F94.31935691833496
ag4
aI83
aa(lp445
F94.51169991493225
ag4
aI84
aa(lp446
F94.67901277542114
ag2
aI358
aa(lp447
F94.74396586418152
ag2
aI359
aa(lp448
F94.93178176879883
ag4
aI85
aa(lp449
F95.0977828502655
ag4
aI86
aa(lp450
F95.1629569530487
ag2
aI360
aa(lp451
F95.33443784713745
ag2
aI361
aa(lp452
F95.64821982383728
ag2
aI362
aa(lp453
F95.81156492233276
ag2
aI363
aa(lp454
F96.11711978912354
ag2
aI364
aa(lp455
F96.30359196662903
ag2
aI365
aa(lp456
F96.58892393112183
ag2
aI366
aa(lp457
F96.7882719039917
ag2
aI367
aa(lp458
F97.14399790763855
ag2
aI368
aa(lp459
F97.61617088317871
ag2
aI369
aa(lp460
F98.08455681800842
ag2
aI370
aa(lp461
F98.54351782798767
ag2
aI371
aa(lp462
F100.03339195251465
ag2
aI372
aa.