(lp0
(lp1
F0.042823076248168945
aS'TCP'
p2
aI0
aa(lp3
F0.17488908767700195
aS'UDP'
p4
aI0
aa(lp5
F0.45247411727905273
ag2
aI1
aa(lp6
F0.5264341831207275
ag4
aI1
aa(lp7
F0.711543083190918
ag4
aI2
aa(lp8
F0.864448070526123
ag2
aI2
aa(lp9
F1.0950071811676025
ag4
aI3
aa(lp10
F1.2782390117645264
ag4
aI4
aa(lp11
F1.3446400165557861
ag2
aI3
aa(lp12
F1.5155019760131836
ag2
aI4
aa(lp13
F1.6153831481933594
ag4
aI5
aa(lp14
F1.7524700164794922
ag4
aI6
aa(lp15
F1.8926050662994385
ag2
aI5
aa(lp16
F1.9910740852355957
ag2
aI6
aa(lp17
F2.1240789890289307
ag4
aI7
aa(lp18
F2.2590010166168213
ag4
aI8
aa(lp19
F2.391752004623413
ag2
aI7
aa(lp20
F2.5477230548858643
ag2
aI8
aa(lp21
F2.6526479721069336
ag4
aI9
aa(lp22
F2.7727839946746826
ag4
aI10
aa(lp23
F2.918635129928589
ag2
aI9
aa(lp24
F2.9965291023254395
ag2
aI10
aa(lp25
F3.427597999572754
ag2
aI11
aa(lp26
F4.0174150466918945
ag2
aI12
aa(lp27
F4.511415958404541
ag2
aI13
aa(lp28
F4.688279151916504
ag2
aI14
aa(lp29
F4.984913110733032
ag2
aI15
aa(lp30
F5.14367413520813
ag2
aI16
aa(lp31
F5.181142091751099
ag2
aI17
aa(lp32
F5.481316089630127
ag2
aI18
aa(lp33
F5.643378973007202
ag2
aI19
aa(lp34
F5.708112001419067
ag2
aI20
aa(lp35
F5.985615015029907
ag2
aI21
aa(lp36
F6.143885135650635
ag2
aI22
aa(lp37
F6.452980041503906
ag2
aI23
aa(lp38
F6.628720045089722
ag2
aI24
aa(lp39
F6.92636513710022
ag2
aI25
aa(lp40
F7.100264072418213
ag2
aI26
aa(lp41
F7.165448188781738
ag2
aI27
aa(lp42
F7.5769641399383545
ag2
aI28
aa(lp43
F7.655480146408081
ag2
aI29
aa(lp44
F8.07083511352539
ag2
aI30
aa(lp45
F8.235812187194824
ag2
aI31
aa(lp46
F8.517359972000122
ag2
aI32
aa(lp47
F8.700023174285889
ag2
aI33
aa(lp48
F9.033287048339844
ag2
aI34
aa(lp49
F9.187486171722412
ag2
aI35
aa(lp50
F9.534010171890259
ag2
aI36
aa(lp51
F9.70430302619934
ag2
aI37
aa(lp52
F10.00957202911377
ag2
aI38
aa(lp53
F10.17195200920105
ag2
aI39
aa(lp54
F10.524104118347168
ag2
aI40
aa(lp55
F10.624703168869019
ag2
aI41
aa(lp56
F11.003144025802612
ag2
aI42
aa(lp57
F11.131016969680786
ag2
aI43
aa(lp58
F11.18851900100708
ag2
aI44
aa(lp59
F11.507609128952026
ag2
aI45
aa(lp60
F11.664570093154907
ag2
aI46
aa(lp61
F12.112874031066895
ag2
aI47
aa(lp62
F12.175194025039673
ag2
aI48
aa(lp63
F12.598175048828125
ag2
aI49
aa(lp64
F12.650876998901367
ag2
aI50
aa(lp65
F13.073645114898682
ag2
aI51
aa(lp66
F13.449077129364014
ag4
aI11
aa(lp67
F13.674934148788452
ag2
aI52
aa(lp68
F13.804217100143433
ag2
aI53
aa(lp69
F13.91179609298706
ag4
aI12
aa(lp70
F14.035444021224976
ag4
aI13
aa(lp71
F14.18478012084961
ag4
aI14
aa(lp72
F14.272063970565796
ag2
aI54
aa(lp73
F14.420222043991089
ag4
aI15
aa(lp74
F14.592838048934937
ag4
aI16
aa(lp75
F14.656373977661133
ag2
aI55
aa(lp76
F14.825744152069092
ag2
aI56
aa(lp77
F14.983846187591553
ag2
aI57
aa(lp78
F15.055830955505371
ag4
aI17
aa(lp79
F15.209740161895752
ag4
aI18
aa(lp80
F15.28261399269104
ag2
aI58
aa(lp81
F15.448788166046143
ag2
aI59
aa(lp82
F15.811763048171997
ag2
aI60
aa(lp83
F15.919475078582764
ag2
aI61
aa(lp84
F16.274317979812622
ag2
aI62
aa(lp85
F16.409698009490967
ag2
aI63
aa(lp86
F16.735821962356567
ag2
aI64
aa(lp87
F17.224678993225098
ag2
aI65
aa(lp88
F17.384305000305176
ag2
aI66
aa(lp89
F17.734443187713623
ag2
aI67
aa(lp90
F17.90872097015381
ag2
aI68
aa(lp91
F18.386728048324585
ag2
aI69
aa(lp92
F18.498600959777832
ag2
aI70
aa(lp93
F18.86727213859558
ag2
aI71
aa(lp94
F18.995893001556396
ag2
aI72
aa(lp95
F19.27620005607605
ag2
aI73
aa(lp96
F19.344704151153564
ag2
aI74
aa(lp97
F19.480363130569458
ag2
aI75
aa(lp98
F19.76650905609131
ag2
aI76
aa(lp99
F19.90001606941223
ag2
aI77
aa(lp100
F20.247488021850586
ag2
aI78
aa(lp101
F20.41282296180725
ag2
aI79
aa(lp102
F20.73223304748535
ag2
aI80
aa(lp103
F20.892572164535522
ag2
aI81
aa(lp104
F21.209927082061768
ag2
aI82
aa(lp105
F21.373049020767212
ag2
aI83
aa(lp106
F21.67600703239441
ag2
aI84
aa(lp107
F21.832535982131958
ag2
aI85
aa(lp108
F22.142505168914795
ag2
aI86
aa(lp109
F22.28857111930847
ag2
aI87
aa(lp110
F22.606155157089233
ag2
aI88
aa(lp111
F22.8181631565094
ag2
aI89
aa(lp112
F23.282220125198364
ag2
aI90
aa(lp113
F23.66235899925232
ag2
aI91
aa(lp114
F23.74384117126465
ag2
aI92
aa(lp115
F24.13448715209961
ag2
aI93
aa(lp116
F24.262109994888306
ag2
aI94
aa(lp117
F24.595834016799927
ag2
aI95
aa(lp118
F24.75158715248108
ag2
aI96
aa(lp119
F25.053073167800903
ag2
aI97
aa(lp120
F25.21263098716736
ag2
aI98
aa(lp121
F25.46322202682495
ag4
aI19
aa(lp122
F25.632339000701904
ag2
aI99
aa(lp123
F25.69342017173767
ag2
aI100
aa(lp124
F25.871340036392212
ag4
aI20
aa(lp125
F26.027618169784546
ag4
aI21
aa(lp126
F26.100263118743896
ag2
aI101
aa(lp127
F26.315080165863037
ag2
aI102
aa(lp128
F26.559473037719727
ag4
aI22
aa(lp129
F26.79346513748169
ag2
aI103
aa(lp130
F26.92678713798523
ag4
aI23
aa(lp131
F27.023449182510376
ag4
aI24
aa(lp132
F27.176475048065186
ag2
aI104
aa(lp133
F27.328765153884888
ag2
aI105
aa(lp134
F27.412732124328613
ag4
aI25
aa(lp135
F27.600615978240967
ag4
aI26
aa(lp136
F27.648322105407715
ag2
aI106
aa(lp137
F27.823991060256958
ag2
aI107
aa(lp138
F27.87020707130432
ag2
aI108
aa(lp139
F28.146355152130127
ag2
aI109
aa(lp140
F28.28545904159546
ag2
aI110
aa(lp141
F28.324676036834717
ag2
aI111
aa(lp142
F28.62735414505005
ag2
aI112
aa(lp143
F28.7932710647583
ag2
aI113
aa(lp144
F29.111008167266846
ag2
aI114
aa(lp145
F29.27375602722168
ag2
aI115
aa(lp146
F29.59017515182495
ag2
aI116
aa(lp147
F29.754961013793945
ag2
aI117
aa(lp148
F30.08370304107666
ag2
aI118
aa(lp149
F30.230614185333252
ag2
aI119
aa(lp150
F30.559697151184082
ag2
aI120
aa(lp151
F30.728259086608887
ag2
aI121
aa(lp152
F31.23817205429077
ag2
aI122
aa(lp153
F31.28097915649414
ag2
aI123
aa(lp154
F31.59269905090332
ag2
aI124
aa(lp155
F31.700266122817993
ag2
aI125
aa(lp156
F31.749112129211426
ag2
aI126
aa(lp157
F32.125301122665405
ag2
aI127
aa(lp158
F32.17968010902405
ag2
aI128
aa(lp159
F32.661251068115234
ag2
aI129
aa(lp160
F33.13426613807678
ag2
aI130
aa(lp161
F33.307979106903076
ag2
aI131
aa(lp162
F33.5459930896759
ag2
aI132
aa(lp163
F33.594707012176514
ag2
aI133
aa(lp164
F34.01877212524414
ag2
aI134
aa(lp165
F34.496679067611694
ag2
aI135
aa(lp166
F34.631935119628906
ag2
aI136
aa(lp167
F34.96070098876953
ag2
aI137
aa(lp168
F35.14007496833801
ag2
aI138
aa(lp169
F35.34144401550293
ag2
aI139
aa(lp170
F35.43390512466431
ag2
aI140
aa(lp171
F35.61945605278015
ag2
aI141
aa(lp172
F35.828317165374756
ag2
aI142
aa(lp173
F35.972023010253906
ag2
aI143
aa(lp174
F36.192898988723755
ag2
aI144
aa(lp175
F36.601622104644775
ag2
aI145
aa(lp176
F36.76008105278015
ag2
aI146
aa(lp177
F36.9718279838562
ag2
aI147
aa(lp178
F37.284422159194946
ag2
aI148
aa(lp179
F37.428287982940674
ag2
aI149
aa(lp180
F37.75996804237366
ag2
aI150
aa(lp181
F37.89445400238037
ag2
aI151
aa(lp182
F38.00826907157898
ag4
aI27
aa(lp183
F38.148921966552734
ag4
aI28
aa(lp184
F38.34414601325989
ag2
aI152
aa(lp185
F38.41598606109619
ag4
aI29
aa(lp186
F38.629876136779785
ag4
aI30
aa(lp187
F38.681326150894165
ag4
aI31
aa(lp188
F38.88369703292847
ag2
aI153
aa(lp189
F39.03300404548645
ag2
aI154
aa(lp190
F39.15173816680908
ag4
aI32
aa(lp191
F39.26415205001831
ag4
aI33
aa(lp192
F39.37601613998413
ag2
aI155
aa(lp193
F39.49485516548157
ag2
aI156
aa(lp194
F39.60623097419739
ag4
aI34
aa(lp195
F39.723647117614746
ag4
aI35
aa(lp196
F39.84031295776367
ag2
aI157
aa(lp197
F39.96382403373718
ag2
aI158
aa(lp198
F40.248842000961304
ag2
aI159
aa(lp199
F40.29668116569519
ag2
aI160
aa(lp200
F40.724778175354004
ag2
aI161
aa(lp201
F40.85562705993652
ag2
aI162
aa(lp202
F40.92005014419556
ag2
aI163
aa(lp203
F41.33591914176941
ag2
aI164
aa(lp204
F41.416956186294556
ag2
aI165
aa(lp205
F41.788249015808105
ag2
aI166
aa(lp206
F41.943933963775635
ag2
aI167
aa(lp207
F42.4526801109314
ag2
aI168
aa(lp208
F42.92125606536865
ag2
aI169
aa(lp209
F43.20757007598877
ag2
aI170
aa(lp210
F43.40248513221741
ag2
aI171
aa(lp211
F43.68205904960632
ag2
aI172
aa(lp212
F43.86098599433899
ag2
aI173
aa(lp213
F44.16810607910156
ag2
aI174
aa(lp214
F44.322270154953
ag2
aI175
aa(lp215
F44.64919304847717
ag2
aI176
aa(lp216
F44.78409695625305
ag2
aI177
aa(lp217
F45.134050130844116
ag2
aI178
aa(lp218
F45.54791498184204
ag2
aI179
aa(lp219
F45.70478105545044
ag2
aI180
aa(lp220
F45.911643981933594
ag2
aI181
aa(lp221
F46.15363001823425
ag2
aI182
aa(lp222
F46.626708030700684
ag2
aI183
aa(lp223
F46.66173505783081
ag2
aI184
aa(lp224
F47.089709997177124
ag2
aI185
aa(lp225
F47.22956609725952
ag2
aI186
aa(lp226
F47.572211027145386
ag2
aI187
aa(lp227
F47.73165202140808
ag2
aI188
aa(lp228
F47.8050971031189
ag2
aI189
aa(lp229
F48.19733119010925
ag2
aI190
aa(lp230
F48.679490089416504
ag2
aI191
aa(lp231
F48.80634307861328
ag2
aI192
aa(lp232
F49.14736318588257
ag2
aI193
aa(lp233
F49.3048050403595
ag2
aI194
aa(lp234
F49.60558199882507
ag2
aI195
aa(lp235
F49.7775821685791
ag2
aI196
aa(lp236
F50.07458996772766
ag2
aI197
aa(lp237
F50.25279998779297
ag2
aI198
aa(lp238
F50.34425711631775
ag4
aI36
aa(lp239
F50.502724170684814
ag4
aI37
aa(lp240
F50.659985065460205
ag2
aI199
aa(lp241
F50.728842973709106
ag2
aI200
aa(lp242
F50.772067070007324
ag4
aI38
aa(lp243
F50.8898401260376
ag4
aI39
aa(lp244
F50.97633600234985
ag4
aI40
aa(lp245
F51.1329710483551
ag2
aI201
aa(lp246
F51.21713995933533
ag2
aI202
aa(lp247
F51.3646080493927
ag4
aI41
aa(lp248
F51.50560903549194
ag4
aI42
aa(lp249
F51.676839113235474
ag2
aI203
aa(lp250
F51.72871017456055
ag2
aI204
aa(lp251
F51.77526903152466
ag4
aI43
aa(lp252
F51.90062499046326
ag4
aI44
aa(lp253
F51.96022295951843
ag4
aI45
aa(lp254
F52.12865900993347
ag2
aI205
aa(lp255
F52.27297902107239
ag2
aI206
aa(lp256
F52.36506414413452
ag4
aI46
aa(lp257
F52.5195209980011
ag4
aI47
aa(lp258
F52.605993032455444
ag2
aI207
aa(lp259
F52.74860906600952
ag2
aI208
aa(lp260
F53.107771158218384
ag2
aI209
aa(lp261
F53.14624309539795
ag2
aI210
aa(lp262
F53.28109097480774
ag2
aI211
aa(lp263
F53.589094161987305
ag2
aI212
aa(lp264
F53.75843405723572
ag2
aI213
aa(lp265
F54.055947065353394
ag2
aI214
aa(lp266
F54.2226140499115
ag2
aI215
aa(lp267
F54.54254412651062
ag2
aI216
aa(lp268
F54.6823251247406
ag2
aI217
aa(lp269
F55.02336001396179
ag2
aI218
aa(lp270
F55.1692910194397
ag2
aI219
aa(lp271
F55.508782148361206
ag2
aI220
aa(lp272
F55.631728172302246
ag2
aI221
aa(lp273
F55.999879121780396
ag2
aI222
aa(lp274
F56.11506199836731
ag2
aI223
aa(lp275
F56.465397119522095
ag2
aI224
aa(lp276
F56.635353088378906
ag2
aI225
aa(lp277
F56.97307896614075
ag2
aI226
aa(lp278
F57.16337013244629
ag2
aI227
aa(lp279
F57.47641110420227
ag2
aI228
aa(lp280
F57.66827201843262
ag2
aI229
aa(lp281
F57.99794006347656
ag2
aI230
aa(lp282
F58.154051065444946
ag2
aI231
aa(lp283
F58.48781609535217
ag2
aI232
aa(lp284
F58.65676498413086
ag2
aI233
aa(lp285
F58.960932970047
ag2
aI234
aa(lp286
F59.16209411621094
ag2
aI235
aa(lp287
F59.43762707710266
ag2
aI236
aa(lp288
F59.62823009490967
ag2
aI237
aa(lp289
F59.94487810134888
ag2
aI238
aa(lp290
F60.116573095321655
ag2
aI239
aa(lp291
F60.42926597595215
ag2
aI240
aa(lp292
F60.61260795593262
ag2
aI241
aa(lp293
F60.97346210479736
ag2
aI242
aa(lp294
F61.1528000831604
ag2
aI243
aa(lp295
F61.47833704948425
ag2
aI244
aa(lp296
F61.65115308761597
ag2
aI245
aa(lp297
F61.97322106361389
ag2
aI246
aa(lp298
F62.14207315444946
ag2
aI247
aa(lp299
F62.45072913169861
ag2
aI248
aa(lp300
F62.61063098907471
ag2
aI249
aa(lp301
F62.65076017379761
ag2
aI250
aa(lp302
F62.71986103057861
ag4
aI48
aa(lp303
F62.8482129573822
ag4
aI49
aa(lp304
F62.883995056152344
ag4
aI50
aa(lp305
F63.03968906402588
ag2
aI251
aa(lp306
F63.095191955566406
ag2
aI252
aa(lp307
F63.148781061172485
ag2
aI253
aa(lp308
F63.2640380859375
ag4
aI51
aa(lp309
F63.35749816894531
ag4
aI52
aa(lp310
F63.492587089538574
ag2
aI254
aa(lp311
F63.61277198791504
ag2
aI255
aa(lp312
F63.72982406616211
ag4
aI53
aa(lp313
F63.85859799385071
ag4
aI54
aa(lp314
F63.97869801521301
ag2
aI256
aa(lp315
F64.1166980266571
ag2
aI257
aa(lp316
F64.22177314758301
ag4
aI55
aa(lp317
F64.37308597564697
ag4
aI56
aa(lp318
F64.46277809143066
ag2
aI258
aa(lp319
F64.61216711997986
ag2
aI259
aa(lp320
F64.69696807861328
ag4
aI57
aa(lp321
F64.94473314285278
ag2
aI260
aa(lp322
F65.10103011131287
ag2
aI261
aa(lp323
F65.56365704536438
ag2
aI262
aa(lp324
F65.63776707649231
ag2
aI263
aa(lp325
F66.04186010360718
ag2
aI264
aa(lp326
F66.24900007247925
ag2
aI265
aa(lp327
F66.65355396270752
ag2
aI266
aa(lp328
F66.73073410987854
ag2
aI267
aa(lp329
F67.13728404045105
ag2
aI268
aa(lp330
F67.2243640422821
ag2
aI269
aa(lp331
F67.62067103385925
ag2
aI270
aa(lp332
F67.80011105537415
ag2
aI271
aa(lp333
F68.13211107254028
ag2
aI272
aa(lp334
F68.30993008613586
ag2
aI273
aa(lp335
F68.64410209655762
ag2
aI274
aa(lp336
F68.80088996887207
ag2
aI275
aa(lp337
F69.15610218048096
ag2
aI276
aa(lp338
F69.32080817222595
ag2
aI277
aa(lp339
F69.69012999534607
ag2
aI278
aa(lp340
F69.87760615348816
ag2
aI279
aa(lp341
F70.20185804367065
ag2
aI280
aa(lp342
F70.41216897964478
ag2
aI281
aa(lp343
F70.77786612510681
ag2
aI282
aa(lp344
F70.92832207679749
ag2
aI283
aa(lp345
F71.30862998962402
ag2
aI284
aa(lp346
F71.42750906944275
ag2
aI285
aa(lp347
F71.83426713943481
ag2
aI286
aa(lp348
F72.02953600883484
ag2
aI287
aa(lp349
F72.38807511329651
ag2
aI288
aa(lp350
F72.5482280254364
ag2
aI289
aa(lp351
F72.89733004570007
ag2
aI290
aa(lp352
F73.09660410881042
ag2
aI291
aa(lp353
F73.39574813842773
ag2
aI292
aa(lp354
F73.58525896072388
ag2
aI293
aa(lp355
F73.91230797767639
ag2
aI294
aa(lp356
F74.0894341468811
ag2
aI295
aa(lp357
F74.41186904907227
ag2
aI296
aa(lp358
F74.57037711143494
ag2
aI297
aa(lp359
F74.93295812606812
ag2
aI298
aa(lp360
F75.04675316810608
ag2
aI299
aa(lp361
F75.18542408943176
ag4
aI58
aa(lp362
F75.30515503883362
ag4
aI59
aa(lp363
F75.42291712760925
ag2
aI300
aa(lp364
F75.55636310577393
ag2
aI301
aa(lp365
F75.69165802001953
ag4
aI60
aa(lp366
F75.81037306785583
ag4
aI61
aa(lp367
F75.95536804199219
ag2
aI302
aa(lp368
F76.05468797683716
ag2
aI303
aa(lp369
F76.20038104057312
ag4
aI62
aa(lp370
F76.31342697143555
ag4
aI63
aa(lp371
F76.45102310180664
ag2
aI304
aa(lp372
F76.56143403053284
ag2
aI305
aa(lp373
F76.68597197532654
ag4
aI64
aa(lp374
F76.80516600608826
ag4
aI65
aa(lp375
F77.02892708778381
ag2
aI306
aa(lp376
F77.07557010650635
ag2
aI307
aa(lp377
F77.53694295883179
ag2
aI308
aa(lp378
F77.69693112373352
ag2
aI309
aa(lp379
F78.03324913978577
ag2
aI310
aa(lp380
F78.18813014030457
ag2
aI311
aa(lp381
F78.54074215888977
ag2
aI312
aa(lp382
F78.7068920135498
ag2
aI313
aa(lp383
F79.09160995483398
ag2
aI314
aa(lp384
F79.24072098731995
ag2
aI315
aa(lp385
F79.57505297660828
ag2
aI316
aa(lp386
F79.7460470199585
ag2
aI317
aa(lp387
F80.06327199935913
ag2
aI318
aa(lp388
F80.24437808990479
ag2
aI319
aa(lp389
F80.54080700874329
ag2
aI320
aa(lp390
F80.73028516769409
ag2
aI321
aa(lp391
F81.04753518104553
ag2
aI322
aa(lp392
F81.21325898170471
ag2
aI323
aa(lp393
F81.53677797317505
ag2
aI324
aa(lp394
F81.67704916000366
ag2
aI325
aa(lp395
F82.03453397750854
ag2
aI326
aa(lp396
F82.19323801994324
ag2
aI327
aa(lp397
F82.5371081829071
ag2
aI328
aa(lp398
F82.68945002555847
ag2
aI329
aa(lp399
F83.04117703437805
ag2
aI330
aa(lp400
F83.19817614555359
ag2
aI331
aa(lp401
F83.56557011604309
ag2
aI332
aa(lp402
F83.73281812667847
ag2
aI333
aa(lp403
F84.06920099258423
ag2
aI334
aa(lp404
F84.21979904174805
ag2
aI335
aa(lp405
F84.67006206512451
ag2
aI336
aa(lp406
F84.72412395477295
ag2
aI337
aa(lp407
F85.17750215530396
ag2
aI338
aa(lp408
F85.34157204627991
ag2
aI339
aa(lp409
F85.79069399833679
ag2
aI340
aa(lp410
F86.25880408287048
ag2
aI341
aa(lp411
F86.41703701019287
ag2
aI342
aa(lp412
F86.7470440864563
ag2
aI343
aa(lp413
F86.90437507629395
ag2
aI344
aa(lp414
F87.24815797805786
ag2
aI345
aa(lp415
F87.40383911132812
ag2
aI346
aa(lp416
F87.4758369922638
ag4
aI66
aa(lp417
F87.67933917045593
ag4
aI67
aa(lp418
F87.83015203475952
ag2
aI347
aa(lp419
F87.92299604415894
ag2
aI348
aa(lp420
F88.0904471874237
ag4
aI68
aa(lp421
F88.22382807731628
ag4
aI69
aa(lp422
F88.33466005325317
ag2
aI349
aa(lp423
F88.45357418060303
ag2
aI350
aa(lp424
F88.58083701133728
ag4
aI70
aa(lp425
F88.67684817314148
ag4
aI71
aa(lp426
F88.8309440612793
ag2
aI351
aa(lp427
F88.98390913009644
ag2
aI352
aa(lp428
F89.0813980102539
ag4
aI72
aa(lp429
F89.2795090675354
ag4
aI73
aa(lp430
F89.43526196479797
ag2
aI353
aa(lp431
F89.53721404075623
ag2
aI354
aa(lp432
F89.9760160446167
ag2
aI355
aa(lp433
F90.09428811073303
ag2
aI356
aa(lp434
F90.48123598098755
ag2
aI357
aa(lp435
F90.57030200958252
ag2
aI358
aa(lp436
F91.03287100791931
ag2
aI359
aa(lp437
F91.20446395874023
ag2
aI360
aa(lp438
F91.6407961845398
ag2
aI361
aa(lp439
F91.79673218727112
ag2
aI362
aa(lp440
F92.15681409835815
ag2
aI363
aa(lp441
F92.32297801971436
ag2
aI364
aa(lp442
F92.68100714683533
ag2
aI365
aa(lp443
F92.84790897369385
ag2
aI366
aa(lp444
F93.208811044693
ag2
aI367
aa(lp445
F93.3689591884613
ag2
aI368
aa(lp446
F93.67807507514954
ag2
aI369
aa(lp447
F93.83954000473022
ag2
aI370
aa(lp448
F94.13853716850281
ag2
aI371
aa(lp449
F94.29267501831055
ag2
aI372
aa(lp450
F94.60694217681885
ag2
aI373
aa(lp451
F94.76428818702698
ag2
aI374
aa(lp452
F95.08101511001587
ag2
aI375
aa(lp453
F95.22869300842285
ag2
aI376
aa(lp454
F95.724112033844
ag2
aI377
aa(lp455
F95.78536796569824
ag2
aI378
aa(lp456
F96.19879817962646
ag2
aI379
aa(lp457
F96.3680591583252
ag2
aI380
aa(lp458
F96.69743514060974
ag2
aI381
aa(lp459
F96.86404705047607
ag2
aI382
aa(lp460
F97.16521096229553
ag2
aI383
aa(lp461
F97.32141399383545
ag2
aI384
aa(lp462
F97.63324999809265
ag2
aI385
aa(lp463
F97.77665305137634
ag2
aI386
aa(lp464
F98.12144899368286
ag2
aI387
aa(lp465
F98.29695701599121
ag2
aI388
aa(lp466
F98.63057804107666
ag2
aI389
aa(lp467
F98.78889107704163
ag2
aI390
aa(lp468
F99.09424495697021
ag2
aI391
aa(lp469
F99.24814105033875
ag2
aI392
aa(lp470
F99.47870516777039
ag4
aI74
aa(lp471
F99.56299209594727
ag2
aI393
aa(lp472
F99.73170208930969
ag2
aI394
aa(lp473
F99.88942909240723
ag4
aI75
aa(lp474
F99.96202397346497
ag4
aI76
aa(lp475
F100.11664700508118
ag2
aI395
aa(lp476
F100.19993710517883
ag2
aI396
aa(lp477
F100.35177206993103
ag4
aI77
aa(lp478
F100.4242250919342
ag2
aI397
aa(lp479
F100.61217617988586
ag2
aI398
aa(lp480
F100.76324605941772
ag4
aI78
aa(lp481
F100.88556098937988
ag4
aI79
aa(lp482
F101.06186699867249
ag4
aI80
aa(lp483
F101.13394117355347
ag2
aI399
aa(lp484
F101.3255090713501
ag2
aI400
aa(lp485
F101.5580370426178
ag2
aI401
aa(lp486
F101.83346700668335
ag2
aI402
aa(lp487
F102.31933307647705
ag2
aI403
aa(lp488
F102.80457210540771
ag2
aI404
aa(lp489
F103.30582213401794
ag2
aI405
aa(lp490
F103.81628799438477
ag2
aI406
aa(lp491
F104.32122802734375
ag2
aI407
aa(lp492
F104.48170304298401
ag2
aI408
aa.