(lp0
(lp1
F0.000492095947265625
aS'TCP'
p2
aI0
aa(lp3
F0.06350207328796387
aS'UDP'
p4
aI0
aa(lp5
F0.3247199058532715
ag2
aI1
aa(lp6
F0.5670549869537354
ag4
aI1
aa(lp7
F0.8229470252990723
ag2
aI2
aa(lp8
F0.9354410171508789
ag4
aI2
aa(lp9
F1.152937889099121
ag4
aI3
aa(lp10
F0.0005099773406982422
ag2
aI3
aa(lp11
F0.0601809024810791
ag4
aI4
aa(lp12
F0.2831239700317383
ag2
aI4
aa(lp13
F0.424609899520874
ag2
aI5
aa(lp14
F0.5357279777526855
ag4
aI5
aa(lp15
F0.6879169940948486
ag4
aI6
aa(lp16
F0.8010458946228027
ag2
aI6
aa(lp17
F0.9514009952545166
ag2
aI7
aa(lp18
F1.0278499126434326
ag4
aI7
aa(lp19
F1.2178220748901367
ag4
aI8
aa(lp20
F1.2853140830993652
ag4
aI9
aa(lp21
F1.4840281009674072
ag2
aI8
aa(lp22
F1.6022419929504395
ag2
aI9
aa(lp23
F1.976027011871338
ag2
aI10
aa(lp24
F2.1400909423828125
ag2
aI11
aa(lp25
F2.358211040496826
ag2
aI12
aa(lp26
F2.82962703704834
ag2
aI13
aa(lp27
F2.976059913635254
ag2
aI14
aa(lp28
F3.331912040710449
ag2
aI15
aa(lp29
F3.483043909072876
ag2
aI16
aa(lp30
F3.790811061859131
ag2
aI17
aa(lp31
F3.9421660900115967
ag2
aI18
aa(lp32
F4.276105880737305
ag2
aI19
aa(lp33
F4.688724040985107
ag2
aI20
aa(lp34
F4.828970909118652
ag2
aI21
aa(lp35
F4.9321489334106445
ag2
aI22
aa(lp36
F5.130395889282227
ag2
aI23
aa(lp37
F5.311630964279175
ag2
aI24
aa(lp38
F5.387094974517822
ag2
aI25
aa(lp39
F5.598104953765869
ag2
aI26
aa(lp40
F5.7765889167785645
ag2
aI27
aa(lp41
F5.855168104171753
ag2
aI28
aa(lp42
F6.055363893508911
ag2
aI29
aa(lp43
F6.231995105743408
ag2
aI30
aa(lp44
F6.526489019393921
ag2
aI31
aa(lp45
F6.688240051269531
ag2
aI32
aa(lp46
F6.759259939193726
ag4
aI10
aa(lp47
F6.867795944213867
ag2
aI33
aa(lp48
F6.938117027282715
ag4
aI11
aa(lp49
F7.095679998397827
ag4
aI12
aa(lp50
F7.223100900650024
ag2
aI34
aa(lp51
F7.323518991470337
ag2
aI35
aa(lp52
F7.456515073776245
ag4
aI13
aa(lp53
F7.554794073104858
ag4
aI14
aa(lp54
F7.690690040588379
ag2
aI36
aa(lp55
F7.787029981613159
ag2
aI37
aa(lp56
F8.165855884552002
ag2
aI38
aa(lp57
F8.331608057022095
ag2
aI39
aa(lp58
F8.845179080963135
ag2
aI40
aa(lp59
F8.88817310333252
ag2
aI41
aa(lp60
F9.311867952346802
ag2
aI42
aa(lp61
F9.436594009399414
ag2
aI43
aa(lp62
F9.775832891464233
ag2
aI44
aa(lp63
F9.932403087615967
ag2
aI45
aa(lp64
F10.247448921203613
ag2
aI46
aa(lp65
F10.438200950622559
ag2
aI47
aa(lp66
F10.679301023483276
ag2
aI48
aa(lp67
F10.831309080123901
ag2
aI49
aa(lp68
F11.041415929794312
ag2
aI50
aa(lp69
F11.137814998626709
ag2
aI51
aa(lp70
F11.326874017715454
ag2
aI52
aa(lp71
F11.50946593284607
ag2
aI53
aa(lp72
F11.65344500541687
ag2
aI54
aa(lp73
F11.815382957458496
ag2
aI55
aa(lp74
F12.126121997833252
ag2
aI56
aa(lp75
F12.30345106124878
ag2
aI57
aa(lp76
F12.596194982528687
ag2
aI58
aa(lp77
F12.754733085632324
ag2
aI59
aa(lp78
F12.816406965255737
ag4
aI15
aa(lp79
F13.024848937988281
ag4
aI16
aa(lp80
F13.092663049697876
ag2
aI60
aa(lp81
F13.26717209815979
ag2
aI61
aa(lp82
F13.39714002609253
ag4
aI17
aa(lp83
F13.525453090667725
ag4
aI18
aa(lp84
F13.648804903030396
ag2
aI62
aa(lp85
F13.799318075180054
ag2
aI63
aa(lp86
F14.1284499168396
ag2
aI64
aa(lp87
F14.303436040878296
ag2
aI65
aa(lp88
F14.582360982894897
ag2
aI66
aa(lp89
F14.769033908843994
ag2
aI67
aa(lp90
F15.090893030166626
ag2
aI68
aa(lp91
F15.24793291091919
ag2
aI69
aa(lp92
F15.574111938476562
ag2
aI70
aa(lp93
F15.755131959915161
ag2
aI71
aa(lp94
F16.08497405052185
ag2
aI72
aa(lp95
F16.27054190635681
ag2
aI73
aa(lp96
F16.57957696914673
ag2
aI74
aa(lp97
F16.73897910118103
ag2
aI75
aa(lp98
F17.054524898529053
ag2
aI76
aa(lp99
F17.22260808944702
ag2
aI77
aa(lp100
F17.52574110031128
ag2
aI78
aa(lp101
F17.650213956832886
ag2
aI79
aa(lp102
F18.00618290901184
ag2
aI80
aa(lp103
F18.126728057861328
ag2
aI81
aa(lp104
F18.48264503479004
ag2
aI82
aa(lp105
F18.64737606048584
ag2
aI83
aa(lp106
F18.703459978103638
ag2
aI84
aa(lp107
F18.907259941101074
ag4
aI19
aa(lp108
F19.064095973968506
ag2
aI85
aa(lp109
F19.12754988670349
ag4
aI20
aa(lp110
F19.33647108078003
ag4
aI21
aa(lp111
F19.391555070877075
ag4
aI22
aa(lp112
F19.593312978744507
ag2
aI86
aa(lp113
F19.715850114822388
ag2
aI87
aa(lp114
F19.91977596282959
ag2
aI88
aa(lp115
F20.147281885147095
ag2
aI89
aa(lp116
F20.192060947418213
ag2
aI90
aa(lp117
F20.618673086166382
ag2
aI91
aa(lp118
F20.782910108566284
ag2
aI92
aa(lp119
F20.999020099639893
ag2
aI93
aa(lp120
F21.383438110351562
ag2
aI94
aa(lp121
F21.49207592010498
ag2
aI95
aa(lp122
F21.875560998916626
ag2
aI96
aa(lp123
F21.967185974121094
ag2
aI97
aa(lp124
F22.125646114349365
ag2
aI98
aa(lp125
F22.494457960128784
ag2
aI99
aa(lp126
F22.604399919509888
ag2
aI100
aa(lp127
F22.966718912124634
ag2
aI101
aa(lp128
F23.136730909347534
ag2
aI102
aa(lp129
F23.380779027938843
ag2
aI103
aa(lp130
F23.422718048095703
ag2
aI104
aa(lp131
F23.984639883041382
ag2
aI105
aa(lp132
F24.136070013046265
ag2
aI106
aa(lp133
F24.410106897354126
ag2
aI107
aa(lp134
F24.452348947525024
ag2
aI108
aa(lp135
F24.69230604171753
ag2
aI109
aa(lp136
F25.097508907318115
ag2
aI110
aa(lp137
F25.17696499824524
ag4
aI23
aa(lp138
F25.336080074310303
ag4
aI24
aa(lp139
F25.5327889919281
ag2
aI111
aa(lp140
F25.800004959106445
ag4
aI25
aa(lp141
F25.947436094284058
ag4
aI26
aa(lp142
F26.051279067993164
ag2
aI112
aa(lp143
F26.208287954330444
ag2
aI113
aa(lp144
F26.543318033218384
ag2
aI114
aa(lp145
F26.711021900177002
ag2
aI115
aa(lp146
F26.926125049591064
ag2
aI116
aa(lp147
F27.02958393096924
ag2
aI117
aa(lp148
F27.40633797645569
ag2
aI118
aa(lp149
F27.605417013168335
ag2
aI119
aa(lp150
F27.882905960083008
ag2
aI120
aa(lp151
F28.096324920654297
ag2
aI121
aa(lp152
F28.279109001159668
ag2
aI122
aa(lp153
F28.378135919570923
ag2
aI123
aa(lp154
F28.60378909111023
ag2
aI124
aa(lp155
F28.739427089691162
ag2
aI125
aa(lp156
F29.077931880950928
ag2
aI126
aa(lp157
F29.20168399810791
ag2
aI127
aa(lp158
F29.595383882522583
ag2
aI128
aa(lp159
F29.759392976760864
ag2
aI129
aa(lp160
F30.091482877731323
ag2
aI130
aa(lp161
F30.255501985549927
ag2
aI131
aa(lp162
F30.334212064743042
ag2
aI132
aa(lp163
F30.71248698234558
ag2
aI133
aa(lp164
F30.88230299949646
ag2
aI134
aa(lp165
F31.2155818939209
ag2
aI135
aa(lp166
F31.387799978256226
ag2
aI136
aa(lp167
F31.451297998428345
ag4
aI27
aa(lp168
F31.64103388786316
ag4
aI28
aa(lp169
F31.69196891784668
ag2
aI137
aa(lp170
F31.91484308242798
ag2
aI138
aa(lp171
F32.03687500953674
ag4
aI29
aa(lp172
F32.195960998535156
ag4
aI30
aa(lp173
F32.26763391494751
ag2
aI139
aa(lp174
F32.683367013931274
ag2
aI140
aa(lp175
F32.80767107009888
ag2
aI141
aa(lp176
F33.2726309299469
ag2
aI142
aa(lp177
F33.48507308959961
ag2
aI143
aa(lp178
F34.42957806587219
ag2
aI144
aa(lp179
F34.67987608909607
ag2
aI145
aa(lp180
F35.18456292152405
ag2
aI146
aa(lp181
F35.68186593055725
ag2
aI147
aa(lp182
F36.53748106956482
ag2
aI148
aa(lp183
F37.02708101272583
ag2
aI149
aa(lp184
F37.27725601196289
ag2
aI150
aa(lp185
F37.5243079662323
ag4
aI31
aa(lp186
F37.77153396606445
ag2
aI151
aa(lp187
F38.00633692741394
ag4
aI32
aa(lp188
F38.04657602310181
ag2
aI152
aa(lp189
F38.25900197029114
ag2
aI153
aa(lp190
F38.303142070770264
ag2
aI154
aa(lp191
F38.51144289970398
ag4
aI33
aa(lp192
F38.6669659614563
ag4
aI34
aa(lp193
F38.77357006072998
ag2
aI155
aa(lp194
F38.914544105529785
ag2
aI156
aa(lp195
F39.029470920562744
ag4
aI35
aa(lp196
F39.15297508239746
ag4
aI36
aa(lp197
F39.30360507965088
ag4
aI37
aa(lp198
F39.4105589389801
ag2
aI157
aa(lp199
F39.539926052093506
ag2
aI158
aa(lp200
F39.68791389465332
ag4
aI38
aa(lp201
F39.78520607948303
ag2
aI159
aa(lp202
F39.94060492515564
ag2
aI160
aa(lp203
F40.01773405075073
ag4
aI39
aa(lp204
F40.205260038375854
ag4
aI40
aa(lp205
F40.36705994606018
ag2
aI161
aa(lp206
F40.45231509208679
ag2
aI162
aa(lp207
F40.647144079208374
ag4
aI41
aa(lp208
F40.81957697868347
ag4
aI42
aa(lp209
F40.895731925964355
ag2
aI163
aa(lp210
F41.094505071640015
ag2
aI164
aa(lp211
F41.14686608314514
ag4
aI43
aa(lp212
F41.353776931762695
ag4
aI44
aa(lp213
F41.48581600189209
ag2
aI165
aa(lp214
F41.613905906677246
ag2
aI166
aa(lp215
F41.732693910598755
ag2
aI167
aa(lp216
F42.109687089920044
ag2
aI168
aa(lp217
F42.240609884262085
ag2
aI169
aa(lp218
F42.50220990180969
ag2
aI170
aa(lp219
F42.663469076156616
ag2
aI171
aa(lp220
F43.144351959228516
ag2
aI172
aa(lp221
F43.31217408180237
ag2
aI173
aa(lp222
F43.63015794754028
ag2
aI174
aa(lp223
F43.80160593986511
ag2
aI175
aa(lp224
F44.06049299240112
ag2
aI176
aa(lp225
F44.25158405303955
ag2
aI177
aa(lp226
F44.543663024902344
ag2
aI178
aa(lp227
F44.711546897888184
ag2
aI179
aa(lp228
F45.044804096221924
ag2
aI180
aa(lp229
F45.18738889694214
ag2
aI181
aa(lp230
F45.64972901344299
ag2
aI182
aa(lp231
F45.74851608276367
ag2
aI183
aa(lp232
F46.13383102416992
ag2
aI184
aa(lp233
F46.301753997802734
ag2
aI185
aa(lp234
F46.60050296783447
ag2
aI186
aa(lp235
F46.762864112854004
ag2
aI187
aa(lp236
F46.86276698112488
ag4
aI45
aa(lp237
F47.013367891311646
ag4
aI46
aa(lp238
F47.09185791015625
ag2
aI188
aa(lp239
F47.271053075790405
ag2
aI189
aa(lp240
F47.32720398902893
ag4
aI47
aa(lp241
F47.54924702644348
ag4
aI48
aa(lp242
F47.64347505569458
ag2
aI190
aa(lp243
F48.22367000579834
ag2
aI191
aa(lp244
F48.68835210800171
ag2
aI192
aa(lp245
F48.87968707084656
ag2
aI193
aa(lp246
F49.12665295600891
ag2
aI194
aa(lp247
F49.61079001426697
ag2
aI195
aa(lp248
F49.88326907157898
ag2
aI196
aa(lp249
F50.08787202835083
ag2
aI197
aa(lp250
F50.12694597244263
ag2
aI198
aa(lp251
F50.57939100265503
ag2
aI199
aa(lp252
F50.66405987739563
ag2
aI200
aa(lp253
F51.195250034332275
ag2
aI201
aa(lp254
F51.36512994766235
ag2
aI202
aa(lp255
F51.65911507606506
ag2
aI203
aa(lp256
F51.8501238822937
ag2
aI204
aa(lp257
F52.13435506820679
ag2
aI205
aa(lp258
F52.325308084487915
ag2
aI206
aa(lp259
F52.66309690475464
ag2
aI207
aa(lp260
F52.81121110916138
ag2
aI208
aa(lp261
F52.89599895477295
ag4
aI49
aa(lp262
F53.08322596549988
ag4
aI50
aa(lp263
F53.13272309303284
ag2
aI209
aa(lp264
F53.326520919799805
ag2
aI210
aa(lp265
F53.45631289482117
ag4
aI51
aa(lp266
F53.56587791442871
ag4
aI52
aa(lp267
F53.684983015060425
ag2
aI211
aa(lp268
F53.837085008621216
ag2
aI212
aa(lp269
F54.165021896362305
ag2
aI213
aa(lp270
F54.32785987854004
ag2
aI214
aa(lp271
F54.64047288894653
ag2
aI215
aa(lp272
F54.82644510269165
ag2
aI216
aa(lp273
F55.10119605064392
ag2
aI217
aa(lp274
F55.28096795082092
ag2
aI218
aa(lp275
F55.57830595970154
ag2
aI219
aa(lp276
F55.74761199951172
ag2
aI220
aa(lp277
F56.047364950180054
ag2
aI221
aa(lp278
F56.17219805717468
ag2
aI222
aa(lp279
F56.219517946243286
ag2
aI223
aa(lp280
F56.51110005378723
ag2
aI224
aa(lp281
F56.629486083984375
ag2
aI225
aa(lp282
F56.694024085998535
ag2
aI226
aa(lp283
F56.98270297050476
ag2
aI227
aa(lp284
F57.089744091033936
ag2
aI228
aa(lp285
F57.5911979675293
ag2
aI229
aa(lp286
F57.65289807319641
ag2
aI230
aa(lp287
F58.054441928863525
ag2
aI231
aa(lp288
F58.203505992889404
ag2
aI232
aa(lp289
F58.50551700592041
ag2
aI233
aa(lp290
F58.667957067489624
ag2
aI234
aa(lp291
F58.90870189666748
ag4
aI53
aa(lp292
F59.047301054000854
ag2
aI235
aa(lp293
F59.143609046936035
ag2
aI236
aa(lp294
F59.31249189376831
ag4
aI54
aa(lp295
F59.37933707237244
ag4
aI55
aa(lp296
F59.54812407493591
ag2
aI237
aa(lp297
F59.70039105415344
ag2
aI238
aa(lp298
F59.780287981033325
ag4
aI56
aa(lp299
F60.018791913986206
ag2
aI239
aa(lp300
F60.168524980545044
ag2
aI240
aa(lp301
F60.48156404495239
ag2
aI241
aa(lp302
F60.85480499267578
ag2
aI242
aa(lp303
F61.019821882247925
ag2
aI243
aa(lp304
F61.52621603012085
ag2
aI244
aa(lp305
F61.792848110198975
ag2
aI245
aa(lp306
F61.97964096069336
ag2
aI246
aa(lp307
F62.26154088973999
ag2
aI247
aa(lp308
F62.431538105010986
ag2
aI248
aa(lp309
F62.74628496170044
ag2
aI249
aa(lp310
F62.887855052948
ag2
aI250
aa(lp311
F63.20892095565796
ag2
aI251
aa(lp312
F63.58370900154114
ag2
aI252
aa(lp313
F63.68258500099182
ag2
aI253
aa(lp314
F64.05260300636292
ag2
aI254
aa(lp315
F64.1774320602417
ag2
aI255
aa(lp316
F64.52428793907166
ag2
aI256
aa(lp317
F64.69586992263794
ag2
aI257
aa(lp318
F65.00622200965881
ag4
aI57
aa(lp319
F65.14962196350098
ag2
aI258
aa(lp320
F65.239590883255
ag4
aI58
aa(lp321
F65.37776899337769
ag4
aI59
aa(lp322
F65.47625303268433
ag2
aI259
aa(lp323
F65.60340809822083
ag2
aI260
aa(lp324
F65.7415759563446
ag2
aI261
aa(lp325
F65.8352279663086
ag4
aI60
aa(lp326
F65.99561500549316
ag2
aI262
aa(lp327
F66.11964106559753
ag2
aI263
aa(lp328
F66.58017206192017
ag2
aI264
aa(lp329
F67.03947806358337
ag2
aI265
aa(lp330
F67.20950293540955
ag2
aI266
aa(lp331
F67.50744891166687
ag2
aI267
aa(lp332
F67.67052698135376
ag2
aI268
aa(lp333
F67.97362995147705
ag2
aI269
aa(lp334
F68.13340401649475
ag2
aI270
aa(lp335
F68.44701910018921
ag2
aI271
aa(lp336
F68.59167098999023
ag2
aI272
aa(lp337
F68.91665601730347
ag2
aI273
aa(lp338
F69.06631088256836
ag2
aI274
aa(lp339
F69.38036704063416
ag2
aI275
aa(lp340
F69.5238389968872
ag2
aI276
aa(lp341
F69.7872109413147
ag2
aI277
aa(lp342
F69.84705901145935
ag2
aI278
aa(lp343
F69.98943305015564
ag2
aI279
aa(lp344
F70.26766991615295
ag2
aI280
aa(lp345
F70.43523788452148
ag2
aI281
aa(lp346
F70.74299788475037
ag2
aI282
aa(lp347
F70.88847303390503
ag2
aI283
aa(lp348
F70.91936302185059
ag2
aI284
aa(lp349
F71.12318706512451
ag4
aI61
aa(lp350
F71.2944610118866
ag2
aI285
aa(lp351
F71.37107110023499
ag2
aI286
aa(lp352
F71.53215789794922
ag4
aI62
aa(lp353
F71.60789799690247
ag4
aI63
aa(lp354
F71.7715470790863
ag2
aI287
aa(lp355
F71.85734796524048
ag2
aI288
aa(lp356
F71.92287397384644
ag2
aI289
aa(lp357
F71.99910807609558
ag4
aI64
aa(lp358
F72.25814294815063
ag2
aI290
aa(lp359
F72.32405209541321
ag2
aI291
aa(lp360
F72.41154909133911
ag2
aI292
aa(lp361
F72.73922491073608
ag2
aI293
aa(lp362
F72.84007501602173
ag2
aI294
aa(lp363
F73.21002388000488
ag2
aI295
aa(lp364
F73.37432289123535
ag2
aI296
aa(lp365
F73.69199895858765
ag2
aI297
aa(lp366
F73.8273561000824
ag2
aI298
aa(lp367
F74.15244197845459
ag2
aI299
aa(lp368
F74.2801160812378
ag2
aI300
aa(lp369
F74.60782599449158
ag2
aI301
aa(lp370
F74.73101592063904
ag2
aI302
aa(lp371
F75.05936789512634
ag2
aI303
aa(lp372
F75.18765807151794
ag2
aI304
aa(lp373
F75.51333999633789
ag2
aI305
aa(lp374
F75.64788103103638
ag2
aI306
aa(lp375
F75.9677050113678
ag2
aI307
aa(lp376
F76.0997040271759
ag2
aI308
aa(lp377
F76.42406988143921
ag2
aI309
aa(lp378
F76.5518319606781
ag2
aI310
aa(lp379
F76.8810510635376
ag2
aI311
aa(lp380
F77.00755405426025
ag2
aI312
aa(lp381
F77.10696601867676
ag4
aI65
aa(lp382
F77.23489594459534
ag4
aI66
aa(lp383
F77.33286690711975
ag2
aI313
aa(lp384
F77.46772503852844
ag2
aI314
aa(lp385
F77.55906391143799
ag4
aI67
aa(lp386
F77.69523811340332
ag4
aI68
aa(lp387
F77.78336906433105
ag2
aI315
aa(lp388
F77.92437505722046
ag2
aI316
aa(lp389
F78.01505088806152
ag4
aI69
aa(lp390
F78.15101790428162
ag4
aI70
aa(lp391
F78.25947690010071
ag2
aI317
aa(lp392
F78.37599897384644
ag2
aI318
aa(lp393
F78.70780301094055
ag2
aI319
aa(lp394
F78.8310821056366
ag2
aI320
aa(lp395
F79.15933299064636
ag2
aI321
aa(lp396
F79.29275703430176
ag2
aI322
aa(lp397
F79.61202907562256
ag2
aI323
aa(lp398
F79.75176692008972
ag2
aI324
aa(lp399
F80.06348204612732
ag2
aI325
aa(lp400
F80.21293306350708
ag2
aI326
aa(lp401
F80.5278730392456
ag2
aI327
aa(lp402
F80.66433691978455
ag2
aI328
aa(lp403
F80.9790198802948
ag2
aI329
aa(lp404
F81.12936091423035
ag2
aI330
aa(lp405
F81.44327592849731
ag2
aI331
aa(lp406
F81.58248591423035
ag2
aI332
aa(lp407
F81.89568901062012
ag2
aI333
aa(lp408
F82.04769802093506
ag2
aI334
aa(lp409
F82.35784196853638
ag2
aI335
aa(lp410
F82.50432896614075
ag2
aI336
aa(lp411
F82.81486296653748
ag2
aI337
aa(lp412
F82.98321890830994
ag2
aI338
aa(lp413
F83.28288292884827
ag2
aI339
aa(lp414
F83.44339203834534
ag2
aI340
aa(lp415
F83.5312249660492
ag4
aI71
aa(lp416
F83.67207789421082
ag4
aI72
aa(lp417
F83.76016592979431
ag2
aI341
aa(lp418
F83.90011501312256
ag2
aI342
aa(lp419
F83.98746609687805
ag4
aI73
aa(lp420
F84.13159704208374
ag4
aI74
aa(lp421
F84.2199079990387
ag2
aI343
aa(lp422
F84.37575197219849
ag2
aI344
aa(lp423
F84.70778799057007
ag2
aI345
aa(lp424
F84.8432080745697
ag2
aI346
aa(lp425
F85.15955305099487
ag2
aI347
aa(lp426
F85.29833006858826
ag2
aI348
aa(lp427
F85.62768793106079
ag2
aI349
aa(lp428
F85.76107597351074
ag2
aI350
aa(lp429
F86.09154200553894
ag2
aI351
aa(lp430
F86.2423939704895
ag2
aI352
aa(lp431
F86.56998705863953
ag2
aI353
aa(lp432
F86.73647594451904
ag2
aI354
aa(lp433
F87.04382991790771
ag2
aI355
aa(lp434
F87.19964599609375
ag2
aI356
aa(lp435
F87.52195692062378
ag2
aI357
aa(lp436
F87.69268798828125
ag2
aI358
aa(lp437
F87.99236798286438
ag2
aI359
aa(lp438
F88.1595950126648
ag2
aI360
aa(lp439
F88.48964095115662
ag2
aI361
aa(lp440
F88.63949298858643
ag2
aI362
aa(lp441
F88.9502489566803
ag2
aI363
aa(lp442
F89.10771894454956
ag2
aI364
aa(lp443
F89.43409490585327
ag2
aI365
aa(lp444
F89.61418104171753
ag2
aI366
aa(lp445
F89.86255288124084
ag4
aI75
aa(lp446
F89.91523098945618
ag2
aI367
aa(lp447
F90.08867001533508
ag2
aI368
aa(lp448
F90.23180508613586
ag4
aI76
aa(lp449
F90.34980297088623
ag4
aI77
aa(lp450
F90.48134708404541
ag2
aI369
aa(lp451
F90.61133909225464
ag2
aI370
aa(lp452
F90.7763249874115
ag4
aI78
aa(lp453
F90.84212303161621
ag4
aI79
aa(lp454
F91.00029397010803
ag2
aI371
aa(lp455
F91.06842494010925
ag2
aI372
aa(lp456
F91.22703790664673
ag4
aI80
aa(lp457
F91.32387495040894
ag4
aI81
aa(lp458
F91.45981192588806
ag2
aI373
aa(lp459
F91.5868079662323
ag2
aI374
aa(lp460
F91.69872093200684
ag4
aI82
aa(lp461
F91.80860209465027
ag4
aI83
aa(lp462
F91.94019508361816
ag2
aI375
aa(lp463
F92.08738493919373
ag2
aI376
aa(lp464
F92.16353106498718
ag4
aI84
aa(lp465
F92.32386803627014
ag4
aI85
aa(lp466
F92.40729188919067
ag2
aI377
aa(lp467
F92.56806898117065
ag2
aI378
aa(lp468
F92.707927942276
ag4
aI86
aa(lp469
F92.82548403739929
ag4
aI87
aa(lp470
F92.93948698043823
ag2
aI379
aa(lp471
F93.06736397743225
ag2
aI380
aa(lp472
F93.19827103614807
ag4
aI88
aa(lp473
F93.35148596763611
ag4
aI89
aa(lp474
F93.42344689369202
ag2
aI381
aa(lp475
F93.59170889854431
ag2
aI382
aa(lp476
F94.20865106582642
ag2
aI383
aa(lp477
F94.58332300186157
ag2
aI384
aa(lp478
F94.76729106903076
ag2
aI385
aa(lp479
F95.04051399230957
ag2
aI386
aa(lp480
F95.2197060585022
ag2
aI387
aa(lp481
F95.56375694274902
ag2
aI388
aa(lp482
F95.73985505104065
ag2
aI389
aa(lp483
F96.0640459060669
ag2
aI390
aa(lp484
F96.21503901481628
ag2
aI391
aa(lp485
F96.55745601654053
ag2
aI392
aa(lp486
F96.71997594833374
ag2
aI393
aa(lp487
F97.03370094299316
ag2
aI394
aa(lp488
F97.21576809883118
ag2
aI395
aa(lp489
F97.50544095039368
ag2
aI396
aa(lp490
F97.69205689430237
ag2
aI397
aa(lp491
F98.1756329536438
ag2
aI398
aa(lp492
F98.67638993263245
ag2
aI399
aa(lp493
F100.75619196891785
ag2
aI400
aa.