(lp0
(lp1
F0.0002200603485107422
aS'TCP'
p2
aI0
aa(lp3
F0.04709601402282715
aS'UDP'
p4
aI0
aa(lp5
F0.306351900100708
ag2
aI1
aa(lp6
F0.5567560195922852
ag4
aI1
aa(lp7
F0.7973599433898926
ag2
aI2
aa(lp8
F1.0407159328460693
ag4
aI2
aa(lp9
F1.2769088745117188
ag2
aI3
aa(lp10
F1.5195400714874268
ag4
aI3
aa(lp11
F1.7609870433807373
ag2
aI4
aa(lp12
F2.1429100036621094
ag4
aI4
aa(lp13
F2.40208101272583
ag2
aI5
aa(lp14
F2.6604678630828857
ag4
aI5
aa(lp15
F2.888720989227295
ag2
aI6
aa(lp16
F3.1224520206451416
ag4
aI6
aa(lp17
F3.486556053161621
ag2
aI7
aa(lp18
F3.8621480464935303
ag4
aI7
aa(lp19
F4.0958569049835205
ag2
aI8
aa(lp20
F4.563102960586548
ag2
aI9
aa(lp21
F5.07069993019104
ag2
aI10
aa(lp22
F5.6742448806762695
ag2
aI11
aa(lp23
F6.18661093711853
ag2
aI12
aa(lp24
F6.6931679248809814
ag2
aI13
aa(lp25
F7.3248889446258545
ag2
aI14
aa(lp26
F7.858619928359985
ag2
aI15
aa(lp27
F8.355366945266724
ag2
aI16
aa(lp28
F8.906615018844604
ag2
aI17
aa(lp29
F9.439250946044922
ag2
aI18
aa(lp30
F9.91883397102356
ag2
aI19
aa(lp31
F10.478551864624023
ag2
aI20
aa(lp32
F10.951832056045532
ag2
aI21
aa(lp33
F11.542689085006714
ag2
aI22
aa(lp34
F12.03203797340393
ag2
aI23
aa(lp35
F12.623028993606567
ag2
aI24
aa(lp36
F13.136719942092896
ag2
aI25
aa(lp37
F13.65162706375122
ag2
aI26
aa(lp38
F14.113335847854614
ag2
aI27
aa(lp39
F14.346174955368042
ag4
aI8
aa(lp40
F14.57741093635559
ag2
aI28
aa(lp41
F14.8074049949646
ag4
aI9
aa(lp42
F15.039198875427246
ag2
aI29
aa(lp43
F15.271142959594727
ag4
aI10
aa(lp44
F15.509772062301636
ag2
aI30
aa(lp45
F15.740238904953003
ag4
aI11
aa(lp46
F15.975827932357788
ag2
aI31
aa(lp47
F16.208144903182983
ag4
aI12
aa(lp48
F16.442749977111816
ag2
aI32
aa(lp49
F16.90823197364807
ag2
aI33
aa(lp50
F17.36510396003723
ag2
aI34
aa(lp51
F17.822911977767944
ag2
aI35
aa(lp52
F18.290910959243774
ag2
aI36
aa(lp53
F18.75196099281311
ag2
aI37
aa(lp54
F19.207045078277588
ag2
aI38
aa(lp55
F19.659390926361084
ag2
aI39
aa(lp56
F20.107218027114868
ag2
aI40
aa(lp57
F20.66669797897339
ag2
aI41
aa(lp58
F21.19099998474121
ag2
aI42
aa(lp59
F21.652201890945435
ag2
aI43
aa(lp60
F22.11039090156555
ag2
aI44
aa(lp61
F22.574842929840088
ag2
aI45
aa(lp62
F23.03563904762268
ag2
aI46
aa(lp63
F23.491638898849487
ag2
aI47
aa(lp64
F23.94690990447998
ag2
aI48
aa(lp65
F24.411930084228516
ag2
aI49
aa(lp66
F24.97870707511902
ag2
aI50
aa(lp67
F25.487318992614746
ag2
aI51
aa(lp68
F25.996856927871704
ag2
aI52
aa(lp69
F26.530683994293213
ag2
aI53
aa(lp70
F26.755307912826538
ag4
aI13
aa(lp71
F27.06304693222046
ag2
aI54
aa(lp72
F27.450495958328247
ag4
aI14
aa(lp73
F27.715478897094727
ag2
aI55
aa(lp74
F27.959639072418213
ag4
aI15
aa(lp75
F28.222280979156494
ag2
aI56
aa(lp76
F28.558743000030518
ag4
aI16
aa(lp77
F28.783365964889526
ag2
aI57
aa(lp78
F29.046541929244995
ag4
aI17
aa(lp79
F29.295480966567993
ag2
aI58
aa(lp80
F29.751699924468994
ag2
aI59
aa(lp81
F30.222362995147705
ag2
aI60
aa(lp82
F30.71560001373291
ag2
aI61
aa(lp83
F31.358494997024536
ag2
aI62
aa(lp84
F31.843788862228394
ag2
aI63
aa(lp85
F32.33876299858093
ag2
aI64
aa(lp86
F32.886903047561646
ag2
aI65
aa(lp87
F33.41752290725708
ag2
aI66
aa(lp88
F33.94669699668884
ag2
aI67
aa(lp89
F34.47068500518799
ag2
aI68
aa(lp90
F34.98630499839783
ag2
aI69
aa(lp91
F35.47913694381714
ag2
aI70
aa(lp92
F35.98616099357605
ag2
aI71
aa(lp93
F36.51109194755554
ag2
aI72
aa(lp94
F37.08681797981262
ag2
aI73
aa(lp95
F37.618656873703
ag2
aI74
aa(lp96
F38.12896800041199
ag2
aI75
aa(lp97
F38.60343384742737
ag2
aI76
aa(lp98
F39.221823930740356
ag2
aI77
aa(lp99
F39.49881100654602
ag4
aI18
aa(lp100
F39.87939095497131
ag2
aI78
aa(lp101
F40.18428707122803
ag4
aI19
aa(lp102
F40.439064025878906
ag2
aI79
aa(lp103
F40.731281995773315
ag4
aI20
aa(lp104
F40.991721868515015
ag2
aI80
aa(lp105
F41.252115964889526
ag4
aI21
aa(lp106
F41.578234910964966
ag2
aI81
aa(lp107
F42.24035692214966
ag2
aI82
aa(lp108
F42.90796399116516
ag2
aI83
aa(lp109
F43.40947890281677
ag2
aI84
aa(lp110
F43.89647698402405
ag2
aI85
aa(lp111
F44.37274193763733
ag2
aI86
aa(lp112
F44.8846230506897
ag2
aI87
aa(lp113
F45.377469062805176
ag2
aI88
aa(lp114
F45.93519997596741
ag2
aI89
aa(lp115
F46.55086398124695
ag2
aI90
aa(lp116
F47.04776906967163
ag2
aI91
aa(lp117
F47.567224979400635
ag2
aI92
aa(lp118
F48.110121965408325
ag2
aI93
aa(lp119
F48.64546489715576
ag2
aI94
aa(lp120
F49.13489484786987
ag2
aI95
aa(lp121
F49.67300796508789
ag2
aI96
aa(lp122
F50.2244188785553
ag2
aI97
aa(lp123
F50.75221395492554
ag2
aI98
aa(lp124
F51.299922943115234
ag2
aI99
aa(lp125
F51.79954290390015
ag2
aI100
aa(lp126
F52.047889947891235
ag4
aI22
aa(lp127
F52.32281994819641
ag2
aI101
aa(lp128
F52.59046387672424
ag4
aI23
aa(lp129
F52.85094404220581
ag2
aI102
aa(lp130
F53.122400999069214
ag4
aI24
aa(lp131
F53.41869497299194
ag2
aI103
aa(lp132
F53.68046808242798
ag4
aI25
aa(lp133
F53.952208042144775
ag2
aI104
aa(lp134
F54.211299896240234
ag4
aI26
aa(lp135
F54.51957607269287
ag2
aI105
aa(lp136
F55.02968192100525
ag2
aI106
aa(lp137
F55.56319499015808
ag2
aI107
aa(lp138
F56.10789203643799
ag2
aI108
aa(lp139
F56.670912981033325
ag2
aI109
aa(lp140
F57.225199937820435
ag2
aI110
aa(lp141
F57.77882504463196
ag2
aI111
aa(lp142
F58.343929052352905
ag2
aI112
aa(lp143
F58.95980095863342
ag2
aI113
aa(lp144
F59.49489188194275
ag2
aI114
aa(lp145
F59.97813105583191
ag2
aI115
aa(lp146
F60.511000871658325
ag2
aI116
aa(lp147
F61.016114950180054
ag2
aI117
aa(lp148
F61.691807985305786
ag2
aI118
aa(lp149
F62.22032189369202
ag2
aI119
aa(lp150
F62.73068690299988
ag2
aI120
aa(lp151
F63.25342798233032
ag2
aI121
aa(lp152
F63.716450929641724
ag2
aI122
aa(lp153
F64.37948799133301
ag2
aI123
aa(lp154
F64.88757395744324
ag2
aI124
aa(lp155
F65.17091488838196
ag4
aI27
aa(lp156
F65.43132305145264
ag2
aI125
aa(lp157
F65.68687605857849
ag4
aI28
aa(lp158
F65.966481924057
ag2
aI126
aa(lp159
F66.23558402061462
ag4
aI29
aa(lp160
F66.53516602516174
ag2
aI127
aa(lp161
F66.81488585472107
ag4
aI30
aa(lp162
F67.07938194274902
ag2
aI128
aa(lp163
F67.56704807281494
ag2
aI129
aa(lp164
F68.07232785224915
ag2
aI130
aa(lp165
F68.68305993080139
ag2
aI131
aa(lp166
F69.2282919883728
ag2
aI132
aa(lp167
F69.78039693832397
ag2
aI133
aa(lp168
F70.25055694580078
ag2
aI134
aa(lp169
F70.77036905288696
ag2
aI135
aa(lp170
F71.28195285797119
ag2
aI136
aa(lp171
F71.91874098777771
ag2
aI137
aa(lp172
F72.4210319519043
ag2
aI138
aa(lp173
F73.14543294906616
ag2
aI139
aa(lp174
F73.65036201477051
ag2
aI140
aa(lp175
F74.32331204414368
ag2
aI141
aa(lp176
F74.82962393760681
ag2
aI142
aa(lp177
F75.61036992073059
ag2
aI143
aa(lp178
F76.18634796142578
ag2
aI144
aa(lp179
F76.76662302017212
ag2
aI145
aa(lp180
F77.2672770023346
ag2
aI146
aa(lp181
F77.59866404533386
ag4
aI31
aa(lp182
F77.89455986022949
ag2
aI147
aa(lp183
F78.17122793197632
ag4
aI32
aa(lp184
F78.39894199371338
ag2
aI148
aa(lp185
F78.67490601539612
ag4
aI33
aa(lp186
F78.974191904068
ag2
aI149
aa(lp187
F79.24309301376343
ag4
aI34
aa(lp188
F79.47893404960632
ag2
aI150
aa(lp189
F80.10272407531738
ag2
aI151
aa(lp190
F80.63865399360657
ag2
aI152
aa(lp191
F81.29184794425964
ag2
aI153
aa(lp192
F81.85182905197144
ag2
aI154
aa(lp193
F82.40327501296997
ag2
aI155
aa(lp194
F82.91424298286438
ag2
aI156
aa(lp195
F83.41908502578735
ag2
aI157
aa(lp196
F83.99477505683899
ag2
aI158
aa(lp197
F84.48720908164978
ag2
aI159
aa(lp198
F85.0753390789032
ag2
aI160
aa(lp199
F85.61821985244751
ag2
aI161
aa(lp200
F86.1550440788269
ag2
aI162
aa(lp201
F86.71140098571777
ag2
aI163
aa(lp202
F87.27064895629883
ag2
aI164
aa(lp203
F87.85434603691101
ag2
aI165
aa(lp204
F88.35062289237976
ag2
aI166
aa(lp205
F88.82509207725525
ag2
aI167
aa(lp206
F89.34332990646362
ag2
aI168
aa(lp207
F89.91570496559143
ag2
aI169
aa(lp208
F90.21084189414978
ag4
aI35
aa(lp209
F90.47029304504395
ag2
aI170
aa(lp210
F90.78262996673584
ag4
aI36
aa(lp211
F91.05591797828674
ag2
aI171
aa(lp212
F91.31670188903809
ag4
aI37
aa(lp213
F91.54791903495789
ag2
aI172
aa(lp214
F91.86697101593018
ag4
aI38
aa(lp215
F92.14069700241089
ag2
aI173
aa(lp216
F92.65533804893494
ag2
aI174
aa(lp217
F93.22706007957458
ag2
aI175
aa(lp218
F93.67444586753845
ag2
aI176
aa(lp219
F94.14806699752808
ag2
aI177
aa(lp220
F94.73274493217468
ag2
aI178
aa(lp221
F95.19741296768188
ag2
aI179
aa(lp222
F95.68080186843872
ag2
aI180
aa(lp223
F96.15247988700867
ag2
aI181
aa(lp224
F96.62496590614319
ag2
aI182
aa(lp225
F97.0865740776062
ag2
aI183
aa(lp226
F97.55087494850159
ag2
aI184
aa(lp227
F98.02095890045166
ag2
aI185
aa(lp228
F98.51400685310364
ag2
aI186
aa(lp229
F98.98823189735413
ag2
aI187
aa(lp230
F99.46445298194885
ag2
aI188
aa(lp231
F99.9530758857727
ag2
aI189
aa(lp232
F100.44219207763672
ag2
aI190
aa(lp233
F100.93941497802734
ag2
aI191
aa(lp234
F101.40855407714844
ag2
aI192
aa(lp235
F101.91183996200562
ag2
aI193
aa(lp236
F102.43400406837463
ag2
aI194
aa(lp237
F102.67240285873413
ag4
aI39
aa(lp238
F102.94691300392151
ag2
aI195
aa(lp239
F103.18756008148193
ag4
aI40
aa(lp240
F103.42829203605652
ag2
aI196
aa(lp241
F103.66813898086548
ag4
aI41
aa(lp242
F103.91094398498535
ag2
aI197
aa(lp243
F104.20850801467896
ag4
aI42
aa(lp244
F104.47268986701965
ag2
aI198
aa(lp245
F104.98206806182861
ag2
aI199
aa(lp246
F105.45610785484314
ag2
aI200
aa.