(lp0
(lp1
F0.0001900196075439453
aS'TCP'
p2
aI0
aa(lp3
F0.11369585990905762
aS'UDP'
p4
aI0
aa(lp5
F0.20876097679138184
ag4
aI1
aa(lp6
F0.3239119052886963
ag4
aI2
aa(lp7
F0.35231494903564453
ag2
aI1
aa(lp8
F0.41994786262512207
ag4
aI3
aa(lp9
F0.49042296409606934
ag2
aI2
aa(lp10
F0.569288969039917
ag4
aI4
aa(lp11
F0.6404569149017334
ag2
aI3
aa(lp12
F0.6884899139404297
ag4
aI5
aa(lp13
F0.7360429763793945
ag2
aI4
aa(lp14
F0.8082950115203857
ag4
aI6
aa(lp15
F0.856360912322998
ag2
aI5
aa(lp16
F0.9288299083709717
ag4
aI7
aa(lp17
F0.976348876953125
ag2
aI6
aa(lp18
F1.0484778881072998
ag4
aI8
aa(lp19
F1.0999419689178467
ag2
aI7
aa(lp20
F1.1646130084991455
ag4
aI9
aa(lp21
F1.2161757946014404
ag2
aI8
aa(lp22
F1.2840819358825684
ag4
aI10
aa(lp23
F1.3406498432159424
ag2
aI9
aa(lp24
F1.3960649967193604
ag4
aI11
aa(lp25
F1.440397024154663
ag2
aI10
aa(lp26
F1.5122878551483154
ag4
aI12
aa(lp27
F1.6042659282684326
ag2
aI11
aa(lp28
F1.6441500186920166
ag4
aI13
aa(lp29
F1.6961908340454102
ag2
aI12
aa(lp30
F1.7524759769439697
ag4
aI14
aa(lp31
F1.8402669429779053
ag2
aI13
aa(lp32
F1.8686649799346924
ag4
aI15
aa(lp33
F1.9403347969055176
ag2
aI14
aa(lp34
F1.996614933013916
ag4
aI16
aa(lp35
F2.04823899269104
ag2
aI15
aa(lp36
F2.116666793823242
ag4
aI17
aa(lp37
F2.1684398651123047
ag2
aI16
aa(lp38
F2.237294912338257
ag4
aI18
aa(lp39
F2.2878708839416504
ag2
aI17
aa(lp40
F2.3361639976501465
ag4
aI19
aa(lp41
F2.4047279357910156
ag2
aI18
aa(lp42
F2.4523370265960693
ag4
aI20
aa(lp43
F2.5248849391937256
ag2
aI19
aa(lp44
F2.5685439109802246
ag4
aI21
aa(lp45
F2.6442039012908936
ag2
aI20
aa(lp46
F2.696589946746826
ag4
aI22
aa(lp47
F2.759931802749634
ag2
aI21
aa(lp48
F2.8207108974456787
ag4
aI23
aa(lp49
F2.8737239837646484
ag2
aI22
aa(lp50
F2.9688408374786377
ag4
aI24
aa(lp51
F3.040177822113037
ag2
aI23
aa(lp52
F3.096047878265381
ag4
aI25
aa(lp53
F3.1604738235473633
ag2
aI24
aa(lp54
F3.208184003829956
ag4
aI26
aa(lp55
F3.284350872039795
ag2
aI25
aa(lp56
F3.3361430168151855
ag4
aI27
aa(lp57
F3.3881478309631348
ag2
aI26
aa(lp58
F3.4603049755096436
ag4
aI28
aa(lp59
F3.5152459144592285
ag2
aI27
aa(lp60
F3.5604968070983887
ag4
aI29
aa(lp61
F3.6280570030212402
ag2
aI28
aa(lp62
F3.70448899269104
ag4
aI30
aa(lp63
F3.7523579597473145
ag2
aI29
aa(lp64
F3.8040199279785156
ag4
aI31
aa(lp65
F3.8684868812561035
ag2
aI30
aa(lp66
F3.9326248168945312
ag4
aI32
aa(lp67
F3.9806158542633057
ag2
aI31
aa(lp68
F4.043946981430054
ag4
aI33
aa(lp69
F4.1125500202178955
ag2
aI32
aa(lp70
F4.168208837509155
ag4
aI34
aa(lp71
F4.2161970138549805
ag2
aI33
aa(lp72
F4.280246019363403
ag4
aI35
aa(lp73
F4.360513925552368
ag2
aI34
aa(lp74
F4.413393974304199
ag4
aI36
aa(lp75
F4.491533994674683
ag4
aI37
aa(lp76
F4.544629812240601
ag2
aI35
aa(lp77
F4.596696853637695
ag4
aI38
aa(lp78
F4.672153949737549
ag2
aI36
aa(lp79
F4.7205469608306885
ag4
aI39
aa(lp80
F4.780519008636475
ag2
aI37
aa(lp81
F4.831914901733398
ag4
aI40
aa(lp82
F4.916204929351807
ag2
aI38
aa(lp83
F4.960984945297241
ag4
aI41
aa(lp84
F5.0162129402160645
ag2
aI39
aa(lp85
F5.068325996398926
ag4
aI42
aa(lp86
F5.141274929046631
ag2
aI40
aa(lp87
F5.192314863204956
ag4
aI43
aa(lp88
F5.240408897399902
ag2
aI41
aa(lp89
F5.3082709312438965
ag4
aI44
aa(lp90
F5.350216865539551
ag2
aI42
aa(lp91
F5.40981388092041
ag4
aI45
aa(lp92
F5.511765956878662
ag4
aI46
aa(lp93
F5.53778600692749
ag2
aI43
aa(lp94
F5.598014831542969
ag4
aI47
aa(lp95
F5.656749963760376
ag2
aI44
aa(lp96
F5.7200658321380615
ag4
aI48
aa(lp97
F5.784737825393677
ag2
aI45
aa(lp98
F5.84417200088501
ag4
aI49
aa(lp99
F5.922240972518921
ag2
aI46
aa(lp100
F5.969414949417114
ag4
aI50
aa(lp101
F6.011916875839233
ag2
aI47
aa(lp102
F6.071830987930298
ag4
aI51
aa(lp103
F6.129344940185547
ag2
aI48
aa(lp104
F6.247998952865601
ag2
aI49
aa(lp105
F6.27644681930542
ag4
aI52
aa(lp106
F6.334456920623779
ag2
aI50
aa(lp107
F6.3967978954315186
ag4
aI53
aa(lp108
F6.436069011688232
ag2
aI51
aa(lp109
F6.4964759349823
ag4
aI54
aa(lp110
F6.569846868515015
ag2
aI52
aa(lp111
F6.609813928604126
ag4
aI55
aa(lp112
F6.678233861923218
ag2
aI53
aa(lp113
F6.751287937164307
ag4
aI56
aa(lp114
F6.796702861785889
ag2
aI54
aa(lp115
F6.8825438022613525
ag4
aI57
aa(lp116
F6.920121908187866
ag2
aI55
aa(lp117
F6.9845359325408936
ag4
aI58
aa(lp118
F7.051007986068726
ag2
aI56
aa(lp119
F7.091982841491699
ag4
aI59
aa(lp120
F7.16193699836731
ag2
aI57
aa(lp121
F7.229869842529297
ag4
aI60
aa(lp122
F7.29538893699646
ag4
aI61
aa(lp123
F7.3442559242248535
ag2
aI58
aa(lp124
F7.38972282409668
ag4
aI62
aa(lp125
F7.451481819152832
ag2
aI59
aa(lp126
F7.521798849105835
ag4
aI63
aa(lp127
F7.562907934188843
ag2
aI60
aa(lp128
F7.623982906341553
ag4
aI64
aa(lp129
F7.688486814498901
ag2
aI61
aa(lp130
F7.758781909942627
ag4
aI65
aa(lp131
F7.794484853744507
ag2
aI62
aa(lp132
F7.859432935714722
ag4
aI66
aa(lp133
F7.924800872802734
ag2
aI63
aa(lp134
F7.997414827346802
ag4
aI67
aa(lp135
F8.03921389579773
ag2
aI64
aa(lp136
F8.106452941894531
ag4
aI68
aa(lp137
F8.148969888687134
ag2
aI65
aa(lp138
F8.208809852600098
ag4
aI69
aa(lp139
F8.276343822479248
ag2
aI66
aa(lp140
F8.348768949508667
ag4
aI70
aa(lp141
F8.403532981872559
ag2
aI67
aa(lp142
F8.455907821655273
ag4
aI71
aa(lp143
F8.520532846450806
ag2
aI68
aa(lp144
F8.568233966827393
ag4
aI72
aa(lp145
F8.641433000564575
ag2
aI69
aa(lp146
F8.692176818847656
ag4
aI73
aa(lp147
F8.740370988845825
ag2
aI70
aa(lp148
F8.812829971313477
ag4
aI74
aa(lp149
F8.861945867538452
ag2
aI71
aa(lp150
F8.933107852935791
ag4
aI75
aa(lp151
F8.988111972808838
ag2
aI72
aa(lp152
F9.052775859832764
ag4
aI76
aa(lp153
F9.093932867050171
ag2
aI73
aa(lp154
F9.153282880783081
ag4
aI77
aa(lp155
F9.212152004241943
ag2
aI74
aa(lp156
F9.303766965866089
ag2
aI75
aa(lp157
F9.345367908477783
ag4
aI78
aa(lp158
F9.388320922851562
ag2
aI76
aa(lp159
F9.44809889793396
ag4
aI79
aa(lp160
F9.508682012557983
ag2
aI77
aa(lp161
F9.577831983566284
ag4
aI80
aa(lp162
F9.632335901260376
ag2
aI78
aa(lp163
F9.701059818267822
ag4
aI81
aa(lp164
F9.790371894836426
ag4
aI82
aa(lp165
F9.83660101890564
ag2
aI79
aa(lp166
F9.915831804275513
ag4
aI83
aa(lp167
F9.951536893844604
ag2
aI80
aa(lp168
F10.01827597618103
ag4
aI84
aa(lp169
F10.076700925827026
ag2
aI81
aa(lp170
F10.143610954284668
ag4
aI85
aa(lp171
F10.201530933380127
ag2
aI82
aa(lp172
F10.296806812286377
ag2
aI83
aa(lp173
F10.32481598854065
ag4
aI86
aa(lp174
F10.390322923660278
ag2
aI84
aa(lp175
F10.448681831359863
ag4
aI87
aa(lp176
F10.508482933044434
ag2
aI85
aa(lp177
F10.572721004486084
ag4
aI88
aa(lp178
F10.623574018478394
ag2
aI86
aa(lp179
F10.671247959136963
ag4
aI89
aa(lp180
F10.7378249168396
ag2
aI87
aa(lp181
F10.798359870910645
ag4
aI90
aa(lp182
F10.875367879867554
ag2
aI88
aa(lp183
F10.927172899246216
ag4
aI91
aa(lp184
F10.98510193824768
ag2
aI89
aa(lp185
F11.038671970367432
ag4
aI92
aa(lp186
F11.05983281135559
ag2
aI90
aa(lp187
F11.145540952682495
ag4
aI93
aa(lp188
F11.21068787574768
ag2
aI91
aa(lp189
F11.278616905212402
ag4
aI94
aa(lp190
F11.317860841751099
ag2
aI92
aa(lp191
F11.382330894470215
ag4
aI95
aa(lp192
F11.457746982574463
ag2
aI93
aa(lp193
F11.49669885635376
ag4
aI96
aa(lp194
F11.55613088607788
ag2
aI94
aa(lp195
F11.629421949386597
ag4
aI97
aa(lp196
F11.672271966934204
ag2
aI95
aa(lp197
F11.736629009246826
ag4
aI98
aa(lp198
F11.800494909286499
ag2
aI96
aa(lp199
F11.865810871124268
ag4
aI99
aa(lp200
F11.908612966537476
ag2
aI97
aa(lp201
F11.972856998443604
ag4
aI100
aa(lp202
F12.035451889038086
ag2
aI98
aa(lp203
F12.101814985275269
ag4
aI101
aa(lp204
F12.144881963729858
ag2
aI99
aa(lp205
F12.233282804489136
ag2
aI100
aa(lp206
F12.267035007476807
ag4
aI102
aa(lp207
F12.312946796417236
ag2
aI101
aa(lp208
F12.379149913787842
ag4
aI103
aa(lp209
F12.454677820205688
ag2
aI102
aa(lp210
F12.492170810699463
ag4
aI104
aa(lp211
F12.553228855133057
ag2
aI103
aa(lp212
F12.639299869537354
ag2
aI104
aa(lp213
F12.685930967330933
ag4
aI105
aa(lp214
F12.742646932601929
ag2
aI105
aa(lp215
F12.808537006378174
ag4
aI106
aa(lp216
F12.87302279472351
ag2
aI106
aa(lp217
F12.948385953903198
ag4
aI107
aa(lp218
F13.004040956497192
ag2
aI107
aa(lp219
F13.043892860412598
ag4
aI108
aa(lp220
F13.111366987228394
ag2
aI108
aa(lp221
F13.165392875671387
ag4
aI109
aa(lp222
F13.251503944396973
ag2
aI109
aa(lp223
F13.289004802703857
ag4
aI110
aa(lp224
F13.360607862472534
ag4
aI111
aa(lp225
F13.422930002212524
ag2
aI110
aa(lp226
F13.487344026565552
ag4
aI112
aa(lp227
F13.512667894363403
ag2
aI111
aa(lp228
F13.582006931304932
ag4
aI113
aa(lp229
F13.656227827072144
ag2
aI112
aa(lp230
F13.695964813232422
ag4
aI114
aa(lp231
F13.763638019561768
ag2
aI113
aa(lp232
F13.808450937271118
ag4
aI115
aa(lp233
F13.87494683265686
ag2
aI114
aa(lp234
F13.925681829452515
ag4
aI116
aa(lp235
F13.988142967224121
ag2
aI115
aa(lp236
F14.05259394645691
ag4
aI117
aa(lp237
F14.140429973602295
ag2
aI116
aa(lp238
F14.179171800613403
ag4
aI118
aa(lp239
F14.294778823852539
ag2
aI117
aa(lp240
F14.349149942398071
ag4
aI119
aa(lp241
F14.437866926193237
ag2
aI118
aa(lp242
F14.509456872940063
ag4
aI120
aa(lp243
F14.590658903121948
ag2
aI119
aa(lp244
F14.63669490814209
ag4
aI121
aa(lp245
F14.690509796142578
ag2
aI120
aa(lp246
F14.754628896713257
ag4
aI122
aa(lp247
F14.804472923278809
ag2
aI121
aa(lp248
F14.869781017303467
ag4
aI123
aa(lp249
F14.94788384437561
ag2
aI122
aa(lp250
F14.991147994995117
ag4
aI124
aa(lp251
F15.044686794281006
ag2
aI123
aa(lp252
F15.118803977966309
ag4
aI125
aa(lp253
F15.162839889526367
ag2
aI124
aa(lp254
F15.220284938812256
ag4
aI126
aa(lp255
F15.266559839248657
ag2
aI125
aa(lp256
F15.327219009399414
ag4
aI127
aa(lp257
F15.388475894927979
ag2
aI126
aa(lp258
F15.448975801467896
ag4
aI128
aa(lp259
F15.510600805282593
ag2
aI127
aa(lp260
F15.576303005218506
ag4
aI129
aa(lp261
F15.653905868530273
ag2
aI128
aa(lp262
F15.695881843566895
ag4
aI130
aa(lp263
F15.764197826385498
ag2
aI129
aa(lp264
F15.808152914047241
ag4
aI131
aa(lp265
F15.882966995239258
ag2
aI130
aa(lp266
F15.93519902229309
ag4
aI132
aa(lp267
F16.01029682159424
ag2
aI131
aa(lp268
F16.048280954360962
ag4
aI133
aa(lp269
F16.108147859573364
ag2
aI132
aa(lp270
F16.183193922042847
ag4
aI134
aa(lp271
F16.236862897872925
ag2
aI133
aa(lp272
F16.279717922210693
ag4
aI135
aa(lp273
F16.348119020462036
ag2
aI134
aa(lp274
F16.392810821533203
ag4
aI136
aa(lp275
F16.45661997795105
ag2
aI135
aa(lp276
F16.53773784637451
ag4
aI137
aa(lp277
F16.58031392097473
ag2
aI136
aa(lp278
F16.66691493988037
ag4
aI138
aa(lp279
F16.730870008468628
ag2
aI137
aa(lp280
F16.77318000793457
ag4
aI139
aa(lp281
F16.837641954421997
ag4
aI140
aa(lp282
F16.873612880706787
ag2
aI138
aa(lp283
F16.955615997314453
ag2
aI139
aa(lp284
F17.021147966384888
ag4
aI141
aa(lp285
F17.065226793289185
ag2
aI140
aa(lp286
F17.136215925216675
ag2
aI141
aa(lp287
F17.192691802978516
ag4
aI142
aa(lp288
F17.25729489326477
ag2
aI142
aa(lp289
F17.29734992980957
ag4
aI143
aa(lp290
F17.34012484550476
ag2
aI143
aa(lp291
F17.412222862243652
ag4
aI144
aa(lp292
F17.46009087562561
ag2
aI144
aa(lp293
F17.524722814559937
ag4
aI145
aa(lp294
F17.584105968475342
ag2
aI145
aa(lp295
F17.653618812561035
ag4
aI146
aa(lp296
F17.69257402420044
ag2
aI146
aa(lp297
F17.756042957305908
ag4
aI147
aa(lp298
F17.813710927963257
ag2
aI147
aa(lp299
F17.873744010925293
ag4
aI148
aa(lp300
F17.9340558052063
ag2
aI148
aa(lp301
F18.051203966140747
ag2
aI149
aa(lp302
F18.09398102760315
ag4
aI149
aa(lp303
F18.136889934539795
ag2
aI150
aa(lp304
F18.24334979057312
ag2
aI151
aa(lp305
F18.27203392982483
ag4
aI150
aa(lp306
F18.340794801712036
ag2
aI152
aa(lp307
F18.386595010757446
ag4
aI151
aa(lp308
F18.453848838806152
ag2
aI153
aa(lp309
F18.530953884124756
ag4
aI152
aa(lp310
F18.587749004364014
ag2
aI154
aa(lp311
F18.618022918701172
ag4
aI153
aa(lp312
F18.684759855270386
ag2
aI155
aa(lp313
F18.757823944091797
ag4
aI154
aa(lp314
F18.797693967819214
ag2
aI156
aa(lp315
F18.864902019500732
ag4
aI155
aa(lp316
F18.9245548248291
ag2
aI157
aa(lp317
F18.991918802261353
ag4
aI156
aa(lp318
F19.0377299785614
ag2
aI158
aa(lp319
F19.111994981765747
ag4
aI157
aa(lp320
F19.15494179725647
ag2
aI159
aa(lp321
F19.21613597869873
ag4
aI158
aa(lp322
F19.285810947418213
ag2
aI160
aa(lp323
F19.321724891662598
ag4
aI159
aa(lp324
F19.3850359916687
ag2
aI161
aa(lp325
F19.45665192604065
ag4
aI160
aa(lp326
F19.506455898284912
ag2
aI162
aa(lp327
F19.576562881469727
ag4
aI161
aa(lp328
F19.6199688911438
ag2
aI163
aa(lp329
F19.68011784553528
ag4
aI162
aa(lp330
F19.759618997573853
ag2
aI164
aa(lp331
F19.81320285797119
ag4
aI163
aa(lp332
F19.849557876586914
ag2
aI165
aa(lp333
F19.921759843826294
ag4
aI164
aa(lp334
F19.985057830810547
ag2
aI166
aa(lp335
F20.040912866592407
ag4
aI165
aa(lp336
F20.099540948867798
ag2
aI167
aa(lp337
F20.164320945739746
ag4
aI166
aa(lp338
F20.229870796203613
ag2
aI168
aa(lp339
F20.283795833587646
ag4
aI167
aa(lp340
F20.347213983535767
ag2
aI169
aa(lp341
F20.419511795043945
ag4
aI168
aa(lp342
F20.46339201927185
ag2
aI170
aa(lp343
F20.487660884857178
ag4
aI169
aa(lp344
F20.527727842330933
ag2
aI171
aa(lp345
F20.638057947158813
ag4
aI170
aa(lp346
F20.69976496696472
ag2
aI172
aa(lp347
F20.779876947402954
ag2
aI173
aa(lp348
F20.82363486289978
ag4
aI171
aa(lp349
F20.887744903564453
ag2
aI174
aa(lp350
F20.91370987892151
ag4
aI172
aa(lp351
F20.991861820220947
ag2
aI175
aa(lp352
F21.05183482170105
ag4
aI173
aa(lp353
F21.111748933792114
ag2
aI176
aa(lp354
F21.1694757938385
ag4
aI174
aa(lp355
F21.22804093360901
ag2
aI177
aa(lp356
F21.286662817001343
ag4
aI175
aa(lp357
F21.354936838150024
ag2
aI178
aa(lp358
F21.423385858535767
ag4
aI176
aa(lp359
F21.46402883529663
ag2
aI179
aa(lp360
F21.534129858016968
ag4
aI177
aa(lp361
F21.580623865127563
ag2
aI180
aa(lp362
F21.640232801437378
ag4
aI178
aa(lp363
F21.703545808792114
ag2
aI181
aa(lp364
F21.767865896224976
ag4
aI179
aa(lp365
F21.853816986083984
ag2
aI182
aa(lp366
F21.900293827056885
ag4
aI180
aa(lp367
F21.95033884048462
ag2
aI183
aa(lp368
F22.01491689682007
ag4
aI181
aa(lp369
F22.05782198905945
ag2
aI184
aa(lp370
F22.13297700881958
ag4
aI182
aa(lp371
F22.172253847122192
ag2
aI185
aa(lp372
F22.240474939346313
ag4
aI183
aa(lp373
F22.315866947174072
ag2
aI186
aa(lp374
F22.391880989074707
ag4
aI184
aa(lp375
F22.451031923294067
ag2
aI187
aa(lp376
F22.507505893707275
ag4
aI185
aa(lp377
F22.606989860534668
ag2
aI188
aa(lp378
F22.671658992767334
ag4
aI186
aa(lp379
F22.731215000152588
ag2
aI189
aa(lp380
F22.791054010391235
ag4
aI187
aa(lp381
F22.85128402709961
ag2
aI190
aa(lp382
F22.91092300415039
ag4
aI188
aa(lp383
F22.93546199798584
ag2
aI191
aa(lp384
F22.976351976394653
ag4
aI189
aa(lp385
F23.07581090927124
ag2
aI192
aa.