(lp0
(lp1
F0.00029087066650390625
aS'TCP'
p2
aI0
aa(lp3
F0.056268930435180664
aS'UDP'
p4
aI0
aa(lp5
F0.3425178527832031
ag2
aI1
aa(lp6
F0.5901820659637451
ag4
aI1
aa(lp7
F0.817051887512207
ag2
aI2
aa(lp8
F1.053421974182129
ag4
aI2
aa(lp9
F1.2846858501434326
ag2
aI3
aa(lp10
F1.528635025024414
ag4
aI3
aa(lp11
F1.760411024093628
ag2
aI4
aa(lp12
F1.994175910949707
ag4
aI4
aa(lp13
F2.2349720001220703
ag2
aI5
aa(lp14
F2.4737730026245117
ag4
aI5
aa(lp15
F2.716671943664551
ag2
aI6
aa(lp16
F2.952582836151123
ag4
aI6
aa(lp17
F3.1979918479919434
ag2
aI7
aa(lp18
F3.435502052307129
ag4
aI7
aa(lp19
F3.684217929840088
ag2
aI8
aa(lp20
F3.924453020095825
ag4
aI8
aa(lp21
F4.165168046951294
ag2
aI9
aa(lp22
F4.404494047164917
ag4
aI9
aa(lp23
F4.649669885635376
ag2
aI10
aa(lp24
F4.88755989074707
ag4
aI10
aa(lp25
F5.122529983520508
ag2
aI11
aa(lp26
F5.364927053451538
ag4
aI11
aa(lp27
F5.622987985610962
ag2
aI12
aa(lp28
F5.865438938140869
ag4
aI12
aa(lp29
F6.1018760204315186
ag2
aI13
aa(lp30
F6.349298000335693
ag4
aI13
aa(lp31
F6.584590911865234
ag2
aI14
aa(lp32
F6.829187870025635
ag4
aI14
aa(lp33
F7.070966958999634
ag2
aI15
aa(lp34
F7.312423944473267
ag4
aI15
aa(lp35
F7.547647953033447
ag2
aI16
aa(lp36
F7.783608913421631
ag4
aI16
aa(lp37
F8.029615879058838
ag2
aI17
aa(lp38
F8.262282848358154
ag4
aI17
aa(lp39
F8.501720905303955
ag2
aI18
aa(lp40
F8.73557186126709
ag4
aI18
aa(lp41
F8.974011898040771
ag2
aI19
aa(lp42
F9.210206031799316
ag4
aI19
aa(lp43
F9.446244955062866
ag2
aI20
aa(lp44
F9.704346895217896
ag4
aI20
aa(lp45
F9.953256845474243
ag2
aI21
aa(lp46
F10.20405101776123
ag4
aI21
aa(lp47
F10.442998886108398
ag2
aI22
aa(lp48
F10.67506194114685
ag4
aI22
aa(lp49
F10.909816980361938
ag2
aI23
aa(lp50
F11.142159938812256
ag4
aI23
aa(lp51
F11.379783868789673
ag2
aI24
aa(lp52
F11.619678974151611
ag4
aI24
aa(lp53
F11.855852842330933
ag2
aI25
aa(lp54
F12.095829010009766
ag4
aI25
aa(lp55
F12.339169979095459
ag2
aI26
aa(lp56
F12.580153942108154
ag4
aI26
aa(lp57
F12.829869031906128
ag2
aI27
aa(lp58
F13.064132928848267
ag4
aI27
aa(lp59
F13.301812887191772
ag2
aI28
aa(lp60
F13.532963991165161
ag4
aI28
aa(lp61
F13.769851922988892
ag2
aI29
aa(lp62
F13.99921989440918
ag4
aI29
aa(lp63
F14.239811897277832
ag2
aI30
aa(lp64
F14.484508991241455
ag4
aI30
aa(lp65
F14.721505880355835
ag2
aI31
aa(lp66
F14.958325862884521
ag4
aI31
aa(lp67
F15.20349383354187
ag2
aI32
aa(lp68
F15.443809032440186
ag4
aI32
aa(lp69
F15.684558868408203
ag2
aI33
aa(lp70
F15.914973020553589
ag4
aI33
aa(lp71
F16.148685932159424
ag2
aI34
aa(lp72
F16.3881938457489
ag4
aI34
aa(lp73
F16.62362790107727
ag2
aI35
aa(lp74
F16.856480836868286
ag4
aI35
aa(lp75
F17.09163498878479
ag2
aI36
aa(lp76
F17.333541870117188
ag4
aI36
aa(lp77
F17.57297706604004
ag2
aI37
aa(lp78
F17.81070303916931
ag4
aI37
aa(lp79
F18.054831981658936
ag2
aI38
aa(lp80
F18.2999210357666
ag4
aI38
aa(lp81
F18.538918018341064
ag2
aI39
aa(lp82
F18.774646043777466
ag4
aI39
aa(lp83
F19.00571084022522
ag2
aI40
aa(lp84
F19.242368936538696
ag4
aI40
aa(lp85
F19.48739790916443
ag2
aI41
aa(lp86
F19.722609996795654
ag4
aI41
aa(lp87
F19.95611000061035
ag2
aI42
aa(lp88
F20.204226970672607
ag4
aI42
aa(lp89
F20.445194959640503
ag2
aI43
aa(lp90
F20.68747591972351
ag4
aI43
aa(lp91
F20.928643941879272
ag2
aI44
aa(lp92
F21.166919946670532
ag4
aI44
aa(lp93
F21.408594846725464
ag2
aI45
aa(lp94
F21.652788877487183
ag4
aI45
aa(lp95
F21.892552852630615
ag2
aI46
aa(lp96
F22.135293006896973
ag4
aI46
aa(lp97
F22.37701988220215
ag2
aI47
aa(lp98
F22.620399951934814
ag4
aI47
aa(lp99
F22.859351873397827
ag2
aI48
aa(lp100
F23.095523834228516
ag4
aI48
aa(lp101
F23.34197998046875
ag2
aI49
aa(lp102
F23.583974838256836
ag4
aI49
aa(lp103
F23.818038940429688
ag2
aI50
aa(lp104
F24.05441904067993
ag4
aI50
aa(lp105
F24.284345865249634
ag2
aI51
aa(lp106
F24.522217988967896
ag4
aI51
aa(lp107
F24.759166955947876
ag2
aI52
aa(lp108
F24.98266887664795
ag4
aI52
aa(lp109
F25.225416898727417
ag2
aI53
aa(lp110
F25.451388835906982
ag4
aI53
aa(lp111
F25.686429023742676
ag2
aI54
aa(lp112
F25.910989999771118
ag4
aI54
aa(lp113
F26.14569401741028
ag2
aI55
aa(lp114
F26.375694036483765
ag4
aI55
aa(lp115
F26.61155605316162
ag2
aI56
aa(lp116
F26.844182014465332
ag4
aI56
aa(lp117
F27.079334020614624
ag2
aI57
aa(lp118
F27.313640832901
ag4
aI57
aa(lp119
F27.540027856826782
ag2
aI58
aa(lp120
F27.77100396156311
ag4
aI58
aa(lp121
F28.00328803062439
ag2
aI59
aa(lp122
F28.237871885299683
ag4
aI59
aa(lp123
F28.466044902801514
ag2
aI60
aa(lp124
F28.69967293739319
ag4
aI60
aa(lp125
F28.945191860198975
ag2
aI61
aa(lp126
F29.1856050491333
ag4
aI61
aa(lp127
F29.4195659160614
ag2
aI62
aa(lp128
F29.647572994232178
ag4
aI62
aa(lp129
F29.89069700241089
ag2
aI63
aa(lp130
F30.124207019805908
ag4
aI63
aa(lp131
F30.364407062530518
ag2
aI64
aa(lp132
F30.602229833602905
ag4
aI64
aa(lp133
F30.845478057861328
ag2
aI65
aa(lp134
F31.076422929763794
ag4
aI65
aa(lp135
F31.314332962036133
ag2
aI66
aa(lp136
F31.543555974960327
ag4
aI66
aa(lp137
F31.786876916885376
ag2
aI67
aa(lp138
F32.031611919403076
ag4
aI67
aa(lp139
F32.26727604866028
ag2
aI68
aa(lp140
F32.49957299232483
ag4
aI68
aa(lp141
F32.73723387718201
ag2
aI69
aa(lp142
F32.979599952697754
ag4
aI69
aa(lp143
F33.21629786491394
ag2
aI70
aa(lp144
F33.45201802253723
ag4
aI70
aa(lp145
F33.67400884628296
ag2
aI71
aa(lp146
F33.910393953323364
ag4
aI71
aa(lp147
F34.150903940200806
ag2
aI72
aa(lp148
F34.3867130279541
ag4
aI72
aa(lp149
F34.622406005859375
ag2
aI73
aa(lp150
F34.85065197944641
ag4
aI73
aa(lp151
F35.0838520526886
ag2
aI74
aa(lp152
F35.32603597640991
ag4
aI74
aa(lp153
F35.555598974227905
ag2
aI75
aa(lp154
F35.789371967315674
ag4
aI75
aa(lp155
F36.02369403839111
ag2
aI76
aa(lp156
F36.25787806510925
ag4
aI76
aa(lp157
F36.492192029953
ag2
aI77
aa(lp158
F36.81613087654114
ag4
aI77
aa(lp159
F37.05734300613403
ag2
aI78
aa(lp160
F37.30039191246033
ag4
aI78
aa(lp161
F37.54009389877319
ag2
aI79
aa(lp162
F37.77551889419556
ag4
aI79
aa(lp163
F38.01221799850464
ag2
aI80
aa(lp164
F38.25582003593445
ag4
aI80
aa(lp165
F38.495424032211304
ag2
aI81
aa(lp166
F38.79699683189392
ag4
aI81
aa(lp167
F39.041784048080444
ag2
aI82
aa(lp168
F39.27192783355713
ag4
aI82
aa(lp169
F39.55371689796448
ag2
aI83
aa(lp170
F39.85701298713684
ag4
aI83
aa(lp171
F40.10110592842102
ag2
aI84
aa(lp172
F40.3373818397522
ag4
aI84
aa(lp173
F40.5707528591156
ag2
aI85
aa(lp174
F40.8016300201416
ag4
aI85
aa(lp175
F41.03727602958679
ag2
aI86
aa(lp176
F41.2769570350647
ag4
aI86
aa(lp177
F41.5336480140686
ag2
aI87
aa(lp178
F41.78283500671387
ag4
aI87
aa(lp179
F42.04638385772705
ag2
aI88
aa(lp180
F42.286603927612305
ag4
aI88
aa(lp181
F42.53207993507385
ag2
aI89
aa(lp182
F42.77045297622681
ag4
aI89
aa(lp183
F43.01337790489197
ag2
aI90
aa(lp184
F43.239120960235596
ag4
aI90
aa(lp185
F43.48219704627991
ag2
aI91
aa(lp186
F43.71797704696655
ag4
aI91
aa(lp187
F43.94740891456604
ag2
aI92
aa(lp188
F44.18722486495972
ag4
aI92
aa(lp189
F44.43073892593384
ag2
aI93
aa(lp190
F44.666098833084106
ag4
aI93
aa(lp191
F44.899258852005005
ag2
aI94
aa(lp192
F45.137181997299194
ag4
aI94
aa(lp193
F45.383750915527344
ag2
aI95
aa(lp194
F45.61683487892151
ag4
aI95
aa(lp195
F45.85641002655029
ag2
aI96
aa(lp196
F46.09410905838013
ag4
aI96
aa(lp197
F46.336266040802
ag2
aI97
aa(lp198
F46.57166385650635
ag4
aI97
aa(lp199
F46.805773973464966
ag2
aI98
aa(lp200
F47.047278881073
ag4
aI98
aa(lp201
F47.29609489440918
ag2
aI99
aa(lp202
F47.53418803215027
ag4
aI99
aa(lp203
F47.78071093559265
ag2
aI100
aa(lp204
F48.01553201675415
ag4
aI100
aa(lp205
F48.25117087364197
ag2
aI101
aa(lp206
F48.498297929763794
ag4
aI101
aa(lp207
F48.740646839141846
ag2
aI102
aa(lp208
F48.97507905960083
ag4
aI102
aa(lp209
F49.21475696563721
ag2
aI103
aa(lp210
F49.45597696304321
ag4
aI103
aa(lp211
F49.691139936447144
ag2
aI104
aa(lp212
F49.92400598526001
ag4
aI104
aa(lp213
F50.16395092010498
ag2
aI105
aa(lp214
F50.40038204193115
ag4
aI105
aa(lp215
F50.63619685173035
ag2
aI106
aa(lp216
F50.864441871643066
ag4
aI106
aa(lp217
F51.100669860839844
ag2
aI107
aa(lp218
F51.344573974609375
ag4
aI107
aa(lp219
F51.58250284194946
ag2
aI108
aa(lp220
F51.82503890991211
ag4
aI108
aa(lp221
F52.064414978027344
ag2
aI109
aa(lp222
F52.304945945739746
ag4
aI109
aa(lp223
F52.54220485687256
ag2
aI110
aa(lp224
F52.785900831222534
ag4
aI110
aa(lp225
F53.02979898452759
ag2
aI111
aa(lp226
F53.26753091812134
ag4
aI111
aa(lp227
F53.50297498703003
ag2
aI112
aa(lp228
F53.74096083641052
ag4
aI112
aa(lp229
F53.97865390777588
ag2
aI113
aa(lp230
F54.220123052597046
ag4
aI113
aa(lp231
F54.4540069103241
ag2
aI114
aa(lp232
F54.68736696243286
ag4
aI114
aa(lp233
F54.9206268787384
ag2
aI115
aa(lp234
F55.16344690322876
ag4
aI115
aa(lp235
F55.40025305747986
ag2
aI116
aa(lp236
F55.64019298553467
ag4
aI116
aa(lp237
F55.877991914749146
ag2
aI117
aa(lp238
F56.11472296714783
ag4
aI117
aa(lp239
F56.353729009628296
ag2
aI118
aa(lp240
F56.59625506401062
ag4
aI118
aa(lp241
F56.83138585090637
ag2
aI119
aa(lp242
F57.068766832351685
ag4
aI119
aa(lp243
F57.306376934051514
ag2
aI120
aa(lp244
F57.54853105545044
ag4
aI120
aa(lp245
F57.7880539894104
ag2
aI121
aa(lp246
F58.02760601043701
ag4
aI121
aa(lp247
F58.25950598716736
ag2
aI122
aa(lp248
F58.512852907180786
ag4
aI122
aa(lp249
F58.7606840133667
ag2
aI123
aa(lp250
F59.01239895820618
ag4
aI123
aa(lp251
F59.25353503227234
ag2
aI124
aa(lp252
F59.494555950164795
ag4
aI124
aa(lp253
F59.734261989593506
ag2
aI125
aa(lp254
F59.96998596191406
ag4
aI125
aa(lp255
F60.200474977493286
ag2
aI126
aa(lp256
F60.43531084060669
ag4
aI126
aa(lp257
F60.686939001083374
ag2
aI127
aa(lp258
F60.964118003845215
ag4
aI127
aa(lp259
F61.18336892127991
ag2
aI128
aa(lp260
F61.41726994514465
ag4
aI128
aa(lp261
F61.644585847854614
ag2
aI129
aa(lp262
F61.873981952667236
ag4
aI129
aa(lp263
F62.093181848526
ag2
aI130
aa(lp264
F62.31704497337341
ag4
aI130
aa(lp265
F62.53918099403381
ag2
aI131
aa(lp266
F62.773988008499146
ag4
aI131
aa(lp267
F63.006474018096924
ag2
aI132
aa(lp268
F63.244406938552856
ag4
aI132
aa(lp269
F63.472301959991455
ag2
aI133
aa(lp270
F63.7245569229126
ag4
aI133
aa(lp271
F63.95948886871338
ag2
aI134
aa(lp272
F64.19249701499939
ag4
aI134
aa(lp273
F64.43226504325867
ag2
aI135
aa(lp274
F64.6676619052887
ag4
aI135
aa(lp275
F64.91881799697876
ag2
aI136
aa(lp276
F65.14565205574036
ag4
aI136
aa(lp277
F65.37584090232849
ag2
aI137
aa(lp278
F65.6054630279541
ag4
aI137
aa(lp279
F65.83667588233948
ag2
aI138
aa(lp280
F66.07404685020447
ag4
aI138
aa(lp281
F66.30340099334717
ag2
aI139
aa(lp282
F66.53235793113708
ag4
aI139
aa(lp283
F66.76834487915039
ag2
aI140
aa(lp284
F67.01176404953003
ag4
aI140
aa(lp285
F67.24870705604553
ag2
aI141
aa(lp286
F67.4859709739685
ag4
aI141
aa(lp287
F67.72358584403992
ag2
aI142
aa(lp288
F67.96036195755005
ag4
aI142
aa(lp289
F68.19925284385681
ag2
aI143
aa(lp290
F68.43304085731506
ag4
aI143
aa(lp291
F68.67139196395874
ag2
aI144
aa(lp292
F68.90662789344788
ag4
aI144
aa(lp293
F69.14508891105652
ag2
aI145
aa(lp294
F69.3828649520874
ag4
aI145
aa(lp295
F69.61857604980469
ag2
aI146
aa(lp296
F69.85349297523499
ag4
aI146
aa(lp297
F70.10166788101196
ag2
aI147
aa(lp298
F70.34076285362244
ag4
aI147
aa(lp299
F70.58575391769409
ag2
aI148
aa(lp300
F70.82526588439941
ag4
aI148
aa(lp301
F71.06725287437439
ag2
aI149
aa(lp302
F71.31451988220215
ag4
aI149
aa(lp303
F71.54215598106384
ag2
aI150
aa(lp304
F71.7769558429718
ag4
aI150
aa(lp305
F72.015380859375
ag2
aI151
aa(lp306
F72.24604392051697
ag4
aI151
aa(lp307
F72.48628783226013
ag2
aI152
aa(lp308
F72.7231080532074
ag4
aI152
aa(lp309
F72.95615196228027
ag2
aI153
aa(lp310
F73.19503784179688
ag4
aI153
aa(lp311
F73.44170904159546
ag2
aI154
aa(lp312
F73.67752695083618
ag4
aI154
aa(lp313
F73.91843795776367
ag2
aI155
aa(lp314
F74.15325999259949
ag4
aI155
aa(lp315
F74.40112590789795
ag2
aI156
aa(lp316
F74.64253997802734
ag4
aI156
aa(lp317
F74.888258934021
ag2
aI157
aa(lp318
F75.12680888175964
ag4
aI157
aa(lp319
F75.3759560585022
ag2
aI158
aa(lp320
F75.61199593544006
ag4
aI158
aa(lp321
F75.97539186477661
ag2
aI159
aa(lp322
F76.22363591194153
ag4
aI159
aa(lp323
F76.45797991752625
ag2
aI160
aa(lp324
F76.69933700561523
ag4
aI160
aa(lp325
F76.92494797706604
ag2
aI161
aa(lp326
F77.15291595458984
ag4
aI161
aa(lp327
F77.3826699256897
ag2
aI162
aa(lp328
F77.61957883834839
ag4
aI162
aa(lp329
F77.86175894737244
ag2
aI163
aa(lp330
F78.10391497612
ag4
aI163
aa(lp331
F78.34386992454529
ag2
aI164
aa(lp332
F78.5838840007782
ag4
aI164
aa(lp333
F78.83003091812134
ag2
aI165
aa(lp334
F79.06677889823914
ag4
aI165
aa(lp335
F79.31194496154785
ag2
aI166
aa(lp336
F79.54662299156189
ag4
aI166
aa(lp337
F79.78050303459167
ag2
aI167
aa(lp338
F80.00407886505127
ag4
aI167
aa(lp339
F80.23724889755249
ag2
aI168
aa(lp340
F80.47550201416016
ag4
aI168
aa(lp341
F80.71162986755371
ag2
aI169
aa(lp342
F80.94495105743408
ag4
aI169
aa(lp343
F81.18341183662415
ag2
aI170
aa(lp344
F81.4279899597168
ag4
aI170
aa(lp345
F81.67705488204956
ag2
aI171
aa(lp346
F81.92267489433289
ag4
aI171
aa(lp347
F82.14814400672913
ag2
aI172
aa(lp348
F82.3798189163208
ag4
aI172
aa(lp349
F82.61137700080872
ag2
aI173
aa(lp350
F82.84443497657776
ag4
aI173
aa(lp351
F83.08042597770691
ag2
aI174
aa(lp352
F83.31656384468079
ag4
aI174
aa(lp353
F83.55964493751526
ag2
aI175
aa(lp354
F83.80292987823486
ag4
aI175
aa(lp355
F84.0453588962555
ag2
aI176
aa(lp356
F84.28608584403992
ag4
aI176
aa(lp357
F84.5400390625
ag2
aI177
aa(lp358
F84.7839879989624
ag4
aI177
aa(lp359
F85.01971483230591
ag2
aI178
aa(lp360
F85.25193786621094
ag4
aI178
aa(lp361
F85.48090696334839
ag2
aI179
aa(lp362
F85.71483492851257
ag4
aI179
aa(lp363
F85.95258903503418
ag2
aI180
aa(lp364
F86.18410992622375
ag4
aI180
aa(lp365
F86.41545796394348
ag2
aI181
aa(lp366
F86.64756298065186
ag4
aI181
aa(lp367
F86.8797378540039
ag2
aI182
aa(lp368
F87.11521887779236
ag4
aI182
aa(lp369
F87.3547248840332
ag2
aI183
aa(lp370
F87.59148097038269
ag4
aI183
aa(lp371
F87.82806897163391
ag2
aI184
aa(lp372
F88.06403303146362
ag4
aI184
aa(lp373
F88.30366802215576
ag2
aI185
aa(lp374
F88.5354118347168
ag4
aI185
aa(lp375
F88.77391505241394
ag2
aI186
aa(lp376
F89.00322484970093
ag4
aI186
aa(lp377
F89.25110983848572
ag2
aI187
aa(lp378
F89.4875738620758
ag4
aI187
aa(lp379
F89.72551202774048
ag2
aI188
aa(lp380
F89.96792483329773
ag4
aI188
aa(lp381
F90.2151288986206
ag2
aI189
aa(lp382
F90.45019483566284
ag4
aI189
aa(lp383
F90.68789005279541
ag2
aI190
aa(lp384
F90.91699886322021
ag4
aI190
aa(lp385
F91.15759801864624
ag2
aI191
aa(lp386
F91.39614200592041
ag4
aI191
aa(lp387
F91.63249683380127
ag2
aI192
aa(lp388
F91.87051796913147
ag4
aI192
aa(lp389
F92.09895992279053
ag2
aI193
aa(lp390
F92.34005904197693
ag4
aI193
aa(lp391
F92.56729197502136
ag2
aI194
aa(lp392
F92.7962908744812
ag4
aI194
aa(lp393
F93.03255701065063
ag2
aI195
aa(lp394
F93.26263785362244
ag4
aI195
aa(lp395
F93.50858402252197
ag2
aI196
aa(lp396
F93.74896383285522
ag4
aI196
aa(lp397
F93.98743987083435
ag2
aI197
aa(lp398
F94.22514986991882
ag4
aI197
aa(lp399
F94.45825290679932
ag2
aI198
aa(lp400
F94.69983696937561
ag4
aI198
aa(lp401
F94.95320296287537
ag2
aI199
aa(lp402
F95.2274580001831
ag4
aI199
aa(lp403
F95.46627688407898
ag2
aI200
aa.