(lp0
(lp1
F0.00010609626770019531
aS'TCP'
p2
aI0
aa(lp3
F0.05142498016357422
aS'UDP'
p4
aI0
aa(lp5
F0.10013508796691895
ag2
aI1
aa(lp6
F0.14788293838500977
ag4
aI1
aa(lp7
F0.2077341079711914
ag2
aI2
aa(lp8
F0.29149603843688965
ag4
aI2
aa(lp9
F0.4907500743865967
ag4
aI3
aa(lp10
F0.5207459926605225
ag4
aI4
aa(lp11
F0.6213479042053223
ag4
aI5
aa(lp12
F0.6838600635528564
ag4
aI6
aa(lp13
F0.748945951461792
ag2
aI3
aa(lp14
F0.8131990432739258
ag2
aI4
aa(lp15
F0.9168848991394043
ag4
aI7
aa(lp16
F0.9813659191131592
ag2
aI5
aa(lp17
F1.0483601093292236
ag4
aI8
aa(lp18
F1.1568639278411865
ag4
aI9
aa(lp19
F1.2398979663848877
ag4
aI10
aa(lp20
F1.2949800491333008
ag4
aI11
aa(lp21
F1.3438661098480225
ag2
aI6
aa(lp22
F1.4517579078674316
ag2
aI7
aa(lp23
F1.5409770011901855
ag2
aI8
aa(lp24
F1.5918769836425781
ag4
aI12
aa(lp25
F1.6420960426330566
ag2
aI9
aa(lp26
F1.7459440231323242
ag2
aI10
aa(lp27
F1.8173880577087402
ag2
aI11
aa(lp28
F1.9279670715332031
ag4
aI13
aa(lp29
F2.0067059993743896
ag2
aI12
aa(lp30
F2.0687930583953857
ag2
aI13
aa(lp31
F2.1236000061035156
ag4
aI14
aa(lp32
F2.185931921005249
ag2
aI14
aa(lp33
F2.2256550788879395
ag4
aI15
aa(lp34
F2.2939579486846924
ag2
aI15
aa(lp35
F2.336819887161255
ag4
aI16
aa(lp36
F2.4106600284576416
ag2
aI16
aa(lp37
F2.4595890045166016
ag2
aI17
aa(lp38
F2.5362539291381836
ag4
aI17
aa(lp39
F2.5849180221557617
ag2
aI18
aa(lp40
F2.6870229244232178
ag4
aI18
aa(lp41
F2.752882957458496
ag2
aI19
aa(lp42
F2.8325209617614746
ag2
aI20
aa(lp43
F2.8766798973083496
ag4
aI19
aa(lp44
F2.9362380504608154
ag2
aI21
aa(lp45
F3.037477970123291
ag4
aI20
aa(lp46
F3.1008970737457275
ag2
aI22
aa(lp47
F3.176671028137207
ag4
aI21
aa(lp48
F3.21480393409729
ag2
aI23
aa(lp49
F3.279911994934082
ag4
aI22
aa(lp50
F3.346721887588501
ag2
aI24
aa(lp51
F3.448678970336914
ag4
aI23
aa(lp52
F3.512274980545044
ag2
aI25
aa(lp53
F3.581900119781494
ag4
aI24
aa(lp54
F3.6851940155029297
ag2
aI26
aa(lp55
F3.756756067276001
ag2
aI27
aa(lp56
F3.820228099822998
ag4
aI25
aa(lp57
F3.9215381145477295
ag2
aI28
aa(lp58
F4.00493311882019
ag4
aI26
aa(lp59
F4.046968936920166
ag2
aI29
aa(lp60
F4.107018947601318
ag4
aI27
aa(lp61
F4.227461099624634
ag4
aI28
aa(lp62
F4.323961973190308
ag4
aI29
aa(lp63
F4.367523908615112
ag2
aI30
aa(lp64
F4.4350409507751465
ag2
aI31
aa(lp65
F4.538755893707275
ag2
aI32
aa(lp66
F4.5928449630737305
ag4
aI30
aa(lp67
F4.695872068405151
ag2
aI33
aa(lp68
F4.788616895675659
ag2
aI34
aa(lp69
F4.871125936508179
ag4
aI31
aa(lp70
F4.955586910247803
ag4
aI32
aa(lp71
F5.0103600025177
ag2
aI35
aa(lp72
F5.10855507850647
ag2
aI36
aa(lp73
F5.186925888061523
ag2
aI37
aa(lp74
F5.289942979812622
ag4
aI33
aa(lp75
F5.3587470054626465
ag2
aI38
aa(lp76
F5.472254991531372
ag4
aI34
aa(lp77
F5.563754081726074
ag4
aI35
aa(lp78
F5.665041923522949
ag2
aI39
aa(lp79
F5.740288019180298
ag2
aI40
aa(lp80
F5.796035051345825
ag4
aI36
aa(lp81
F5.848280906677246
ag2
aI41
aa(lp82
F5.947629928588867
ag4
aI37
aa(lp83
F6.020314931869507
ag2
aI42
aa(lp84
F6.083069086074829
ag4
aI38
aa(lp85
F6.1911749839782715
ag2
aI43
aa(lp86
F6.260117053985596
ag4
aI39
aa(lp87
F6.308995962142944
ag2
aI44
aa(lp88
F6.397816896438599
ag4
aI40
aa(lp89
F6.477365970611572
ag2
aI45
aa(lp90
F6.552485942840576
ag2
aI46
aa(lp91
F6.615864992141724
ag4
aI41
aa(lp92
F6.6688690185546875
ag2
aI47
aa(lp93
F6.771800994873047
ag4
aI42
aa(lp94
F6.831079959869385
ag2
aI48
aa(lp95
F6.895419120788574
ag4
aI43
aa(lp96
F6.96417498588562
ag2
aI49
aa(lp97
F7.0659050941467285
ag4
aI44
aa(lp98
F7.135993003845215
ag2
aI50
aa(lp99
F7.241024017333984
ag2
aI51
aa(lp100
F7.299376010894775
ag4
aI45
aa(lp101
F7.364089012145996
ag2
aI52
aa(lp102
F7.432353973388672
ag4
aI46
aa(lp103
F7.475796937942505
ag2
aI53
aa(lp104
F7.53312611579895
ag4
aI47
aa(lp105
F7.604254961013794
ag2
aI54
aa(lp106
F7.663954973220825
ag4
aI48
aa(lp107
F7.729373931884766
ag2
aI55
aa(lp108
F7.772188901901245
ag4
aI49
aa(lp109
F7.832763910293579
ag2
aI56
aa(lp110
F7.893099069595337
ag4
aI50
aa(lp111
F7.972312927246094
ag4
aI51
aa(lp112
F8.018157958984375
ag2
aI57
aa(lp113
F8.08144998550415
ag4
aI52
aa(lp114
F8.201668977737427
ag2
aI58
aa(lp115
F8.243204116821289
ag4
aI53
aa(lp116
F8.311023950576782
ag4
aI54
aa(lp117
F8.427261114120483
ag4
aI55
aa(lp118
F8.490917921066284
ag4
aI56
aa(lp119
F8.555376052856445
ag2
aI59
aa(lp120
F8.655977964401245
ag4
aI57
aa(lp121
F8.737890005111694
ag2
aI60
aa(lp122
F8.783190965652466
ag4
aI58
aa(lp123
F8.889709949493408
ag4
aI59
aa(lp124
F8.954458951950073
ag2
aI61
aa(lp125
F9.026752948760986
ag4
aI60
aa(lp126
F9.126343011856079
ag2
aI62
aa(lp127
F9.194506883621216
ag4
aI61
aa(lp128
F9.263912916183472
ag2
aI63
aa(lp129
F9.329559087753296
ag4
aI62
aa(lp130
F9.384336948394775
ag2
aI64
aa(lp131
F9.425302982330322
ag2
aI65
aa(lp132
F9.505331039428711
ag2
aI66
aa(lp133
F9.548090934753418
ag2
aI67
aa(lp134
F9.630232095718384
ag2
aI68
aa(lp135
F9.695585012435913
ag2
aI69
aa(lp136
F9.731921911239624
ag2
aI70
aa(lp137
F9.8331880569458
ag4
aI63
aa(lp138
F9.891891956329346
ag4
aI64
aa(lp139
F9.955892086029053
ag2
aI71
aa(lp140
F10.028724908828735
ag4
aI65
aa(lp141
F10.07813310623169
ag2
aI72
aa(lp142
F10.13981008529663
ag4
aI66
aa(lp143
F10.242619037628174
ag2
aI73
aa(lp144
F10.301136016845703
ag2
aI74
aa(lp145
F10.37133002281189
ag4
aI67
aa(lp146
F10.427634954452515
ag2
aI75
aa(lp147
F10.49150800704956
ag4
aI68
aa(lp148
F10.511473894119263
ag2
aI76
aa(lp149
F10.550786018371582
ag4
aI69
aa(lp150
F10.61834192276001
ag2
aI77
aa(lp151
F10.662537097930908
ag4
aI70
aa(lp152
F10.737457036972046
ag2
aI78
aa(lp153
F10.789076089859009
ag4
aI71
aa(lp154
F10.85200810432434
ag2
aI79
aa(lp155
F10.948703050613403
ag4
aI72
aa(lp156
F11.018017053604126
ag4
aI73
aa(lp157
F11.084739923477173
ag2
aI80
aa(lp158
F11.131659984588623
ag4
aI74
aa(lp159
F11.243419885635376
ag4
aI75
aa(lp160
F11.328208923339844
ag4
aI76
aa(lp161
F11.4182710647583
ag4
aI77
aa(lp162
F11.448271036148071
ag2
aI81
aa(lp163
F11.507397890090942
ag4
aI78
aa(lp164
F11.629982948303223
ag4
aI79
aa(lp165
F11.706171989440918
ag2
aI82
aa(lp166
F11.786659955978394
ag4
aI80
aa(lp167
F11.84575891494751
ag2
aI83
aa(lp168
F11.920011043548584
ag4
aI81
aa(lp169
F11.978666067123413
ag2
aI84
aa(lp170
F12.035900115966797
ag4
aI82
aa(lp171
F12.091754913330078
ag2
aI85
aa(lp172
F12.19455099105835
ag4
aI83
aa(lp173
F12.253881931304932
ag2
aI86
aa(lp174
F12.319207906723022
ag4
aI84
aa(lp175
F12.375185012817383
ag2
aI87
aa(lp176
F12.457525968551636
ag4
aI85
aa(lp177
F12.492060899734497
ag2
aI88
aa(lp178
F12.549904108047485
ag4
aI86
aa(lp179
F12.615539073944092
ag2
aI89
aa(lp180
F12.704838991165161
ag4
aI87
aa(lp181
F12.743935108184814
ag2
aI90
aa(lp182
F12.793468952178955
ag4
aI88
aa(lp183
F12.87651801109314
ag2
aI91
aa(lp184
F12.915848016738892
ag4
aI89
aa(lp185
F12.993969917297363
ag2
aI92
aa(lp186
F13.048511981964111
ag4
aI90
aa(lp187
F13.071845054626465
ag2
aI93
aa(lp188
F13.174164056777954
ag4
aI91
aa(lp189
F13.234124898910522
ag2
aI94
aa(lp190
F13.2934091091156
ag4
aI92
aa(lp191
F13.359666109085083
ag2
aI95
aa(lp192
F13.43494200706482
ag4
aI93
aa(lp193
F13.477962017059326
ag2
aI96
aa(lp194
F13.532635927200317
ag4
aI94
aa(lp195
F13.587280035018921
ag2
aI97
aa(lp196
F13.64778208732605
ag4
aI95
aa(lp197
F13.71406602859497
ag2
aI98
aa(lp198
F13.76752495765686
ag4
aI96
aa(lp199
F13.832420110702515
ag2
aI99
aa(lp200
F13.917323112487793
ag4
aI97
aa(lp201
F13.971920013427734
ag2
aI100
aa(lp202
F14.059638977050781
ag4
aI98
aa(lp203
F14.133485078811646
ag2
aI101
aa(lp204
F14.180284976959229
ag4
aI99
aa(lp205
F14.250572919845581
ag2
aI102
aa(lp206
F14.288389921188354
ag4
aI100
aa(lp207
F14.358414888381958
ag2
aI103
aa(lp208
F14.433165073394775
ag4
aI101
aa(lp209
F14.468154907226562
ag2
aI104
aa(lp210
F14.529835939407349
ag4
aI102
aa(lp211
F14.594238042831421
ag2
aI105
aa(lp212
F14.659032106399536
ag4
aI103
aa(lp213
F14.702968120574951
ag2
aI106
aa(lp214
F14.765881061553955
ag4
aI104
aa(lp215
F14.851013898849487
ag2
aI107
aa(lp216
F14.884666919708252
ag4
aI105
aa(lp217
F14.943634986877441
ag2
aI108
aa(lp218
F15.023796081542969
ag4
aI106
aa(lp219
F15.059206008911133
ag2
aI109
aa(lp220
F15.083245038986206
ag4
aI107
aa(lp221
F15.123290061950684
ag2
aI110
aa(lp222
F15.22498893737793
ag4
aI108
aa(lp223
F15.285212993621826
ag2
aI111
aa(lp224
F15.354883909225464
ag4
aI109
aa(lp225
F15.419281005859375
ag2
aI112
aa(lp226
F15.485873937606812
ag4
aI110
aa(lp227
F15.550198078155518
ag2
aI113
aa(lp228
F15.58716106414795
ag4
aI111
aa(lp229
F15.64802598953247
ag2
aI114
aa(lp230
F15.711219072341919
ag4
aI112
aa(lp231
F15.790546894073486
ag2
aI115
aa(lp232
F15.83743405342102
ag4
aI113
aa(lp233
F15.880337953567505
ag2
aI116
aa(lp234
F15.947427034378052
ag4
aI114
aa(lp235
F16.012128114700317
ag2
aI117
aa(lp236
F16.085280895233154
ag4
aI115
aa(lp237
F16.12555193901062
ag2
aI118
aa(lp238
F16.20587706565857
ag4
aI116
aa(lp239
F16.27033805847168
ag2
aI119
aa(lp240
F16.327066898345947
ag2
aI120
aa(lp241
F16.400255918502808
ag4
aI117
aa(lp242
F16.48439908027649
ag4
aI118
aa(lp243
F16.581254959106445
ag4
aI119
aa(lp244
F16.646356105804443
ag2
aI121
aa(lp245
F16.70050811767578
ag2
aI122
aa(lp246
F16.782500982284546
ag2
aI123
aa(lp247
F16.844391107559204
ag2
aI124
aa(lp248
F16.92548894882202
ag2
aI125
aa(lp249
F16.957794904708862
ag4
aI120
aa(lp250
F17.03242802619934
ag2
aI126
aa(lp251
F17.087116956710815
ag4
aI121
aa(lp252
F17.19019103050232
ag2
aI127
aa(lp253
F17.26885199546814
ag4
aI122
aa(lp254
F17.30775499343872
ag2
aI128
aa(lp255
F17.366776943206787
ag4
aI123
aa(lp256
F17.439491987228394
ag2
aI129
aa(lp257
F17.46167302131653
ag4
aI124
aa(lp258
F17.542906045913696
ag2
aI130
aa(lp259
F17.61215901374817
ag4
aI125
aa(lp260
F17.671833992004395
ag2
aI131
aa(lp261
F17.741518020629883
ag4
aI126
aa(lp262
F17.795069932937622
ag2
aI132
aa(lp263
F17.911422967910767
ag4
aI127
aa(lp264
F17.954874992370605
ag2
aI133
aa(lp265
F18.038832902908325
ag4
aI128
aa(lp266
F18.078941106796265
ag2
aI134
aa(lp267
F18.159069061279297
ag4
aI129
aa(lp268
F18.199240922927856
ag2
aI135
aa(lp269
F18.256414890289307
ag4
aI130
aa(lp270
F18.31517195701599
ag2
aI136
aa(lp271
F18.374835968017578
ag4
aI131
aa(lp272
F18.43929100036621
ag2
aI137
aa(lp273
F18.50368309020996
ag4
aI132
aa(lp274
F18.55784296989441
ag2
aI138
aa(lp275
F18.61164689064026
ag4
aI133
aa(lp276
F18.71377205848694
ag2
aI139
aa(lp277
F18.783618927001953
ag4
aI134
aa(lp278
F18.9010169506073
ag4
aI135
aa(lp279
F18.987903118133545
ag4
aI136
aa(lp280
F19.03178095817566
ag2
aI140
aa(lp281
F19.088489055633545
ag4
aI137
aa(lp282
F19.18112301826477
ag4
aI138
aa(lp283
F19.270381927490234
ag4
aI139
aa(lp284
F19.405746936798096
ag4
aI140
aa(lp285
F19.470202922821045
ag2
aI141
aa(lp286
F19.53252911567688
ag4
aI141
aa(lp287
F19.56200098991394
ag2
aI142
aa(lp288
F19.653641939163208
ag4
aI142
aa(lp289
F19.707324028015137
ag2
aI143
aa(lp290
F19.81458806991577
ag2
aI144
aa(lp291
F19.9007248878479
ag2
aI145
aa(lp292
F19.999197959899902
ag2
aI146
aa(lp293
F20.05496597290039
ag2
aI147
aa(lp294
F20.10125708580017
ag4
aI143
aa(lp295
F20.17952299118042
ag4
aI144
aa(lp296
F20.242398977279663
ag4
aI145
aa(lp297
F20.3734290599823
ag4
aI146
aa(lp298
F20.45241689682007
ag2
aI148
aa(lp299
F20.55537700653076
ag2
aI149
aa(lp300
F20.620590925216675
ag4
aI147
aa(lp301
F20.683979034423828
ag4
aI148
aa(lp302
F20.77088189125061
ag4
aI149
aa(lp303
F20.836241960525513
ag2
aI150
aa(lp304
F20.86402201652527
ag4
aI150
aa(lp305
F20.93659996986389
ag2
aI151
aa(lp306
F20.986119031906128
ag4
aI151
aa(lp307
F21.089032888412476
ag2
aI152
aa(lp308
F21.17747688293457
ag2
aI153
aa(lp309
F21.215343952178955
ag4
aI152
aa(lp310
F21.285363912582397
ag2
aI154
aa(lp311
F21.32850408554077
ag4
aI153
aa(lp312
F21.402708053588867
ag2
aI155
aa(lp313
F21.468810081481934
ag4
aI154
aa(lp314
F21.521482944488525
ag2
aI156
aa(lp315
F21.579665899276733
ag4
aI155
aa(lp316
F21.640082120895386
ag2
aI157
aa(lp317
F21.7585129737854
ag4
aI156
aa(lp318
F21.85463309288025
ag4
aI157
aa(lp319
F21.887789964675903
ag2
aI158
aa(lp320
F22.05613899230957
ag4
aI158
aa(lp321
F22.1445529460907
ag4
aI159
aa(lp322
F22.22988510131836
ag2
aI159
aa(lp323
F22.29883909225464
ag4
aI160
aa(lp324
F22.417025089263916
ag4
aI161
aa(lp325
F22.4656400680542
ag2
aI160
aa(lp326
F22.63898992538452
ag2
aI161
aa(lp327
F22.714662075042725
ag4
aI162
aa(lp328
F22.77876305580139
ag2
aI162
aa(lp329
F22.847804069519043
ag4
aI163
aa(lp330
F22.89170503616333
ag2
aI163
aa(lp331
F22.961183071136475
ag4
aI164
aa(lp332
F23.00226402282715
ag2
aI164
aa(lp333
F23.07982897758484
ag4
aI165
aa(lp334
F23.1296648979187
ag2
aI165
aa(lp335
F23.208182096481323
ag4
aI166
aa(lp336
F23.239936113357544
ag2
aI166
aa(lp337
F23.326711893081665
ag4
aI167
aa(lp338
F23.4040629863739
ag2
aI167
aa(lp339
F23.465768098831177
ag4
aI168
aa(lp340
F23.5487699508667
ag2
aI168
aa(lp341
F23.659178972244263
ag4
aI169
aa(lp342
F23.724159955978394
ag4
aI170
aa(lp343
F23.798799991607666
ag2
aI169
aa(lp344
F23.876912117004395
ag4
aI171
aa(lp345
F23.922394037246704
ag2
aI170
aa(lp346
F24.072314977645874
ag4
aI172
aa(lp347
F24.142949104309082
ag2
aI171
aa(lp348
F24.2461519241333
ag4
aI173
aa(lp349
F24.30736804008484
ag2
aI172
aa(lp350
F24.364006996154785
ag4
aI174
aa(lp351
F24.424065113067627
ag2
aI173
aa(lp352
F24.485181093215942
ag4
aI175
aa(lp353
F24.563170909881592
ag4
aI176
aa(lp354
F24.60310411453247
ag2
aI174
aa(lp355
F24.689209938049316
ag4
aI177
aa(lp356
F24.723335027694702
ag2
aI175
aa(lp357
F24.78592300415039
ag4
aI178
aa(lp358
F24.861309051513672
ag2
aI176
aa.