(lp0
(lp1
F0.00067901611328125
aS'TCP'
p2
aI0
aa(lp3
F0.05622696876525879
aS'UDP'
p4
aI0
aa(lp5
F0.12469100952148438
ag2
aI1
aa(lp6
F0.17248010635375977
ag4
aI1
aa(lp7
F0.30814313888549805
ag2
aI2
aa(lp8
F0.37635111808776855
ag4
aI2
aa(lp9
F0.48529601097106934
ag2
aI3
aa(lp10
F0.6324801445007324
ag4
aI3
aa(lp11
F0.7247660160064697
ag2
aI4
aa(lp12
F0.8129730224609375
ag4
aI4
aa(lp13
F0.8801090717315674
ag2
aI5
aa(lp14
F0.9928381443023682
ag4
aI5
aa(lp15
F1.1392090320587158
ag2
aI6
aa(lp16
F1.2004201412200928
ag4
aI6
aa(lp17
F1.2483351230621338
ag2
aI7
aa(lp18
F1.3352770805358887
ag2
aI8
aa(lp19
F1.38828706741333
ag4
aI7
aa(lp20
F1.4255781173706055
ag2
aI9
aa(lp21
F1.500380039215088
ag4
aI8
aa(lp22
F1.538135051727295
ag2
aI10
aa(lp23
F1.614469051361084
ag4
aI9
aa(lp24
F1.6789450645446777
ag2
aI11
aa(lp25
F1.728809118270874
ag4
aI10
aa(lp26
F1.7766270637512207
ag2
aI12
aa(lp27
F1.845902919769287
ag4
aI11
aa(lp28
F1.8952410221099854
ag2
aI13
aa(lp29
F1.9692699909210205
ag4
aI12
aa(lp30
F2.0297460556030273
ag4
aI13
aa(lp31
F2.077561140060425
ag4
aI14
aa(lp32
F2.1230111122131348
ag4
aI15
aa(lp33
F2.1953020095825195
ag2
aI14
aa(lp34
F2.296463966369629
ag2
aI15
aa(lp35
F2.3675169944763184
ag2
aI16
aa(lp36
F2.4714510440826416
ag4
aI16
aa(lp37
F2.548464059829712
ag2
aI17
aa(lp38
F2.593719959259033
ag2
aI18
aa(lp39
F2.66619610786438
ag4
aI17
aa(lp40
F2.721269130706787
ag2
aI19
aa(lp41
F2.8193359375
ag4
aI18
aa(lp42
F2.88098406791687
ag2
aI20
aa(lp43
F2.9478330612182617
ag4
aI19
aa(lp44
F3.021131992340088
ag2
aI21
aa(lp45
F3.083724021911621
ag2
aI22
aa(lp46
F3.139958143234253
ag4
aI20
aa(lp47
F3.182832956314087
ag4
aI21
aa(lp48
F3.2756810188293457
ag4
aI22
aa(lp49
F3.3749871253967285
ag2
aI23
aa(lp50
F3.448030948638916
ag2
aI24
aa(lp51
F3.573573112487793
ag2
aI25
aa(lp52
F3.6455111503601074
ag4
aI23
aa(lp53
F3.724355936050415
ag2
aI26
aa(lp54
F3.7929649353027344
ag4
aI24
aa(lp55
F3.896383047103882
ag2
aI27
aa(lp56
F3.975476026535034
ag4
aI25
aa(lp57
F4.0305070877075195
ag4
aI26
aa(lp58
F4.089295148849487
ag2
aI28
aa(lp59
F4.196115016937256
ag4
aI27
aa(lp60
F4.309919118881226
ag2
aI29
aa(lp61
F4.379660129547119
ag2
aI30
aa(lp62
F4.448553085327148
ag2
aI31
aa(lp63
F4.557127952575684
ag4
aI28
aa(lp64
F4.629734992980957
ag4
aI29
aa(lp65
F4.682460069656372
ag4
aI30
aa(lp66
F4.734118938446045
ag2
aI32
aa(lp67
F4.793580055236816
ag4
aI31
aa(lp68
F4.853016138076782
ag2
aI33
aa(lp69
F4.965487957000732
ag4
aI32
aa(lp70
F5.07755708694458
ag4
aI33
aa(lp71
F5.14825701713562
ag2
aI34
aa(lp72
F5.18674111366272
ag4
aI34
aa(lp73
F5.262310028076172
ag2
aI35
aa(lp74
F5.365860939025879
ag4
aI35
aa(lp75
F5.431843996047974
ag2
aI36
aa(lp76
F5.524055004119873
ag2
aI37
aa(lp77
F5.556812047958374
ag4
aI36
aa(lp78
F5.621402978897095
ag2
aI38
aa(lp79
F5.7218499183654785
ag4
aI37
aa(lp80
F5.816385984420776
ag4
aI38
aa(lp81
F5.884392023086548
ag2
aI39
aa(lp82
F5.945873022079468
ag4
aI39
aa(lp83
F6.046390056610107
ag2
aI40
aa(lp84
F6.115337133407593
ag4
aI40
aa(lp85
F6.237394094467163
ag2
aI41
aa(lp86
F6.312871932983398
ag2
aI42
aa(lp87
F6.364099979400635
ag2
aI43
aa(lp88
F6.520843029022217
ag2
aI44
aa(lp89
F6.5580761432647705
ag2
aI45
aa(lp90
F6.6308510303497314
ag4
aI41
aa(lp91
F6.685728073120117
ag2
aI46
aa(lp92
F6.731502056121826
ag4
aI42
aa(lp93
F6.805875062942505
ag4
aI43
aa(lp94
F6.843807935714722
ag2
aI47
aa(lp95
F6.915362119674683
ag4
aI44
aa(lp96
F6.969743013381958
ag2
aI48
aa(lp97
F7.072953939437866
ag2
aI49
aa(lp98
F7.158051013946533
ag4
aI45
aa(lp99
F7.203949928283691
ag2
aI50
aa(lp100
F7.307297945022583
ag4
aI46
aa(lp101
F7.368458986282349
ag2
aI51
aa(lp102
F7.4475319385528564
ag2
aI52
aa(lp103
F7.501891136169434
ag4
aI47
aa(lp104
F7.548952102661133
ag2
aI53
aa(lp105
F7.616040945053101
ag4
aI48
aa(lp106
F7.677026033401489
ag2
aI54
aa(lp107
F7.788366079330444
ag2
aI55
aa(lp108
F7.888312101364136
ag4
aI49
aa(lp109
F7.9605419635772705
ag4
aI50
aa(lp110
F8.047142028808594
ag2
aI56
aa(lp111
F8.079472064971924
ag4
aI51
aa(lp112
F8.164360046386719
ag4
aI52
aa(lp113
F8.251703977584839
ag2
aI57
aa(lp114
F8.313344955444336
ag2
aI58
aa(lp115
F8.394745111465454
ag2
aI59
aa(lp116
F8.484832048416138
ag4
aI53
aa(lp117
F8.571248054504395
ag2
aI60
aa(lp118
F8.649515151977539
ag4
aI54
aa(lp119
F8.713923931121826
ag2
aI61
aa(lp120
F8.772017002105713
ag4
aI55
aa(lp121
F8.842253923416138
ag4
aI56
aa(lp122
F8.918514013290405
ag2
aI62
aa(lp123
F8.964261054992676
ag4
aI57
aa(lp124
F9.016245126724243
ag2
aI63
aa(lp125
F9.116878032684326
ag4
aI58
aa(lp126
F9.176440000534058
ag2
aI64
aa(lp127
F9.234976053237915
ag4
aI59
aa(lp128
F9.306040048599243
ag2
aI65
aa(lp129
F9.414066076278687
ag4
aI60
aa(lp130
F9.493741035461426
ag2
aI66
aa(lp131
F9.54823613166809
ag4
aI61
aa(lp132
F9.59362506866455
ag2
aI67
aa(lp133
F9.664768934249878
ag4
aI62
aa(lp134
F9.713304042816162
ag2
aI68
aa(lp135
F9.785704135894775
ag4
aI63
aa(lp136
F9.828972101211548
ag2
aI69
aa(lp137
F9.916484117507935
ag4
aI64
aa(lp138
F9.95627212524414
ag2
aI70
aa(lp139
F10.008331060409546
ag4
aI65
aa(lp140
F10.076681137084961
ag2
aI71
aa(lp141
F10.120331048965454
ag4
aI66
aa(lp142
F10.184617042541504
ag2
aI72
aa(lp143
F10.26046895980835
ag4
aI67
aa(lp144
F10.306050062179565
ag2
aI73
aa(lp145
F10.367372989654541
ag4
aI68
aa(lp146
F10.429269075393677
ag2
aI74
aa(lp147
F10.470361948013306
ag4
aI69
aa(lp148
F10.540868043899536
ag2
aI75
aa(lp149
F10.606878995895386
ag4
aI70
aa(lp150
F10.657740116119385
ag2
aI76
aa(lp151
F10.726863145828247
ag4
aI71
aa(lp152
F10.775707006454468
ag2
aI77
aa(lp153
F10.821205139160156
ag4
aI72
aa(lp154
F10.892707109451294
ag2
aI78
aa(lp155
F10.91975212097168
ag4
aI73
aa(lp156
F11.009900093078613
ag2
aI79
aa(lp157
F11.058408975601196
ag4
aI74
aa(lp158
F11.124128103256226
ag2
aI80
aa(lp159
F11.1843740940094
ag4
aI75
aa(lp160
F11.252066135406494
ag2
aI81
aa(lp161
F11.301948070526123
ag4
aI76
aa(lp162
F11.364598035812378
ag2
aI82
aa(lp163
F11.42858600616455
ag4
aI77
aa(lp164
F11.469910144805908
ag2
aI83
aa(lp165
F11.529384136199951
ag4
aI78
aa(lp166
F11.596688985824585
ag2
aI84
aa(lp167
F11.672831058502197
ag4
aI79
aa(lp168
F11.708038091659546
ag2
aI85
aa(lp169
F11.779263019561768
ag4
aI80
aa(lp170
F11.82405710220337
ag2
aI86
aa(lp171
F11.888561964035034
ag4
aI81
aa(lp172
F11.957503080368042
ag2
aI87
aa(lp173
F11.99852204322815
ag4
aI82
aa(lp174
F12.064402103424072
ag2
aI88
aa(lp175
F12.129132986068726
ag4
aI83
aa(lp176
F12.20405912399292
ag2
aI89
aa(lp177
F12.24915599822998
ag4
aI84
aa(lp178
F12.312864065170288
ag2
aI90
aa(lp179
F12.365713119506836
ag4
aI85
aa(lp180
F12.440644979476929
ag2
aI91
aa(lp181
F12.493205070495605
ag4
aI86
aa(lp182
F12.541851043701172
ag2
aI92
aa(lp183
F12.604097127914429
ag4
aI87
aa(lp184
F12.657135963439941
ag2
aI93
aa(lp185
F12.701919078826904
ag4
aI88
aa(lp186
F12.77670693397522
ag2
aI94
aa(lp187
F12.84243392944336
ag4
aI89
aa(lp188
F12.901220083236694
ag2
aI95
aa(lp189
F12.968960046768188
ag2
aI96
aa(lp190
F13.004785060882568
ag4
aI90
aa(lp191
F13.073270082473755
ag2
aI97
aa(lp192
F13.11463713645935
ag4
aI91
aa(lp193
F13.17263412475586
ag2
aI98
aa(lp194
F13.244984149932861
ag4
aI92
aa(lp195
F13.304301023483276
ag2
aI99
aa(lp196
F13.369076013565063
ag4
aI93
aa(lp197
F13.410186052322388
ag2
aI100
aa(lp198
F13.477797985076904
ag4
aI94
aa(lp199
F13.557874917984009
ag2
aI101
aa(lp200
F13.596566915512085
ag4
aI95
aa(lp201
F13.66464114189148
ag2
aI102
aa(lp202
F13.70859408378601
ag4
aI96
aa(lp203
F13.790055990219116
ag2
aI103
aa(lp204
F13.82990312576294
ag4
aI97
aa(lp205
F13.933398962020874
ag2
aI104
aa(lp206
F13.997014999389648
ag4
aI98
aa(lp207
F14.072865962982178
ag2
aI105
aa(lp208
F14.11871600151062
ag4
aI99
aa(lp209
F14.144272089004517
ag2
aI106
aa(lp210
F14.183993101119995
ag4
aI100
aa(lp211
F14.231190919876099
ag2
aI107
aa(lp212
F14.29546308517456
ag4
aI101
aa(lp213
F14.373386144638062
ag2
aI108
aa(lp214
F14.415053129196167
ag4
aI102
aa(lp215
F14.476500988006592
ag2
aI109
aa(lp216
F14.556437015533447
ag4
aI103
aa(lp217
F14.616866111755371
ag2
aI110
aa(lp218
F14.73270297050476
ag2
aI111
aa(lp219
F14.792257070541382
ag4
aI104
aa(lp220
F14.872748136520386
ag2
aI112
aa(lp221
F14.960483074188232
ag4
aI105
aa(lp222
F15.036184072494507
ag4
aI106
aa(lp223
F15.116344928741455
ag4
aI107
aa(lp224
F15.171175003051758
ag4
aI108
aa(lp225
F15.21339201927185
ag4
aI109
aa(lp226
F15.276700019836426
ag2
aI113
aa(lp227
F15.332144021987915
ag4
aI110
aa(lp228
F15.39280104637146
ag4
aI111
aa(lp229
F15.448784112930298
ag2
aI114
aa(lp230
F15.515643119812012
ag4
aI112
aa(lp231
F15.571774005889893
ag2
aI115
aa(lp232
F15.61673092842102
ag4
aI113
aa(lp233
F15.662711143493652
ag2
aI116
aa(lp234
F15.727946043014526
ag4
aI114
aa(lp235
F15.795819997787476
ag2
aI117
aa(lp236
F15.852190017700195
ag2
aI118
aa(lp237
F15.899769067764282
ag2
aI119
aa(lp238
F15.972631931304932
ag4
aI115
aa(lp239
F16.07999014854431
ag2
aI120
aa(lp240
F16.14775013923645
ag4
aI116
aa(lp241
F16.196453094482422
ag2
aI121
aa(lp242
F16.26848602294922
ag4
aI117
aa(lp243
F16.324198007583618
ag2
aI122
aa(lp244
F16.384012937545776
ag4
aI118
aa(lp245
F16.44053292274475
ag2
aI123
aa(lp246
F16.491955041885376
ag4
aI119
aa(lp247
F16.572514057159424
ag2
aI124
aa(lp248
F16.619952917099
ag4
aI120
aa(lp249
F16.675962924957275
ag4
aI121
aa(lp250
F16.727869987487793
ag4
aI122
aa(lp251
F16.84478211402893
ag2
aI125
aa(lp252
F16.924580097198486
ag4
aI123
aa(lp253
F16.975674152374268
ag2
aI126
aa(lp254
F17.02833104133606
ag4
aI124
aa(lp255
F17.088781118392944
ag2
aI127
aa(lp256
F17.144026041030884
ag4
aI125
aa(lp257
F17.20001792907715
ag2
aI128
aa(lp258
F17.304157972335815
ag4
aI126
aa(lp259
F17.381286144256592
ag2
aI129
aa(lp260
F17.439319133758545
ag4
aI127
aa(lp261
F17.491050958633423
ag2
aI130
aa(lp262
F17.535104990005493
ag4
aI128
aa(lp263
F17.60753297805786
ag2
aI131
aa(lp264
F17.676294088363647
ag4
aI129
aa(lp265
F17.71958613395691
ag2
aI132
aa(lp266
F17.766842126846313
ag4
aI130
aa(lp267
F17.835662126541138
ag2
aI133
aa(lp268
F17.911195993423462
ag4
aI131
aa(lp269
F17.9598069190979
ag4
aI132
aa(lp270
F18.032154083251953
ag2
aI134
aa(lp271
F18.092141151428223
ag4
aI133
aa(lp272
F18.13949704170227
ag2
aI135
aa(lp273
F18.19193196296692
ag4
aI134
aa(lp274
F18.260744094848633
ag2
aI136
aa(lp275
F18.309486150741577
ag4
aI135
aa(lp276
F18.389559984207153
ag4
aI136
aa(lp277
F18.44534993171692
ag4
aI137
aa(lp278
F18.498193979263306
ag2
aI137
aa(lp279
F18.55727791786194
ag4
aI138
aa(lp280
F18.616930961608887
ag2
aI138
aa(lp281
F18.669631004333496
ag4
aI139
aa(lp282
F18.7332820892334
ag2
aI139
aa(lp283
F18.807765007019043
ag2
aI140
aa(lp284
F18.859193086624146
ag4
aI140
aa(lp285
F18.924747943878174
ag4
aI141
aa(lp286
F18.972193956375122
ag2
aI141
aa(lp287
F19.032210111618042
ag4
aI142
aa(lp288
F19.07959508895874
ag2
aI142
aa(lp289
F19.14749503135681
ag4
aI143
aa(lp290
F19.260071992874146
ag2
aI143
aa(lp291
F19.3400981426239
ag4
aI144
aa(lp292
F19.399569988250732
ag4
aI145
aa(lp293
F19.448758125305176
ag4
aI146
aa(lp294
F19.50374698638916
ag4
aI147
aa(lp295
F19.571754932403564
ag2
aI144
aa(lp296
F19.623701095581055
ag4
aI148
aa(lp297
F19.675409078598022
ag2
aI145
aa(lp298
F19.75769305229187
ag2
aI146
aa(lp299
F19.84013605117798
ag4
aI149
aa(lp300
F19.898834943771362
ag4
aI150
aa(lp301
F19.971853971481323
ag4
aI151
aa(lp302
F20.073631048202515
ag2
aI147
aa(lp303
F20.143003940582275
ag4
aI152
aa(lp304
F20.253420114517212
ag2
aI148
aa(lp305
F20.332410097122192
ag4
aI153
aa(lp306
F20.39111614227295
ag4
aI154
aa(lp307
F20.44765591621399
ag2
aI149
aa(lp308
F20.4963059425354
ag2
aI150
aa(lp309
F20.57634210586548
ag4
aI155
aa(lp310
F20.625602960586548
ag2
aI151
aa(lp311
F20.668816089630127
ag4
aI156
aa(lp312
F20.747372150421143
ag2
aI152
aa(lp313
F20.799981117248535
ag4
aI157
aa(lp314
F20.852587938308716
ag2
aI153
aa(lp315
F20.96380114555359
ag4
aI158
aa(lp316
F21.04808497428894
ag2
aI154
aa(lp317
F21.084118127822876
ag4
aI159
aa(lp318
F21.15666699409485
ag2
aI155
aa(lp319
F21.21356511116028
ag4
aI160
aa(lp320
F21.272666931152344
ag2
aI156
aa(lp321
F21.31988501548767
ag4
aI161
aa(lp322
F21.395854949951172
ag2
aI157
aa(lp323
F21.443469047546387
ag4
aI162
aa(lp324
F21.488161087036133
ag2
aI158
aa(lp325
F21.56406593322754
ag4
aI163
aa(lp326
F21.615384101867676
ag2
aI159
aa(lp327
F21.67494297027588
ag4
aI164
aa(lp328
F21.739261150360107
ag2
aI160
aa(lp329
F21.808372020721436
ag4
aI165
aa(lp330
F21.85998511314392
ag4
aI166
aa(lp331
F21.91123104095459
ag2
aI161
aa(lp332
F21.95924401283264
ag4
aI167
aa(lp333
F22.03539800643921
ag4
aI168
aa(lp334
F22.08421802520752
ag2
aI162
aa(lp335
F22.15535593032837
ag4
aI169
aa(lp336
F22.207247018814087
ag2
aI163
aa(lp337
F22.260204076766968
ag4
aI170
aa(lp338
F22.369439125061035
ag2
aI164
aa(lp339
F22.43605899810791
ag4
aI171
aa(lp340
F22.48437809944153
ag2
aI165
aa(lp341
F22.567512035369873
ag2
aI166
aa(lp342
F22.616321086883545
ag4
aI172
aa(lp343
F22.659204959869385
ag2
aI167
aa(lp344
F22.727380990982056
ag4
aI173
aa(lp345
F22.796072006225586
ag4
aI174
aa(lp346
F22.844604969024658
ag2
aI168
aa(lp347
F22.91327404975891
ag4
aI175
aa(lp348
F22.965480089187622
ag2
aI169
aa(lp349
F23.024065017700195
ag4
aI176
aa(lp350
F23.071983098983765
ag2
aI170
aa(lp351
F23.144134998321533
ag4
aI177
aa(lp352
F23.20018196105957
ag2
aI171
aa(lp353
F23.252867937088013
ag4
aI178
aa(lp354
F23.328508138656616
ag2
aI172
aa(lp355
F23.368057012557983
ag4
aI179
aa(lp356
F23.436299085617065
ag2
aI173
aa(lp357
F23.487903118133545
ag4
aI180
aa(lp358
F23.560306072235107
ag2
aI174
aa(lp359
F23.616222143173218
ag4
aI181
aa(lp360
F23.659399032592773
ag4
aI182
aa(lp361
F23.732605934143066
ag4
aI183
aa(lp362
F23.784847021102905
ag2
aI175
aa(lp363
F23.89608097076416
ag4
aI184
aa(lp364
F23.964965105056763
ag2
aI176
aa(lp365
F24.020118951797485
ag4
aI185
aa(lp366
F24.08115005493164
ag2
aI177
aa(lp367
F24.120594024658203
ag4
aI186
aa(lp368
F24.184361934661865
ag2
aI178
aa(lp369
F24.252800941467285
ag4
aI187
aa(lp370
F24.2980740070343
ag2
aI179
aa(lp371
F24.368698120117188
ag4
aI188
aa(lp372
F24.440391063690186
ag2
aI180
aa(lp373
F24.49308204650879
ag4
aI189
aa(lp374
F24.572309970855713
ag4
aI190
aa(lp375
F24.61311912536621
ag2
aI181
aa(lp376
F24.664511919021606
ag4
aI191
aa(lp377
F24.71733808517456
ag2
aI182
aa(lp378
F24.78400993347168
ag2
aI183
aa(lp379
F24.827959060668945
ag4
aI192
aa(lp380
F24.89226794242859
ag2
aI184
aa(lp381
F24.96857714653015
ag4
aI193
aa(lp382
F25.012274980545044
ag2
aI185
aa(lp383
F25.088256120681763
ag4
aI194
aa(lp384
F25.13251304626465
ag2
aI186
aa.