(lp0
(lp1
F0.00013303756713867188
aS'TCP'
p2
aI0
aa(lp3
F0.311751127243042
ag2
aI1
aa(lp4
F0.5484321117401123
aS'UDP'
p5
aI0
aa(lp6
F0.7922501564025879
ag2
aI2
aa(lp7
F1.087240219116211
ag5
aI1
aa(lp8
F1.1314702033996582
ag5
aI2
aa(lp9
F1.3170151710510254
ag2
aI3
aa(lp10
F1.6587951183319092
ag5
aI3
aa(lp11
F1.7211391925811768
ag5
aI4
aa(lp12
F1.91739821434021
ag2
aI4
aa(lp13
F2.056227207183838
ag2
aI5
aa(lp14
F2.2129721641540527
ag5
aI5
aa(lp15
F2.2846310138702393
ag5
aI6
aa(lp16
F2.4927890300750732
ag2
aI6
aa(lp17
F2.6226460933685303
ag2
aI7
aa(lp18
F2.7316901683807373
ag5
aI7
aa(lp19
F2.900545120239258
ag5
aI8
aa(lp20
F3.0834572315216064
ag2
aI8
aa(lp21
F3.148167133331299
ag2
aI9
aa(lp22
F3.3260440826416016
ag5
aI9
aa(lp23
F3.3955061435699463
ag5
aI10
aa(lp24
F3.568162202835083
ag2
aI10
aa(lp25
F3.704644203186035
ag2
aI11
aa(lp26
F3.7556581497192383
ag2
aI12
aa(lp27
F3.8834481239318848
ag5
aI11
aa(lp28
F4.085174083709717
ag5
aI12
aa(lp29
F4.2478251457214355
ag2
aI13
aa(lp30
F4.323662042617798
ag2
aI14
aa(lp31
F4.49294114112854
ag5
aI13
aa(lp32
F4.681361198425293
ag5
aI14
aa(lp33
F4.780675172805786
ag2
aI15
aa(lp34
F4.913193225860596
ag2
aI16
aa(lp35
F5.011142015457153
ag5
aI15
aa(lp36
F5.141071081161499
ag5
aI16
aa(lp37
F5.264074087142944
ag2
aI17
aa(lp38
F5.376805067062378
ag2
aI18
aa(lp39
F5.508780002593994
ag5
aI17
aa(lp40
F5.619818210601807
ag5
aI18
aa(lp41
F5.768515110015869
ag2
aI19
aa(lp42
F5.9239702224731445
ag2
aI20
aa(lp43
F6.008185148239136
ag5
aI19
aa(lp44
F6.1249260902404785
ag5
aI20
aa(lp45
F6.24531102180481
ag2
aI21
aa(lp46
F6.351576089859009
ag2
aI22
aa(lp47
F6.504950046539307
ag5
aI21
aa(lp48
F6.587637186050415
ag5
aI22
aa(lp49
F6.748288154602051
ag2
aI23
aa(lp50
F6.878123044967651
ag2
aI24
aa(lp51
F6.980480194091797
ag5
aI23
aa(lp52
F7.114354133605957
ag5
aI24
aa(lp53
F7.2326531410217285
ag2
aI25
aa(lp54
F7.351985216140747
ag2
aI26
aa(lp55
F7.485657215118408
ag5
aI25
aa(lp56
F7.599318027496338
ag5
aI26
aa(lp57
F7.739830017089844
ag2
aI27
aa(lp58
F7.891553163528442
ag2
aI28
aa(lp59
F8.047960042953491
ag5
aI27
aa(lp60
F8.135770082473755
ag5
aI28
aa(lp61
F8.248046159744263
ag5
aI29
aa(lp62
F8.372746229171753
ag2
aI29
aa(lp63
F8.496500015258789
ag2
aI30
aa(lp64
F8.656179189682007
ag5
aI30
aa(lp65
F8.7674241065979
ag5
aI31
aa(lp66
F8.925591230392456
ag2
aI31
aa(lp67
F9.080213069915771
ag2
aI32
aa(lp68
F9.163621187210083
ag5
aI32
aa(lp69
F9.360888004302979
ag5
aI33
aa(lp70
F9.408140182495117
ag2
aI33
aa(lp71
F9.601997137069702
ag2
aI34
aa(lp72
F9.652330160140991
ag5
aI34
aa(lp73
F9.839428186416626
ag5
aI35
aa(lp74
F9.988040208816528
ag2
aI35
aa(lp75
F10.100120067596436
ag2
aI36
aa(lp76
F10.235456228256226
ag5
aI36
aa(lp77
F10.37936019897461
ag5
aI37
aa(lp78
F10.543840169906616
ag2
aI37
aa(lp79
F10.612198114395142
ag2
aI38
aa(lp80
F10.751765012741089
ag5
aI38
aa(lp81
F10.792788028717041
ag5
aI39
aa(lp82
F10.932220220565796
ag5
aI40
aa(lp83
F10.991770029067993
ag2
aI39
aa(lp84
F11.162184000015259
ag2
aI40
aa(lp85
F11.287278175354004
ag5
aI41
aa(lp86
F11.400421142578125
ag5
aI42
aa(lp87
F11.522009134292603
ag2
aI41
aa(lp88
F11.663581132888794
ag2
aI42
aa(lp89
F11.759864091873169
ag5
aI43
aa(lp90
F11.936201095581055
ag5
aI44
aa(lp91
F11.998497009277344
ag2
aI43
aa(lp92
F12.215542078018188
ag2
aI44
aa(lp93
F12.354018211364746
ag5
aI45
aa(lp94
F12.519912004470825
ag5
aI46
aa(lp95
F12.596504211425781
ag2
aI45
aa(lp96
F12.759457111358643
ag2
aI46
aa(lp97
F12.843912124633789
ag5
aI47
aa(lp98
F12.987742185592651
ag5
aI48
aa(lp99
F13.124163150787354
ag2
aI47
aa(lp100
F13.216204166412354
ag2
aI48
aa(lp101
F13.362494230270386
ag5
aI49
aa(lp102
F13.51571011543274
ag5
aI50
aa(lp103
F13.59178113937378
ag2
aI49
aa(lp104
F13.789855003356934
ag2
aI50
aa(lp105
F13.95953917503357
ag5
aI51
aa(lp106
F14.019622087478638
ag5
aI52
aa(lp107
F14.19882607460022
ag2
aI51
aa(lp108
F14.261592149734497
ag2
aI52
aa(lp109
F14.441835165023804
ag5
aI53
aa(lp110
F14.583761215209961
ag5
aI54
aa(lp111
F14.675494194030762
ag2
aI53
aa(lp112
F14.85111117362976
ag2
aI54
aa(lp113
F14.91047215461731
ag5
aI55
aa(lp114
F15.084403038024902
ag5
aI56
aa(lp115
F15.227228164672852
ag2
aI55
aa(lp116
F15.35169005393982
ag2
aI56
aa(lp117
F15.46874713897705
ag5
aI57
aa(lp118
F15.5835120677948
ag5
aI58
aa(lp119
F15.700850009918213
ag2
aI57
aa(lp120
F15.810859203338623
ag2
aI58
aa(lp121
F15.928296089172363
ag5
aI59
aa(lp122
F16.03735613822937
ag5
aI60
aa(lp123
F16.15589714050293
ag2
aI59
aa(lp124
F16.269639015197754
ag2
aI60
aa(lp125
F16.38691806793213
ag5
aI61
aa(lp126
F16.500208139419556
ag5
aI62
aa(lp127
F16.620418071746826
ag2
aI61
aa(lp128
F16.733748197555542
ag2
aI62
aa(lp129
F16.85177516937256
ag5
aI63
aa(lp130
F16.890894174575806
ag5
aI64
aa(lp131
F16.99952220916748
ag5
aI65
aa(lp132
F17.079764127731323
ag2
aI63
aa(lp133
F17.159855127334595
ag2
aI64
aa(lp134
F17.268981218338013
ag2
aI65
aa(lp135
F17.3331081867218
ag5
aI66
aa(lp136
F17.432223081588745
ag5
aI67
aa(lp137
F17.49181318283081
ag5
aI68
aa(lp138
F17.55593705177307
ag2
aI66
aa(lp139
F17.697132110595703
ag2
aI67
aa(lp140
F17.78522515296936
ag5
aI69
aa(lp141
F17.93159508705139
ag5
aI70
aa(lp142
F17.959036111831665
ag5
aI71
aa(lp143
F18.056127071380615
ag2
aI68
aa(lp144
F18.16020917892456
ag2
aI69
aa(lp145
F18.284674167633057
ag5
aI72
aa(lp146
F18.387328147888184
ag5
aI73
aa(lp147
F18.407533168792725
ag5
aI74
aa(lp148
F18.508143186569214
ag2
aI70
aa(lp149
F18.612142086029053
ag2
aI71
aa(lp150
F18.68908715248108
ag2
aI72
aa(lp151
F18.743805170059204
ag5
aI75
aa(lp152
F18.83993101119995
ag5
aI76
aa(lp153
F18.9151930809021
ag5
aI77
aa(lp154
F18.97827911376953
ag2
aI73
aa(lp155
F19.067679166793823
ag2
aI74
aa(lp156
F19.14761519432068
ag2
aI75
aa(lp157
F19.203198194503784
ag5
aI78
aa(lp158
F19.294957160949707
ag5
aI79
aa(lp159
F19.37501621246338
ag5
aI80
aa(lp160
F19.447423219680786
ag2
aI76
aa(lp161
F19.523452043533325
ag2
aI77
aa(lp162
F19.599597215652466
ag2
aI78
aa(lp163
F19.71777319908142
ag5
aI81
aa(lp164
F19.760732173919678
ag5
aI82
aa(lp165
F19.88786816596985
ag5
aI83
aa(lp166
F19.987494230270386
ag2
aI79
aa(lp167
F20.160035133361816
ag2
aI80
aa(lp168
F20.18963122367859
ag5
aI84
aa(lp169
F20.226421117782593
ag5
aI85
aa(lp170
F20.379223108291626
ag5
aI86
aa(lp171
F20.44357204437256
ag2
aI81
aa(lp172
F20.524139165878296
ag2
aI82
aa(lp173
F20.65256118774414
ag2
aI83
aa(lp174
F20.685110092163086
ag5
aI87
aa(lp175
F20.839235067367554
ag5
aI88
aa(lp176
F20.89533519744873
ag5
aI89
aa(lp177
F21.085975170135498
ag2
aI84
aa(lp178
F21.239326000213623
ag2
aI85
aa(lp179
F21.323065042495728
ag5
aI90
aa(lp180
F21.476948022842407
ag5
aI91
aa(lp181
F21.520989179611206
ag2
aI86
aa(lp182
F21.671520233154297
ag2
aI87
aa(lp183
F21.716583013534546
ag2
aI88
aa(lp184
F21.784213066101074
ag5
aI92
aa(lp185
F21.89520502090454
ag5
aI93
aa(lp186
F21.944223165512085
ag5
aI94
aa(lp187
F22.011449098587036
ag2
aI89
aa(lp188
F22.132582187652588
ag2
aI90
aa(lp189
F22.173854112625122
ag2
aI91
aa(lp190
F22.263193130493164
ag5
aI95
aa(lp191
F22.363885164260864
ag5
aI96
aa(lp192
F22.400196075439453
ag5
aI97
aa(lp193
F22.529324054718018
ag2
aI92
aa(lp194
F22.620041131973267
ag2
aI93
aa(lp195
F22.757448196411133
ag5
aI98
aa(lp196
F22.893956184387207
ag5
aI99
aa(lp197
F22.98906922340393
ag2
aI94
aa(lp198
F23.12020707130432
ag2
aI95
aa(lp199
F23.229172229766846
ag5
aI100
aa(lp200
F23.367557048797607
ag5
aI101
aa(lp201
F23.459484100341797
ag2
aI96
aa(lp202
F23.599574089050293
ag2
aI97
aa(lp203
F23.64427614212036
ag2
aI98
aa(lp204
F23.83568811416626
ag5
aI102
aa(lp205
F23.992789030075073
ag5
aI103
aa(lp206
F24.068307161331177
ag2
aI99
aa(lp207
F24.261674165725708
ag2
aI100
aa(lp208
F24.388272047042847
ag5
aI104
aa(lp209
F24.498298168182373
ag5
aI105
aa(lp210
F24.633644104003906
ag2
aI101
aa(lp211
F24.739333152770996
ag2
aI102
aa(lp212
F24.86710214614868
ag5
aI106
aa(lp213
F25.02454113960266
ag2
aI103
aa(lp214
F25.09805703163147
ag2
aI104
aa(lp215
F25.295461177825928
ag5
aI107
aa(lp216
F25.455995082855225
ag5
aI108
aa(lp217
F25.52783203125
ag2
aI105
aa(lp218
F25.689101219177246
ag2
aI106
aa(lp219
F25.781371116638184
ag5
aI109
aa(lp220
F25.927298069000244
ag5
aI110
aa(lp221
F26.05982804298401
ag2
aI107
aa(lp222
F26.18297004699707
ag2
aI108
aa(lp223
F26.28468108177185
ag5
aI111
aa(lp224
F26.416052103042603
ag5
aI112
aa(lp225
F26.576029062271118
ag2
aI109
aa(lp226
F26.65120506286621
ag2
aI110
aa(lp227
F26.849550008773804
ag2
aI111
aa(lp228
F26.90812921524048
ag5
aI113
aa(lp229
F27.087576150894165
ag5
aI114
aa(lp230
F27.21231722831726
ag2
aI112
aa(lp231
F27.3354651927948
ag2
aI113
aa(lp232
F27.44735312461853
ag5
aI115
aa(lp233
F27.57363200187683
ag5
aI116
aa(lp234
F27.7121901512146
ag2
aI114
aa(lp235
F27.80391001701355
ag5
aI117
aa(lp236
F27.94889807701111
ag5
aI118
aa(lp237
F28.10338020324707
ag5
aI119
aa(lp238
F28.18728518486023
ag2
aI115
aa(lp239
F28.380527019500732
ag2
aI116
aa(lp240
F28.73830509185791
ag5
aI120
aa(lp241
F28.97349715232849
ag2
aI117
aa(lp242
F29.115761041641235
ag5
aI121
aa(lp243
F29.20016121864319
ag5
aI122
aa(lp244
F29.385890007019043
ag2
aI118
aa(lp245
F29.539944171905518
ag2
aI119
aa(lp246
F29.61960506439209
ag5
aI123
aa(lp247
F29.78194522857666
ag5
aI124
aa(lp248
F29.931265115737915
ag2
aI120
aa(lp249
F30.01609706878662
ag2
aI121
aa(lp250
F30.196468114852905
ag5
aI125
aa(lp251
F30.360947132110596
ag5
aI126
aa(lp252
F30.571402072906494
ag2
aI122
aa(lp253
F30.825963020324707
ag5
aI127
aa(lp254
F31.072540998458862
ag2
aI123
aa(lp255
F31.312435150146484
ag5
aI128
aa(lp256
F31.44498610496521
ag5
aI129
aa(lp257
F31.552099227905273
ag2
aI124
aa(lp258
F31.70147705078125
ag2
aI125
aa(lp259
F31.803349018096924
ag5
aI130
aa(lp260
F31.939354181289673
ag5
aI131
aa(lp261
F32.06593918800354
ag2
aI126
aa(lp262
F32.171868085861206
ag2
aI127
aa(lp263
F32.28956604003906
ag5
aI132
aa(lp264
F32.410497188568115
ag5
aI133
aa(lp265
F32.525405168533325
ag2
aI128
aa(lp266
F32.64735412597656
ag2
aI129
aa(lp267
F32.80031204223633
ag5
aI134
aa(lp268
F32.927324056625366
ag5
aI135
aa(lp269
F33.028619050979614
ag2
aI130
aa(lp270
F33.19074606895447
ag2
aI131
aa(lp271
F33.25632619857788
ag5
aI136
aa(lp272
F33.44091820716858
ag5
aI137
aa(lp273
F33.49468922615051
ag2
aI132
aa(lp274
F33.67962408065796
ag2
aI133
aa(lp275
F33.804832220077515
ag5
aI138
aa(lp276
F33.865066051483154
ag5
aI139
aa(lp277
F33.971973180770874
ag5
aI140
aa(lp278
F34.03594422340393
ag2
aI134
aa(lp279
F34.177627086639404
ag2
aI135
aa(lp280
F34.413079023361206
ag5
aI141
aa(lp281
F34.57355999946594
ag2
aI136
aa(lp282
F34.65171003341675
ag2
aI137
aa(lp283
F34.814887046813965
ag5
aI142
aa(lp284
F34.94320201873779
ag5
aI143
aa(lp285
F35.04501414299011
ag2
aI138
aa(lp286
F35.171996116638184
ag2
aI139
aa(lp287
F35.284637212753296
ag2
aI140
aa(lp288
F35.40882420539856
ag5
aI144
aa(lp289
F35.52088022232056
ag2
aI141
aa(lp290
F35.63680815696716
ag2
aI142
aa(lp291
F35.76318407058716
ag5
aI145
aa(lp292
F35.87385106086731
ag5
aI146
aa(lp293
F36.00308322906494
ag5
aI147
aa(lp294
F36.14903903007507
ag2
aI143
aa(lp295
F36.24425721168518
ag2
aI144
aa(lp296
F36.39632701873779
ag5
aI148
aa(lp297
F36.54889106750488
ag5
aI149
aa(lp298
F36.69591808319092
ag2
aI145
aa(lp299
F36.79553413391113
ag2
aI146
aa(lp300
F36.98702621459961
ag5
aI150
aa(lp301
F37.22233009338379
ag2
aI147
aa(lp302
F37.46031713485718
ag5
aI151
aa(lp303
F37.58576011657715
ag5
aI152
aa(lp304
F37.703893184661865
ag2
aI148
aa(lp305
F37.81867218017578
ag2
aI149
aa(lp306
F37.94933605194092
ag5
aI153
aa(lp307
F38.09933304786682
ag5
aI154
aa(lp308
F38.191800117492676
ag2
aI150
aa(lp309
F38.309683084487915
ag2
aI151
aa(lp310
F38.38190817832947
ag2
aI152
aa(lp311
F38.479698181152344
ag5
aI155
aa(lp312
F38.68696117401123
ag5
aI156
aa(lp313
F38.77331519126892
ag2
aI153
aa(lp314
F38.919591188430786
ag2
aI154
aa(lp315
F39.00735116004944
ag5
aI157
aa(lp316
F39.05855202674866
ag5
aI158
aa(lp317
F39.18895220756531
ag5
aI159
aa(lp318
F39.25930309295654
ag2
aI155
aa(lp319
F39.42203402519226
ag2
aI156
aa(lp320
F39.539698123931885
ag5
aI160
aa(lp321
F39.64318799972534
ag5
aI161
aa(lp322
F39.791022062301636
ag2
aI157
aa(lp323
F39.94821214675903
ag2
aI158
aa(lp324
F40.02700901031494
ag5
aI162
aa(lp325
F40.225616216659546
ag5
aI163
aa(lp326
F40.267622232437134
ag2
aI159
aa(lp327
F40.44855809211731
ag2
aI160
aa(lp328
F40.60919809341431
ag5
aI164
aa(lp329
F40.68017220497131
ag5
aI165
aa(lp330
F40.84395909309387
ag2
aI161
aa(lp331
F40.97748422622681
ag2
aI162
aa(lp332
F41.07639002799988
ag5
aI166
aa(lp333
F41.20897817611694
ag5
aI167
aa(lp334
F41.31055402755737
ag2
aI163
aa(lp335
F41.44106316566467
ag2
aI164
aa(lp336
F41.55138802528381
ag5
aI168
aa(lp337
F41.67137312889099
ag5
aI169
aa(lp338
F41.78426814079285
ag2
aI165
aa(lp339
F41.83913707733154
ag2
aI166
aa(lp340
F41.93975615501404
ag2
aI167
aa(lp341
F42.010993003845215
ag5
aI170
aa(lp342
F42.07133913040161
ag5
aI171
aa(lp343
F42.209060192108154
ag5
aI172
aa(lp344
F42.240952014923096
ag2
aI168
aa(lp345
F42.32004117965698
ag2
aI169
aa(lp346
F42.44497609138489
ag2
aI170
aa(lp347
F42.523025035858154
ag5
aI173
aa(lp348
F42.67235517501831
ag5
aI174
aa(lp349
F42.761803150177
ag2
aI171
aa(lp350
F42.93987703323364
ag2
aI172
aa(lp351
F43.08789920806885
ag5
aI175
aa(lp352
F43.14881205558777
ag5
aI176
aa(lp353
F43.211387157440186
ag5
aI177
aa(lp354
F43.32114005088806
ag2
aI173
aa(lp355
F43.37747812271118
ag2
aI174
aa(lp356
F43.43973207473755
ag2
aI175
aa(lp357
F43.56239700317383
ag5
aI178
aa(lp358
F43.66871118545532
ag5
aI179
aa(lp359
F43.83322310447693
ag2
aI176
aa(lp360
F43.96011018753052
ag2
aI177
aa(lp361
F44.1190140247345
ag5
aI180
aa(lp362
F44.188613176345825
ag5
aI181
aa(lp363
F44.352288007736206
ag2
aI178
aa(lp364
F44.45994520187378
ag2
aI179
aa(lp365
F44.614156007766724
ag5
aI182
aa(lp366
F44.69256401062012
ag5
aI183
aa(lp367
F44.85596418380737
ag2
aI180
aa(lp368
F44.99179220199585
ag2
aI181
aa(lp369
F45.102657079696655
ag5
aI184
aa(lp370
F45.220025062561035
ag5
aI185
aa(lp371
F45.328856229782104
ag2
aI182
aa(lp372
F45.35985612869263
ag2
aI183
aa(lp373
F45.450300216674805
ag2
aI184
aa(lp374
F45.55605506896973
ag5
aI186
aa(lp375
F45.588216066360474
ag5
aI187
aa(lp376
F45.679418087005615
ag5
aI188
aa(lp377
F45.78442621231079
ag2
aI185
aa(lp378
F45.85324811935425
ag2
aI186
aa(lp379
F46.03123712539673
ag5
aI189
aa(lp380
F46.179657220840454
ag5
aI190
aa(lp381
F46.36344313621521
ag5
aI191
aa(lp382
F46.41584610939026
ag2
aI187
aa(lp383
F46.59770703315735
ag2
aI188
aa(lp384
F46.77163910865784
ag5
aI192
aa(lp385
F46.83573317527771
ag2
aI189
aa(lp386
F47.03749203681946
ag2
aI190
aa(lp387
F47.07767605781555
ag2
aI191
aa(lp388
F47.25617003440857
ag5
aI193
aa(lp389
F47.31279110908508
ag5
aI194
aa(lp390
F47.38331913948059
ag2
aI192
aa(lp391
F47.51726818084717
ag2
aI193
aa(lp392
F47.63906121253967
ag5
aI195
aa(lp393
F47.74740815162659
ag5
aI196
aa(lp394
F47.77957510948181
ag5
aI197
aa(lp395
F47.86798715591431
ag2
aI194
aa(lp396
F47.97661113739014
ag2
aI195
aa(lp397
F48.011662006378174
ag2
aI196
aa(lp398
F48.20797109603882
ag5
aI198
aa(lp399
F48.33759808540344
ag5
aI199
aa(lp400
F48.438499212265015
ag2
aI197
aa(lp401
F48.58224701881409
ag2
aI198
aa(lp402
F48.75192999839783
ag5
aI200
aa(lp403
F48.861762046813965
ag5
aI201
aa(lp404
F49.01342511177063
ag2
aI199
aa(lp405
F49.133647203445435
ag2
aI200
aa(lp406
F49.25451111793518
ag5
aI202
aa(lp407
F49.37636709213257
ag5
aI203
aa(lp408
F49.49263119697571
ag2
aI201
aa(lp409
F49.611672163009644
ag2
aI202
aa(lp410
F49.74962520599365
ag5
aI204
aa(lp411
F49.84775900840759
ag5
aI205
aa(lp412
F49.980616092681885
ag2
aI203
aa(lp413
F50.13233518600464
ag2
aI204
aa(lp414
F50.215798139572144
ag5
aI206
aa(lp415
F50.42201018333435
ag5
aI207
aa(lp416
F50.47668409347534
ag2
aI205
aa(lp417
F50.66436314582825
ag2
aI206
aa(lp418
F50.79211616516113
ag5
aI208
aa(lp419
F50.896531105041504
ag5
aI209
aa(lp420
F51.020639181137085
ag2
aI207
aa(lp421
F51.1653950214386
ag2
aI208
aa(lp422
F51.252578020095825
ag5
aI210
aa(lp423
F51.39278507232666
ag5
aI211
aa(lp424
F51.480953216552734
ag2
aI209
aa(lp425
F51.629332065582275
ag2
aI210
aa(lp426
F51.714516162872314
ag5
aI212
aa(lp427
F51.8649480342865
ag5
aI213
aa(lp428
F51.93910002708435
ag2
aI211
aa(lp429
F52.103374004364014
ag2
aI212
aa(lp430
F52.16241002082825
ag5
aI214
aa(lp431
F52.331751108169556
ag5
aI215
aa(lp432
F52.394320011138916
ag2
aI213
aa(lp433
F52.56445121765137
ag2
aI214
aa(lp434
F52.63620615005493
ag5
aI216
aa(lp435
F52.79708504676819
ag5
aI217
aa(lp436
F52.86792206764221
ag2
aI215
aa(lp437
F53.03281211853027
ag2
aI216
aa(lp438
F53.09983515739441
ag5
aI218
aa(lp439
F53.269750118255615
ag5
aI219
aa(lp440
F53.33533811569214
ag2
aI217
aa(lp441
F53.50510621070862
ag2
aI218
aa(lp442
F53.59656500816345
ag5
aI220
aa(lp443
F53.72845411300659
ag5
aI221
aa(lp444
F53.812029123306274
ag5
aI222
aa(lp445
F53.88235020637512
ag2
aI219
aa(lp446
F53.9663450717926
ag2
aI220
aa(lp447
F54.04305100440979
ag2
aI221
aa(lp448
F54.1106231212616
ag5
aI223
aa(lp449
F54.19605302810669
ag5
aI224
aa(lp450
F54.27279615402222
ag5
aI225
aa(lp451
F54.36923408508301
ag2
aI222
aa(lp452
F54.453307151794434
ag2
aI223
aa(lp453
F54.54496216773987
ag2
aI224
aa(lp454
F54.62181520462036
ag5
aI226
aa(lp455
F54.6755690574646
ag5
aI227
aa(lp456
F54.77364802360535
ag5
aI228
aa(lp457
F54.84442210197449
ag2
aI225
aa(lp458
F54.90881013870239
ag2
aI226
aa(lp459
F55.0093891620636
ag2
aI227
aa(lp460
F55.07972717285156
ag5
aI229
aa(lp461
F55.14870309829712
ag5
aI230
aa(lp462
F55.23642301559448
ag5
aI231
aa(lp463
F55.31289505958557
ag2
aI228
aa(lp464
F55.38770008087158
ag2
aI229
aa(lp465
F55.46849703788757
ag2
aI230
aa(lp466
F55.54010605812073
ag5
aI232
aa(lp467
F55.611799001693726
ag5
aI233
aa(lp468
F55.697888135910034
ag5
aI234
aa(lp469
F55.76371216773987
ag2
aI231
aa(lp470
F55.84235119819641
ag2
aI232
aa(lp471
F55.92406702041626
ag2
aI233
aa(lp472
F55.98798418045044
ag5
aI235
aa(lp473
F56.076741218566895
ag5
aI236
aa(lp474
F56.15574812889099
ag5
aI237
aa(lp475
F56.219616174697876
ag2
aI234
aa(lp476
F56.30897307395935
ag2
aI235
aa(lp477
F56.39607620239258
ag2
aI236
aa(lp478
F56.46701717376709
ag5
aI238
aa(lp479
F56.53960204124451
ag5
aI239
aa(lp480
F56.62407207489014
ag5
aI240
aa(lp481
F56.696012020111084
ag2
aI237
aa(lp482
F56.76913905143738
ag2
aI238
aa(lp483
F56.85602021217346
ag2
aI239
aa(lp484
F56.923535108566284
ag5
aI241
aa(lp485
F56.99970006942749
ag5
aI242
aa(lp486
F57.08317804336548
ag5
aI243
aa(lp487
F57.15755915641785
ag2
aI240
aa(lp488
F57.228535175323486
ag2
aI241
aa(lp489
F57.31559920310974
ag2
aI242
aa(lp490
F57.42005515098572
ag5
aI244
aa(lp491
F57.457255125045776
ag5
aI245
aa(lp492
F57.647998094558716
ag2
aI243
aa(lp493
F57.78632116317749
ag2
aI244
aa(lp494
F57.88694500923157
ag5
aI246
aa(lp495
F58.01543617248535
ag5
aI247
aa(lp496
F58.051613092422485
ag5
aI248
aa(lp497
F58.140963077545166
ag2
aI245
aa(lp498
F58.245832204818726
ag2
aI246
aa(lp499
F58.368229150772095
ag5
aI249
aa(lp500
F58.48397707939148
ag5
aI250
aa(lp501
F58.608235120773315
ag2
aI247
aa(lp502
F58.72451400756836
ag2
aI248
aa(lp503
F58.760688066482544
ag2
aI249
aa(lp504
F58.83955121040344
ag5
aI251
aa(lp505
F58.95538306236267
ag5
aI252
aa(lp506
F59.04465913772583
ag5
aI253
aa(lp507
F59.1882221698761
ag2
aI250
aa(lp508
F59.36862111091614
ag2
aI251
aa(lp509
F59.41644811630249
ag5
aI254
aa(lp510
F59.60698413848877
ag5
aI255
aa(lp511
F59.6860830783844
ag2
aI252
aa(lp512
F59.84381103515625
ag2
aI253
aa(lp513
F59.91619515419006
ag5
aI256
aa(lp514
F60.08595299720764
ag5
aI257
aa(lp515
F60.23554015159607
ag2
aI254
aa(lp516
F60.32492208480835
ag2
aI255
aa(lp517
F60.50139904022217
ag5
aI258
aa(lp518
F60.56050109863281
ag5
aI259
aa(lp519
F60.73157215118408
ag2
aI256
aa(lp520
F60.89044404029846
ag2
aI257
aa(lp521
F61.048484086990356
ag5
aI260
aa(lp522
F61.13185715675354
ag5
aI261
aa(lp523
F61.24960517883301
ag2
aI258
aa(lp524
F61.31589102745056
ag2
aI259
aa(lp525
F61.36342215538025
ag2
aI260
aa(lp526
F61.4794762134552
ag5
aI262
aa(lp527
F61.5479850769043
ag5
aI263
aa(lp528
F61.60723519325256
ag5
aI264
aa(lp529
F61.71982407569885
ag2
aI261
aa(lp530
F61.777019023895264
ag2
aI262
aa(lp531
F61.947102069854736
ag5
aI265
aa(lp532
F62.06470203399658
ag5
aI266
aa(lp533
F62.12012505531311
ag5
aI267
aa(lp534
F62.175955057144165
ag2
aI263
aa(lp535
F62.29651212692261
ag2
aI264
aa(lp536
F62.37752103805542
ag2
aI265
aa(lp537
F62.519906997680664
ag5
aI268
aa(lp538
F62.59970712661743
ag5
aI269
aa(lp539
F62.63590908050537
ag2
aI266
aa(lp540
F62.75173306465149
ag2
aI267
aa(lp541
F62.82868504524231
ag2
aI268
aa(lp542
F62.86713910102844
ag5
aI270
aa(lp543
F62.98741316795349
ag5
aI271
aa(lp544
F63.066145181655884
ag5
aI272
aa(lp545
F63.23192119598389
ag2
aI269
aa(lp546
F63.40810513496399
ag2
aI270
aa(lp547
F63.46749210357666
ag5
aI273
aa(lp548
F63.657286167144775
ag5
aI274
aa(lp549
F63.716562032699585
ag2
aI271
aa(lp550
F63.89023303985596
ag2
aI272
aa(lp551
F63.975841999053955
ag5
aI275
aa(lp552
F64.12655305862427
ag5
aI276
aa(lp553
F64.25307822227478
ag2
aI273
aa(lp554
F64.35779905319214
ag2
aI274
aa(lp555
F64.48771715164185
ag5
aI277
aa(lp556
F64.59794616699219
ag5
aI278
aa(lp557
F64.72123718261719
ag2
aI275
aa(lp558
F64.82424116134644
ag2
aI276
aa(lp559
F64.95279121398926
ag5
aI279
aa(lp560
F65.06869602203369
ag5
aI280
aa(lp561
F65.1833221912384
ag2
aI277
aa(lp562
F65.30465602874756
ag5
aI281
aa(lp563
F65.41274118423462
ag5
aI282
aa(lp564
F65.54168510437012
ag5
aI283
aa(lp565
F65.64423108100891
ag2
aI278
aa(lp566
F65.77291321754456
ag5
aI284
aa(lp567
F65.88627409934998
ag5
aI285
aa(lp568
F66.07095313072205
ag5
aI286
aa(lp569
F66.1412501335144
ag2
aI279
aa(lp570
F66.30116510391235
ag2
aI280
aa(lp571
F66.42102217674255
ag5
aI287
aa(lp572
F66.53194403648376
ag5
aI288
aa(lp573
F66.64550805091858
ag2
aI281
aa(lp574
F66.76186609268188
ag2
aI282
aa(lp575
F66.87618803977966
ag5
aI289
aa(lp576
F66.99606323242188
ag5
aI290
aa(lp577
F67.11168813705444
ag2
aI283
aa(lp578
F67.22815608978271
ag2
aI284
aa(lp579
F67.34617710113525
ag5
aI291
aa(lp580
F67.53970217704773
ag5
aI292
aa(lp581
F67.63136410713196
ag2
aI285
aa(lp582
F67.81381106376648
ag2
aI286
aa(lp583
F67.85966300964355
ag5
aI293
aa(lp584
F68.05434608459473
ag5
aI294
aa(lp585
F68.12935614585876
ag2
aI287
aa(lp586
F68.30002617835999
ag2
aI288
aa(lp587
F68.42169117927551
ag5
aI295
aa(lp588
F68.53230214118958
ag5
aI296
aa(lp589
F68.65146017074585
ag2
aI289
aa(lp590
F68.77608013153076
ag2
aI290
aa(lp591
F69.02408218383789
ag5
aI297
aa(lp592
F69.56300616264343
ag2
aI291
aa(lp593
F69.8092291355133
ag5
aI298
aa(lp594
F69.95566701889038
ag5
aI299
aa(lp595
F70.04356002807617
ag2
aI292
aa(lp596
F70.188059091568
ag5
aI300
aa(lp597
F70.26871514320374
ag5
aI301
aa(lp598
F70.41649103164673
ag5
aI302
aa(lp599
F70.50369811058044
ag2
aI293
aa(lp600
F70.6444320678711
ag2
aI294
aa(lp601
F70.73139309883118
ag5
aI303
aa(lp602
F70.87288308143616
ag2
aI295
aa(lp603
F70.96661400794983
ag2
aI296
aa(lp604
F71.10369920730591
ag5
aI304
aa(lp605
F71.28539204597473
ag5
aI305
aa(lp606
F71.3397262096405
ag5
aI306
aa(lp607
F71.51999711990356
ag2
aI297
aa(lp608
F71.69758319854736
ag2
aI298
aa(lp609
F71.76153016090393
ag5
aI307
aa(lp610
F71.93910217285156
ag5
aI308
aa(lp611
F72.08515000343323
ag2
aI299
aa(lp612
F72.20945620536804
ag2
aI300
aa(lp613
F72.31358313560486
ag5
aI309
aa(lp614
F72.44790315628052
ag5
aI310
aa(lp615
F72.55630207061768
ag2
aI301
aa(lp616
F72.6821551322937
ag2
aI302
aa(lp617
F72.76337909698486
ag5
aI311
aa(lp618
F72.87929701805115
ag5
aI312
aa(lp619
F72.97155523300171
ag5
aI313
aa(lp620
F73.10800814628601
ag2
aI303
aa(lp621
F73.20394015312195
ag2
aI304
aa(lp622
F73.34199404716492
ag5
aI314
aa(lp623
F73.4333221912384
ag5
aI315
aa(lp624
F73.58383417129517
ag2
aI305
aa(lp625
F73.71957516670227
ag2
aI306
aa(lp626
F73.75247311592102
ag5
aI316
aa(lp627
F73.84749007225037
ag5
aI317
aa(lp628
F73.94779205322266
ag5
aI318
aa(lp629
F73.98716020584106
ag2
aI307
aa(lp630
F74.17528510093689
ag2
aI308
aa(lp631
F74.35193204879761
ag5
aI319
aa(lp632
F74.41386008262634
ag5
aI320
aa(lp633
F74.58417010307312
ag2
aI309
aa(lp634
F74.61250019073486
ag2
aI310
aa(lp635
F74.75575613975525
ag2
aI311
aa(lp636
F74.81489515304565
ag5
aI321
aa(lp637
F74.97543215751648
ag5
aI322
aa(lp638
F75.04076504707336
ag2
aI312
aa(lp639
F75.14843606948853
ag2
aI313
aa(lp640
F75.20086002349854
ag2
aI314
aa(lp641
F75.27164506912231
ag5
aI323
aa(lp642
F75.37992215156555
ag5
aI324
aa(lp643
F75.43269920349121
ag5
aI325
aa(lp644
F75.51126408576965
ag2
aI315
aa(lp645
F75.60387706756592
ag2
aI316
aa(lp646
F75.66094422340393
ag2
aI317
aa(lp647
F75.78518009185791
ag5
aI326
aa(lp648
F75.84044599533081
ag5
aI327
aa(lp649
F75.9559121131897
ag5
aI328
aa(lp650
F76.01933002471924
ag2
aI318
aa(lp651
F76.08031606674194
ag2
aI319
aa(lp652
F76.18384218215942
ag2
aI320
aa(lp653
F76.25949621200562
ag5
aI329
aa(lp654
F76.35150718688965
ag5
aI330
aa(lp655
F76.41569519042969
ag5
aI331
aa(lp656
F76.53200006484985
ag2
aI321
aa(lp657
F76.59435200691223
ag2
aI322
aa(lp658
F76.7561731338501
ag5
aI332
aa(lp659
F76.90483021736145
ag5
aI333
aa(lp660
F76.99323320388794
ag2
aI323
aa(lp661
F77.14900922775269
ag2
aI324
aa(lp662
F77.2760980129242
ag5
aI334
aa(lp663
F77.37921714782715
ag5
aI335
aa(lp664
F77.51438403129578
ag2
aI325
aa(lp665
F77.73967123031616
ag2
aI326
aa(lp666
F78.0485520362854
ag5
aI336
aa(lp667
F78.20831418037415
ag2
aI327
aa(lp668
F78.2885000705719
ag2
aI328
aa(lp669
F78.48850417137146
ag5
aI337
aa(lp670
F78.55198311805725
ag5
aI338
aa(lp671
F78.72795605659485
ag2
aI329
aa(lp672
F78.79834413528442
ag2
aI330
aa(lp673
F78.95578002929688
ag5
aI339
aa(lp674
F79.09680819511414
ag5
aI340
aa(lp675
F79.1537401676178
ag5
aI341
aa(lp676
F79.33393001556396
ag2
aI331
aa(lp677
F79.48755311965942
ag5
aI342
aa(lp678
F79.5682442188263
ag5
aI343
aa(lp679
F79.73235011100769
ag2
aI332
aa(lp680
F79.82289910316467
ag2
aI333
aa(lp681
F79.9672920703888
ag5
aI344
aa(lp682
F80.10421800613403
ag5
aI345
aa(lp683
F80.20998215675354
ag2
aI334
aa(lp684
F80.34454107284546
ag2
aI335
aa(lp685
F80.45430302619934
ag5
aI346
aa(lp686
F80.5835452079773
ag5
aI347
aa(lp687
F80.68432211875916
ag2
aI336
aa(lp688
F80.77502012252808
ag5
aI348
aa(lp689
F80.91981506347656
ag5
aI349
aa(lp690
F81.03996920585632
ag2
aI337
aa(lp691
F81.10177516937256
ag5
aI350
aa(lp692
F81.18044400215149
ag2
aI338
aa(lp693
F81.26326417922974
ag5
aI351
aa(lp694
F81.32804918289185
ag2
aI339
aa(lp695
F81.40803813934326
ag5
aI352
aa(lp696
F81.49296402931213
ag2
aI340
aa(lp697
F81.56347012519836
ag5
aI353
aa(lp698
F81.64410614967346
ag2
aI341
aa(lp699
F81.76013517379761
ag5
aI354
aa(lp700
F81.79635715484619
ag2
aI342
aa(lp701
F81.87960600852966
ag5
aI355
aa(lp702
F81.9885561466217
ag2
aI343
aa(lp703
F82.07124900817871
ag5
aI356
aa(lp704
F82.23503303527832
ag2
aI344
aa(lp705
F82.39401006698608
ag2
aI345
aa(lp706
F82.54760122299194
ag2
aI346
aa(lp707
F82.62791800498962
ag5
aI357
aa(lp708
F82.79479622840881
ag5
aI358
aa(lp709
F82.88395309448242
ag2
aI347
aa(lp710
F83.02339100837708
ag2
aI348
aa(lp711
F83.1033890247345
ag5
aI359
aa(lp712
F83.15125918388367
ag5
aI360
aa(lp713
F83.24798703193665
ag5
aI361
aa(lp714
F83.34003400802612
ag2
aI349
aa(lp715
F83.3799901008606
ag2
aI350
aa(lp716
F83.50371217727661
ag2
aI351
aa(lp717
F83.57915616035461
ag5
aI362
aa(lp718
F83.63935804367065
ag5
aI363
aa(lp719
F83.72776913642883
ag5
aI364
aa(lp720
F83.81233620643616
ag2
aI352
aa(lp721
F83.87473702430725
ag2
aI353
aa(lp722
F83.97589302062988
ag2
aI354
aa(lp723
F84.07944917678833
ag5
aI365
aa(lp724
F84.14873218536377
ag5
aI366
aa(lp725
F84.26776719093323
ag5
aI367
aa(lp726
F84.31990218162537
ag2
aI355
aa(lp727
F84.41244912147522
ag2
aI356
aa(lp728
F84.4956750869751
ag2
aI357
aa(lp729
F84.58828020095825
ag5
aI368
aa(lp730
F84.63519215583801
ag5
aI369
aa(lp731
F84.72794604301453
ag5
aI370
aa(lp732
F84.81972312927246
ag2
aI358
aa(lp733
F84.86750912666321
ag2
aI359
aa(lp734
F84.95557403564453
ag2
aI360
aa(lp735
F85.05289006233215
ag5
aI371
aa(lp736
F85.09586715698242
ag5
aI372
aa(lp737
F85.18384718894958
ag5
aI373
aa(lp738
F85.28396201133728
ag2
aI361
aa(lp739
F85.36396503448486
ag2
aI362
aa(lp740
F85.41534399986267
ag2
aI363
aa(lp741
F85.51570105552673
ag5
aI374
aa(lp742
F85.59566712379456
ag5
aI375
aa(lp743
F85.67566704750061
ag5
aI376
aa(lp744
F85.77640414237976
ag2
aI364
aa(lp745
F85.83513712882996
ag2
aI365
aa(lp746
F85.95141911506653
ag2
aI366
aa(lp747
F86.0232560634613
ag5
aI377
aa(lp748
F86.18759417533875
ag5
aI378
aa(lp749
F86.33626222610474
ag2
aI367
aa(lp750
F86.54584312438965
ag2
aI368
aa(lp751
F86.79569602012634
ag5
aI379
aa(lp752
F87.15539717674255
ag2
aI369
aa(lp753
F87.41810822486877
ag5
aI380
aa(lp754
F87.52080702781677
ag2
aI370
aa(lp755
F87.65532922744751
ag2
aI371
aa(lp756
F87.79722714424133
ag5
aI381
aa(lp757
F88.03651022911072
ag2
aI372
aa(lp758
F88.21574711799622
ag2
aI373
aa(lp759
F88.2712790966034
ag5
aI382
aa(lp760
F88.44090008735657
ag5
aI383
aa(lp761
F88.49863004684448
ag2
aI374
aa(lp762
F88.6637351512909
ag2
aI375
aa(lp763
F88.72424221038818
ag5
aI384
aa(lp764
F88.89035701751709
ag5
aI385
aa(lp765
F88.93254208564758
ag5
aI386
aa(lp766
F89.13562202453613
ag2
aI376
aa(lp767
F89.28488612174988
ag2
aI377
aa(lp768
F89.40464115142822
ag5
aI387
aa(lp769
F89.51987314224243
ag5
aI388
aa(lp770
F89.56073117256165
ag2
aI378
aa(lp771
F89.65188407897949
ag2
aI379
aa(lp772
F89.76739001274109
ag2
aI380
aa(lp773
F89.8366470336914
ag5
aI389
aa(lp774
F90.00906419754028
ag5
aI390
aa(lp775
F90.13667011260986
ag2
aI381
aa(lp776
F90.16811800003052
ag2
aI382
aa(lp777
F90.36803913116455
ag5
aI391
aa(lp778
F90.48130416870117
ag5
aI392
aa(lp779
F90.60902500152588
ag2
aI383
aa(lp780
F90.7519690990448
ag2
aI384
aa(lp781
F90.84505701065063
ag5
aI393
aa(lp782
F90.9794991016388
ag5
aI394
aa(lp783
F91.0766921043396
ag2
aI385
aa(lp784
F91.22803807258606
ag2
aI386
aa(lp785
F91.35256600379944
ag5
aI395
aa(lp786
F91.4726722240448
ag5
aI396
aa(lp787
F91.63183617591858
ag2
aI387
aa(lp788
F91.70451402664185
ag2
aI388
aa(lp789
F91.86131119728088
ag5
aI397
aa(lp790
F92.0353000164032
ag5
aI398
aa(lp791
F92.10050320625305
ag2
aI389
aa(lp792
F92.30850100517273
ag2
aI390
aa(lp793
F92.54460120201111
ag5
aI399
aa(lp794
F92.68351411819458
ag2
aI391
aa(lp795
F92.76750612258911
ag2
aI392
aa(lp796
F92.92129802703857
ag5
aI400
aa(lp797
F93.07100009918213
ag5
aI401
aa(lp798
F93.15607714653015
ag2
aI393
aa(lp799
F93.30455017089844
ag2
aI394
aa(lp800
F93.54460716247559
ag5
aI402
aa(lp801
F93.70063400268555
ag2
aI395
aa(lp802
F93.77534914016724
ag2
aI396
aa(lp803
F93.97958302497864
ag5
aI403
aa(lp804
F94.13744616508484
ag5
aI404
aa(lp805
F94.19529700279236
ag5
aI405
aa(lp806
F94.37043309211731
ag2
aI397
aa(lp807
F94.5215392112732
ag2
aI398
aa(lp808
F94.59570813179016
ag5
aI406
aa(lp809
F94.79384922981262
ag5
aI407
aa(lp810
F94.92774510383606
ag2
aI399
aa(lp811
F95.0278742313385
ag2
aI400
aa(lp812
F95.20443606376648
ag5
aI408
aa(lp813
F95.2773540019989
ag2
aI401
aa(lp814
F95.47180604934692
ag2
aI402
aa(lp815
F95.57171320915222
ag5
aI409
aa(lp816
F95.70838022232056
ag5
aI410
aa(lp817
F95.8050742149353
ag5
aI411
aa(lp818
F95.95444107055664
ag2
aI403
aa(lp819
F96.10313820838928
ag5
aI412
aa(lp820
F96.1718921661377
ag5
aI413
aa(lp821
F96.33891701698303
ag5
aI414
aa(lp822
F96.50061011314392
ag2
aI404
aa(lp823
F96.5762460231781
ag2
aI405
aa(lp824
F96.77482509613037
ag5
aI415
aa(lp825
F96.83134007453918
ag5
aI416
aa(lp826
F97.00786805152893
ag2
aI406
aa(lp827
F97.1605441570282
ag2
aI407
aa(lp828
F97.20712399482727
ag5
aI417
aa(lp829
F97.40443801879883
ag5
aI418
aa(lp830
F97.42966318130493
ag2
aI408
aa(lp831
F97.56409621238708
ag2
aI409
aa(lp832
F97.62783122062683
ag2
aI410
aa(lp833
F97.6714391708374
ag5
aI419
aa(lp834
F97.81971907615662
ag5
aI420
aa(lp835
F97.91329717636108
ag2
aI411
aa(lp836
F98.06349205970764
ag2
aI412
aa(lp837
F98.21266603469849
ag5
aI421
aa(lp838
F98.3394980430603
ag5
aI422
aa(lp839
F98.43980503082275
ag2
aI413
aa(lp840
F98.62524819374084
ag2
aI414
aa(lp841
F98.76397204399109
ag5
aI423
aa(lp842
F98.86391806602478
ag5
aI424
aa(lp843
F99.0091872215271
ag2
aI415
aa(lp844
F99.11079216003418
ag2
aI416
aa(lp845
F99.2395851612091
ag5
aI425
aa(lp846
F99.35406613349915
ag5
aI426
aa(lp847
F99.4711320400238
ag2
aI417
aa(lp848
F99.58003807067871
ag2
aI418
aa(lp849
F99.70842409133911
ag5
aI427
aa(lp850
F99.8369791507721
ag5
aI428
aa(lp851
F99.94407415390015
ag2
aI419
aa(lp852
F100.07599115371704
ag2
aI420
aa(lp853
F100.18449306488037
ag5
aI429
aa(lp854
F100.31208109855652
ag5
aI430
aa(lp855
F100.41222405433655
ag2
aI421
aa(lp856
F100.5460832118988
ag2
aI422
aa(lp857
F100.64755606651306
ag5
aI431
aa(lp858
F100.79272413253784
ag5
aI432
aa(lp859
F100.89804315567017
ag2
aI423
aa(lp860
F101.07193207740784
ag2
aI424
aa(lp861
F101.24616122245789
ag5
aI433
aa(lp862
F101.33854007720947
ag5
aI434
aa(lp863
F101.51037907600403
ag2
aI425
aa(lp864
F101.59260821342468
ag2
aI426
aa(lp865
F101.75491404533386
ag5
aI435
aa(lp866
F101.83537316322327
ag5
aI436
aa(lp867
F101.99927115440369
ag2
aI427
aa(lp868
F102.07542109489441
ag2
aI428
aa(lp869
F102.16037821769714
ag2
aI429
aa(lp870
F102.24487709999084
ag5
aI437
aa(lp871
F102.3038330078125
ag5
aI438
aa(lp872
F102.39262819290161
ag5
aI439
aa(lp873
F102.4722101688385
ag2
aI430
aa(lp874
F102.54245710372925
ag2
aI431
aa(lp875
F102.63337922096252
ag2
aI432
aa(lp876
F102.72600102424622
ag5
aI440
aa(lp877
F102.88483715057373
ag5
aI441
aa(lp878
F102.96398401260376
ag2
aI433
aa(lp879
F103.12350106239319
ag2
aI434
aa(lp880
F103.21681308746338
ag5
aI442
aa(lp881
F103.35745811462402
ag5
aI443
aa(lp882
F103.45155000686646
ag2
aI435
aa(lp883
F103.59250211715698
ag2
aI436
aa(lp884
F103.8428041934967
ag5
aI444
aa(lp885
F104.0828001499176
ag2
aI437
aa(lp886
F104.34789514541626
ag5
aI445
aa(lp887
F104.58432102203369
ag2
aI438
aa.