(lp0
(lp1
F0.0004620552062988281
aS'TCP'
p2
aI0
aa(lp3
F0.029813051223754883
aS'UDP'
p4
aI0
aa(lp5
F0.10886001586914062
ag2
aI1
aa(lp6
F0.21251797676086426
ag2
aI2
aa(lp7
F0.28890204429626465
ag2
aI3
aa(lp8
F0.3536980152130127
ag4
aI1
aa(lp9
F0.41321706771850586
ag2
aI4
aa(lp10
F0.5157511234283447
ag2
aI5
aa(lp11
F0.5822939872741699
ag2
aI6
aa(lp12
F0.6770741939544678
ag2
aI7
aa(lp13
F0.7045481204986572
ag2
aI8
aa(lp14
F0.7650740146636963
ag2
aI9
aa(lp15
F0.8284311294555664
ag4
aI2
aa(lp16
F0.874237060546875
ag2
aI10
aa(lp17
F0.9372971057891846
ag2
aI11
aa(lp18
F1.004446029663086
ag2
aI12
aa(lp19
F1.0679600238800049
ag4
aI3
aa(lp20
F1.1140129566192627
ag2
aI13
aa(lp21
F1.1763200759887695
ag2
aI14
aa(lp22
F1.2364811897277832
ag2
aI15
aa(lp23
F1.3323099613189697
ag2
aI16
aa(lp24
F1.360469102859497
ag2
aI17
aa(lp25
F1.4211931228637695
ag2
aI18
aa(lp26
F1.4846100807189941
ag4
aI4
aa(lp27
F1.53410005569458
ag2
aI19
aa(lp28
F1.6009111404418945
ag2
aI20
aa(lp29
F1.6603829860687256
ag2
aI21
aa(lp30
F1.7204320430755615
ag4
aI5
aa(lp31
F1.7843921184539795
ag2
aI22
aa(lp32
F1.84483003616333
ag2
aI23
aa(lp33
F1.868523120880127
ag2
aI24
aa(lp34
F1.9728319644927979
ag2
aI25
aa(lp35
F2.0136430263519287
ag2
aI26
aa(lp36
F2.0764100551605225
ag2
aI27
aa(lp37
F2.157119035720825
ag4
aI6
aa(lp38
F2.221069097518921
ag2
aI28
aa(lp39
F2.245479106903076
ag2
aI29
aa(lp40
F2.2844221591949463
ag2
aI30
aa(lp41
F2.3447680473327637
ag4
aI7
aa(lp42
F2.404616117477417
ag2
aI31
aa(lp43
F2.4648571014404297
ag2
aI32
aa(lp44
F2.562930107116699
ag2
aI33
aa(lp45
F2.6610350608825684
ag2
aI34
aa(lp46
F2.6845901012420654
ag2
aI35
aa(lp47
F2.74507212638855
ag2
aI36
aa(lp48
F2.8046300411224365
ag4
aI8
aa(lp49
F2.864537000656128
ag2
aI37
aa(lp50
F2.924687147140503
ag2
aI38
aa(lp51
F2.984297037124634
ag2
aI39
aa(lp52
F3.0441691875457764
ag4
aI9
aa(lp53
F3.092797040939331
ag2
aI40
aa(lp54
F3.1532840728759766
ag2
aI41
aa(lp55
F3.2087321281433105
ag2
aI42
aa(lp56
F3.2929160594940186
ag2
aI43
aa(lp57
F3.333142042160034
ag2
aI44
aa(lp58
F3.396336078643799
ag2
aI45
aa(lp59
F3.456900119781494
ag4
aI10
aa(lp60
F3.5247981548309326
ag2
aI46
aa(lp61
F3.5732500553131104
ag2
aI47
aa(lp62
F3.6369051933288574
ag2
aI48
aa(lp63
F3.684648036956787
ag4
aI11
aa(lp64
F3.7490711212158203
ag2
aI49
aa(lp65
F3.8289990425109863
ag2
aI50
aa(lp66
F3.853227138519287
ag2
aI51
aa(lp67
F3.9646849632263184
ag2
aI52
aa(lp68
F4.008666038513184
ag2
aI53
aa(lp69
F4.053359031677246
ag2
aI54
aa(lp70
F4.115403175354004
ag4
aI12
aa(lp71
F4.176762104034424
ag2
aI55
aa(lp72
F4.245129108428955
ag2
aI56
aa(lp73
F4.268602132797241
ag2
aI57
aa(lp74
F4.308395147323608
ag4
aI13
aa(lp75
F4.3688671588897705
ag2
aI58
aa(lp76
F4.471372127532959
ag2
aI59
aa(lp77
F4.541162014007568
ag2
aI60
aa(lp78
F4.624811172485352
ag2
aI61
aa(lp79
F4.652997016906738
ag2
aI62
aa(lp80
F4.71290397644043
ag2
aI63
aa(lp81
F4.773200988769531
ag4
aI14
aa(lp82
F4.837011098861694
ag2
aI64
aa(lp83
F4.917072057723999
ag2
aI65
aa(lp84
F4.957151174545288
ag2
aI66
aa(lp85
F5.017032146453857
ag4
aI15
aa(lp86
F5.0807671546936035
ag2
aI67
aa(lp87
F5.145016193389893
ag2
aI68
aa(lp88
F5.212651968002319
ag2
aI69
aa(lp89
F5.332517147064209
ag2
aI70
aa(lp90
F5.37847900390625
ag2
aI71
aa(lp91
F5.438991069793701
ag2
aI72
aa(lp92
F5.504460096359253
ag4
aI16
aa(lp93
F5.569082021713257
ag2
aI73
aa(lp94
F5.632285118103027
ag2
aI74
aa(lp95
F5.696130037307739
ag2
aI75
aa(lp96
F5.740013122558594
ag4
aI17
aa(lp97
F5.804500102996826
ag2
aI76
aa(lp98
F5.867963075637817
ag2
aI77
aa(lp99
F5.93658709526062
ag2
aI78
aa(lp100
F6.007652044296265
ag2
aI79
aa(lp101
F6.052549123764038
ag2
aI80
aa(lp102
F6.10075306892395
ag2
aI81
aa(lp103
F6.159779071807861
ag4
aI18
aa(lp104
F6.228363037109375
ag2
aI82
aa(lp105
F6.268962144851685
ag2
aI83
aa(lp106
F6.3318259716033936
ag2
aI84
aa(lp107
F6.404025077819824
ag4
aI19
aa(lp108
F6.448484182357788
ag2
aI85
aa(lp109
F6.516427993774414
ag2
aI86
aa(lp110
F6.596026182174683
ag2
aI87
aa(lp111
F6.672567129135132
ag2
aI88
aa(lp112
F6.716475963592529
ag2
aI89
aa(lp113
F6.764371156692505
ag2
aI90
aa(lp114
F6.82762598991394
ag4
aI20
aa(lp115
F6.896387100219727
ag2
aI91
aa(lp116
F6.949994087219238
ag2
aI92
aa(lp117
F7.021748065948486
ag2
aI93
aa(lp118
F7.087850093841553
ag4
aI21
aa(lp119
F7.128293037414551
ag2
aI94
aa(lp120
F7.199913024902344
ag2
aI95
aa(lp121
F7.2684760093688965
ag2
aI96
aa(lp122
F7.344555139541626
ag2
aI97
aa(lp123
F7.37174916267395
ag2
aI98
aa(lp124
F7.436192035675049
ag2
aI99
aa(lp125
F7.504503965377808
ag4
aI22
aa(lp126
F7.572029113769531
ag2
aI100
aa(lp127
F7.612142086029053
ag2
aI101
aa(lp128
F7.676190137863159
ag2
aI102
aa(lp129
F7.739729166030884
ag4
aI23
aa(lp130
F7.804169178009033
ag2
aI103
aa(lp131
F7.863717079162598
ag2
aI104
aa(lp132
F7.903181076049805
ag2
aI105
aa(lp133
F7.9877471923828125
ag2
aI106
aa(lp134
F8.031713008880615
ag2
aI107
aa(lp135
F8.099719047546387
ag2
aI108
aa(lp136
F8.199608087539673
ag2
aI109
aa(lp137
F8.228063106536865
ag2
aI110
aa(lp138
F8.279884099960327
ag4
aI24
aa(lp139
F8.344171047210693
ag2
aI111
aa(lp140
F8.412544965744019
ag2
aI112
aa(lp141
F8.45504903793335
ag2
aI113
aa(lp142
F8.54033899307251
ag2
aI114
aa(lp143
F8.588515043258667
ag2
aI115
aa(lp144
F8.655770063400269
ag2
aI116
aa(lp145
F8.700536012649536
ag4
aI25
aa(lp146
F8.76428508758545
ag2
aI117
aa(lp147
F8.828444004058838
ag2
aI118
aa(lp148
F8.895784139633179
ag2
aI119
aa(lp149
F8.972043991088867
ag2
aI120
aa(lp150
F9.012067079544067
ag2
aI121
aa(lp151
F9.053591012954712
ag2
aI122
aa(lp152
F9.120362997055054
ag4
aI26
aa(lp153
F9.183779001235962
ag2
aI123
aa(lp154
F9.243896961212158
ag2
aI124
aa(lp155
F9.307948112487793
ag2
aI125
aa(lp156
F9.372339963912964
ag4
aI27
aa(lp157
F9.420392036437988
ag2
aI126
aa(lp158
F9.484647989273071
ag2
aI127
aa(lp159
F9.551846981048584
ag2
aI128
aa(lp160
F9.62040901184082
ag2
aI129
aa(lp161
F9.664134979248047
ag2
aI130
aa(lp162
F9.727915048599243
ag2
aI131
aa(lp163
F9.788382053375244
ag4
aI28
aa(lp164
F9.832165002822876
ag2
aI132
aa(lp165
F9.904401063919067
ag2
aI133
aa(lp166
F9.964020013809204
ag2
aI134
aa(lp167
F10.032292127609253
ag4
aI29
aa(lp168
F10.07256817817688
ag2
aI135
aa(lp169
F10.139770984649658
ag2
aI136
aa(lp170
F10.200204133987427
ag2
aI137
aa(lp171
F10.295955181121826
ag2
aI138
aa(lp172
F10.32506012916565
ag2
aI139
aa(lp173
F10.387938976287842
ag2
aI140
aa(lp174
F10.429188013076782
ag4
aI30
aa(lp175
F10.496093988418579
ag2
aI141
aa(lp176
F10.560503959655762
ag2
aI142
aa(lp177
F10.627917051315308
ag2
aI143
aa(lp178
F10.671841144561768
ag4
aI31
aa(lp179
F10.736557960510254
ag2
aI144
aa(lp180
F10.79961109161377
ag2
aI145
aa(lp181
F10.868185997009277
ag2
aI146
aa(lp182
F10.944297075271606
ag2
aI147
aa(lp183
F10.967647075653076
ag2
aI148
aa(lp184
F10.992465019226074
ag2
aI149
aa(lp185
F11.0557541847229
ag4
aI32
aa(lp186
F11.100528001785278
ag2
aI150
aa(lp187
F11.163947105407715
ag2
aI151
aa(lp188
F11.228442192077637
ag2
aI152
aa(lp189
F11.291937112808228
ag4
aI33
aa(lp190
F11.336127042770386
ag2
aI153
aa(lp191
F11.40012001991272
ag2
aI154
aa(lp192
F11.467636108398438
ag2
aI155
aa(lp193
F11.535979986190796
ag2
aI156
aa(lp194
F11.583710193634033
ag2
aI157
aa(lp195
F11.628024101257324
ag2
aI158
aa(lp196
F11.692231178283691
ag4
aI34
aa(lp197
F11.751641035079956
ag2
aI159
aa(lp198
F11.820068120956421
ag2
aI160
aa(lp199
F11.864034175872803
ag2
aI161
aa(lp200
F11.932356119155884
ag4
aI35
aa(lp201
F11.955773115158081
ag2
aI162
aa(lp202
F11.991886138916016
ag2
aI163
aa(lp203
F12.057383060455322
ag2
aI164
aa(lp204
F12.132593154907227
ag2
aI165
aa(lp205
F12.159955024719238
ag2
aI166
aa(lp206
F12.232522964477539
ag2
aI167
aa(lp207
F12.304394006729126
ag4
aI36
aa(lp208
F12.352308988571167
ag2
aI168
aa(lp209
F12.415701150894165
ag2
aI169
aa(lp210
F12.440037965774536
ag2
aI170
aa(lp211
F12.480111122131348
ag4
aI37
aa(lp212
F12.504692077636719
ag2
aI171
aa(lp213
F12.58381700515747
ag2
aI172
aa(lp214
F12.651986122131348
ag2
aI173
aa(lp215
F12.747728109359741
ag2
aI174
aa(lp216
F12.775913000106812
ag2
aI175
aa(lp217
F12.835805177688599
ag2
aI176
aa(lp218
F12.875144958496094
ag4
aI38
aa(lp219
F12.955724000930786
ag2
aI177
aa(lp220
F12.995705127716064
ag2
aI178
aa(lp221
F13.056310176849365
ag2
aI179
aa(lp222
F13.11961317062378
ag4
aI39
aa(lp223
F13.188613176345825
ag2
aI180
aa(lp224
F13.236148118972778
ag2
aI181
aa(lp225
F13.308256149291992
ag2
aI182
aa(lp226
F13.384814977645874
ag2
aI183
aa(lp227
F13.43608808517456
ag2
aI184
aa(lp228
F13.548132181167603
ag2
aI185
aa(lp229
F13.592257976531982
ag2
aI186
aa(lp230
F13.655768156051636
ag2
aI187
aa(lp231
F13.699658155441284
ag4
aI40
aa(lp232
F13.764240026473999
ag2
aI188
aa(lp233
F13.83242416381836
ag2
aI189
aa(lp234
F13.880277156829834
ag2
aI190
aa(lp235
F13.947667121887207
ag4
aI41
aa(lp236
F13.996556997299194
ag2
aI191
aa(lp237
F14.060091972351074
ag2
aI192
aa(lp238
F14.10106897354126
ag2
aI193
aa(lp239
F14.191914081573486
ag2
aI194
aa(lp240
F14.235888957977295
ag2
aI195
aa(lp241
F14.300209045410156
ag2
aI196
aa(lp242
F14.344115972518921
ag4
aI42
aa(lp243
F14.41199517250061
ag2
aI197
aa(lp244
F14.45740818977356
ag2
aI198
aa(lp245
F14.523789167404175
ag2
aI199
aa(lp246
F14.588162183761597
ag4
aI43
aa(lp247
F14.6565420627594
ag2
aI200
aa(lp248
F14.699903964996338
ag2
aI201
aa(lp249
F14.764155149459839
ag2
aI202
aa(lp250
F14.87228512763977
ag2
aI203
aa(lp251
F14.89976716041565
ag2
aI204
aa(lp252
F14.964084148406982
ag2
aI205
aa(lp253
F15.008047103881836
ag4
aI44
aa(lp254
F15.07275915145874
ag2
aI206
aa(lp255
F15.139890193939209
ag2
aI207
aa(lp256
F15.187846183776855
ag2
aI208
aa(lp257
F15.248226165771484
ag4
aI45
aa(lp258
F15.321551084518433
ag2
aI209
aa(lp259
F15.372234106063843
ag2
aI210
aa(lp260
F15.435892105102539
ag2
aI211
aa(lp261
F15.500133037567139
ag2
aI212
aa(lp262
F15.544169187545776
ag2
aI213
aa(lp263
F15.603705167770386
ag2
aI214
aa(lp264
F15.67602801322937
ag4
aI46
aa(lp265
F15.723989963531494
ag2
aI215
aa(lp266
F15.796032190322876
ag2
aI216
aa(lp267
F15.840100049972534
ag2
aI217
aa(lp268
F15.904316186904907
ag4
aI47
aa(lp269
F15.971789121627808
ag2
aI218
aa(lp270
F16.014243125915527
ag2
aI219
aa(lp271
F16.131855964660645
ag2
aI220
aa(lp272
F16.166993141174316
ag2
aI221
aa(lp273
F16.25162410736084
ag2
aI222
aa(lp274
F16.312709093093872
ag4
aI48
aa(lp275
F16.380107164382935
ag2
aI223
aa(lp276
F16.448206186294556
ag2
aI224
aa(lp277
F16.491886138916016
ag2
aI225
aa(lp278
F16.555767059326172
ag4
aI49
aa(lp279
F16.644474983215332
ag2
aI226
aa(lp280
F16.69618010520935
ag2
aI227
aa(lp281
F16.756060123443604
ag2
aI228
aa(lp282
F16.82006812095642
ag2
aI229
aa(lp283
F16.86021900177002
ag2
aI230
aa(lp284
F16.923978090286255
ag2
aI231
aa(lp285
F16.988090991973877
ag4
aI50
aa(lp286
F17.056720972061157
ag2
aI232
aa(lp287
F17.10439395904541
ag2
aI233
aa(lp288
F17.171854972839355
ag2
aI234
aa(lp289
F17.215656995773315
ag4
aI51
aa(lp290
F17.28404402732849
ag2
aI235
aa(lp291
F17.352387189865112
ag2
aI236
aa(lp292
F17.396497011184692
ag2
aI237
aa(lp293
F17.487915992736816
ag2
aI238
aa(lp294
F17.516224145889282
ag2
aI239
aa(lp295
F17.5799400806427
ag2
aI240
aa(lp296
F17.648171186447144
ag4
aI52
aa(lp297
F17.671882152557373
ag2
aI241
aa(lp298
F17.748751163482666
ag2
aI242
aa(lp299
F17.820268154144287
ag2
aI243
aa(lp300
F17.866466999053955
ag4
aI53
aa(lp301
F17.932327032089233
ag2
aI244
aa(lp302
F17.995759963989258
ag2
aI245
aa(lp303
F18.064460039138794
ag2
aI246
aa(lp304
F18.152372121810913
ag2
aI247
aa(lp305
F18.19597101211548
ag2
aI248
aa(lp306
F18.264422178268433
ag2
aI249
aa(lp307
F18.31228518486023
ag4
aI54
aa(lp308
F18.38072419166565
ag2
aI250
aa(lp309
F18.424453020095825
ag2
aI251
aa(lp310
F18.48785901069641
ag2
aI252
aa(lp311
F18.556117057800293
ag4
aI55
aa(lp312
F18.60024619102478
ag2
aI253
aa(lp313
F18.668514013290405
ag2
aI254
aa(lp314
F18.732256174087524
ag2
aI255
aa(lp315
F18.800429105758667
ag2
aI256
aa(lp316
F18.844321966171265
ag2
aI257
aa(lp317
F18.911789178848267
ag2
aI258
aa(lp318
F18.956632137298584
ag4
aI56
aa(lp319
F19.016199111938477
ag2
aI259
aa(lp320
F19.08067297935486
ag2
aI260
aa(lp321
F19.147987127304077
ag2
aI261
aa(lp322
F19.20902109146118
ag4
aI57
aa(lp323
F19.255794048309326
ag2
aI262
aa(lp324
F19.328711986541748
ag2
aI263
aa(lp325
F19.376816987991333
ag2
aI264
aa(lp326
F19.46421504020691
ag2
aI265
aa(lp327
F19.487797021865845
ag2
aI266
aa(lp328
F19.552179098129272
ag2
aI267
aa(lp329
F19.61566710472107
ag4
aI58
aa(lp330
F19.680086135864258
ag2
aI268
aa(lp331
F19.724009037017822
ag2
aI269
aa(lp332
F19.78834104537964
ag2
aI270
aa(lp333
F19.855719089508057
ag4
aI59
aa(lp334
F19.903709173202515
ag2
aI271
aa(lp335
F19.964285135269165
ag2
aI272
aa(lp336
F20.033050060272217
ag2
aI273
aa(lp337
F20.11983609199524
ag2
aI274
aa(lp338
F20.168291091918945
ag2
aI275
aa(lp339
F20.220160007476807
ag2
aI276
aa(lp340
F20.288475036621094
ag4
aI60
aa(lp341
F20.340342044830322
ag2
aI277
aa(lp342
F20.386955976486206
ag2
aI278
aa(lp343
F20.452450037002563
ag2
aI279
aa(lp344
F20.5157630443573
ag4
aI61
aa(lp345
F20.560655117034912
ag2
aI280
aa(lp346
F20.628581047058105
ag2
aI281
aa(lp347
F20.696887016296387
ag2
aI282
aa(lp348
F20.764108180999756
ag2
aI283
aa(lp349
F20.811804056167603
ag2
aI284
aa(lp350
F20.872120141983032
ag2
aI285
aa(lp351
F20.91205596923828
ag4
aI62
aa(lp352
F21.000455141067505
ag2
aI286
aa(lp353
F21.040184020996094
ag2
aI287
aa(lp354
F21.10363507270813
ag2
aI288
aa(lp355
F21.145392179489136
ag4
aI63
aa(lp356
F21.21238613128662
ag2
aI289
aa(lp357
F21.288187980651855
ag2
aI290
aa(lp358
F21.351880073547363
ag2
aI291
aa(lp359
F21.41645097732544
ag2
aI292
aa(lp360
F21.456068992614746
ag2
aI293
aa(lp361
F21.52446413040161
ag2
aI294
aa(lp362
F21.59569811820984
ag4
aI64
aa(lp363
F21.643939971923828
ag2
aI295
aa(lp364
F21.70397114753723
ag2
aI296
aa(lp365
F21.7678279876709
ag2
aI297
aa(lp366
F21.82806396484375
ag4
aI65
aa(lp367
F21.87618398666382
ag2
aI298
aa(lp368
F21.936419010162354
ag2
aI299
aa(lp369
F22.004032135009766
ag2
aI300
aa(lp370
F22.076848030090332
ag2
aI301
aa(lp371
F22.12008309364319
ag2
aI302
aa(lp372
F22.164101123809814
ag2
aI303
aa(lp373
F22.244280099868774
ag4
aI66
aa(lp374
F22.29216718673706
ag2
aI304
aa(lp375
F22.360268115997314
ag2
aI305
aa(lp376
F22.44026803970337
ag2
aI306
aa(lp377
F22.484248161315918
ag4
aI67
aa(lp378
F22.551624059677124
ag2
aI307
aa(lp379
F22.61610198020935
ag2
aI308
aa(lp380
F22.680931091308594
ag2
aI309
aa(lp381
F22.747833013534546
ag2
aI310
aa(lp382
F22.77215600013733
ag2
aI311
aa(lp383
F22.832504987716675
ag2
aI312
aa(lp384
F22.928548097610474
ag2
aI313
aa(lp385
F22.96873903274536
ag2
aI314
aa(lp386
F23.028808116912842
ag2
aI315
aa(lp387
F23.087619066238403
ag4
aI68
aa(lp388
F23.14812707901001
ag2
aI316
aa(lp389
F23.188624143600464
ag2
aI317
aa(lp390
F23.25594210624695
ag2
aI318
aa(lp391
F23.328191995620728
ag4
aI69
aa(lp392
F23.371803998947144
ag2
aI319
aa(lp393
F23.436187028884888
ag2
aI320
aa(lp394
F23.495772123336792
ag2
aI321
aa(lp395
F23.587884187698364
ag2
aI322
aa(lp396
F23.6158390045166
ag2
aI323
aa(lp397
F23.68427801132202
ag2
aI324
aa(lp398
F23.72781205177307
ag4
aI70
aa(lp399
F23.78769302368164
ag2
aI325
aa(lp400
F23.84835410118103
ag2
aI326
aa(lp401
F23.912357091903687
ag2
aI327
aa(lp402
F23.95179510116577
ag4
aI71
aa(lp403
F24.012402057647705
ag2
aI328
aa(lp404
F24.0799880027771
ag2
aI329
aa(lp405
F24.14421510696411
ag2
aI330
aa(lp406
F24.20779013633728
ag2
aI331
aa(lp407
F24.27601909637451
ag2
aI332
aa(lp408
F24.344375133514404
ag2
aI333
aa(lp409
F24.388588190078735
ag4
aI72
aa(lp410
F24.451786041259766
ag2
aI334
aa(lp411
F24.520052194595337
ag2
aI335
aa(lp412
F24.543845176696777
ag2
aI336
aa(lp413
F24.62150001525879
ag4
aI73
aa(lp414
F24.688071966171265
ag2
aI337
aa(lp415
F24.75252914428711
ag2
aI338
aa(lp416
F24.81981110572815
ag2
aI339
aa(lp417
F24.88857913017273
ag2
aI340
aa(lp418
F24.932175159454346
ag2
aI341
aa(lp419
F24.996603965759277
ag2
aI342
aa(lp420
F25.040462017059326
ag4
aI74
aa(lp421
F25.103886127471924
ag2
aI343
aa(lp422
F25.16460919380188
ag2
aI344
aa(lp423
F25.220339059829712
ag2
aI345
aa(lp424
F25.279844045639038
ag4
aI75
aa(lp425
F25.34901213645935
ag2
aI346
aa(lp426
F25.40431308746338
ag2
aI347
aa(lp427
F25.463876008987427
ag2
aI348
aa(lp428
F25.55231809616089
ag2
aI349
aa(lp429
F25.592096090316772
ag2
aI350
aa(lp430
F25.65595006942749
ag2
aI351
aa(lp431
F25.720096111297607
ag4
aI76
aa(lp432
F25.779734134674072
ag2
aI352
aa(lp433
F25.8245210647583
ag2
aI353
aa(lp434
F25.89589810371399
ag2
aI354
aa(lp435
F25.943541049957275
ag4
aI77
aa(lp436
F26.00804901123047
ag2
aI355
aa(lp437
F26.072350025177002
ag2
aI356
aa(lp438
F26.135812997817993
ag2
aI357
aa(lp439
F26.20823311805725
ag2
aI358
aa(lp440
F26.252027988433838
ag2
aI359
aa(lp441
F26.294108152389526
ag2
aI360
aa(lp442
F26.387776136398315
ag2
aI361
aa(lp443
F26.419898986816406
ag2
aI362
aa(lp444
F26.5136661529541
ag4
aI78
aa(lp445
F26.540269136428833
ag2
aI363
aa(lp446
F26.604222059249878
ag2
aI364
aa(lp447
F26.66449999809265
ag2
aI365
aa(lp448
F26.727524042129517
ag4
aI79
aa(lp449
F26.796435117721558
ag2
aI366
aa(lp450
F26.856322050094604
ag2
aI367
aa(lp451
F26.923738956451416
ag2
aI368
aa(lp452
F27.01173210144043
ag2
aI369
aa(lp453
F27.036059141159058
ag2
aI370
aa(lp454
F27.100725173950195
ag2
aI371
aa(lp455
F27.183828115463257
ag2
aI372
aa(lp456
F27.211748123168945
ag2
aI373
aa(lp457
F27.298034191131592
ag4
aI80
aa(lp458
F27.339895963668823
ag2
aI374
aa(lp459
F27.43629813194275
ag2
aI375
aa(lp460
F27.465507984161377
ag4
aI81
aa(lp461
F27.543960094451904
ag2
aI376
aa(lp462
F27.587923049926758
ag2
aI377
aa(lp463
F27.65225100517273
ag2
aI378
aa(lp464
F27.74020218849182
ag2
aI379
aa(lp465
F27.768568992614746
ag2
aI380
aa(lp466
F27.832228183746338
ag2
aI381
aa(lp467
F27.899774074554443
ag4
aI82
aa(lp468
F27.953471183776855
ag2
aI382
aa(lp469
F28.028184175491333
ag2
aI383
aa(lp470
F28.07629108428955
ag2
aI384
aa(lp471
F28.14434504508972
ag4
aI83
aa(lp472
F28.19629716873169
ag2
aI385
aa(lp473
F28.25970697402954
ag2
aI386
aa(lp474
F28.301985025405884
ag2
aI387
aa(lp475
F28.387824058532715
ag2
aI388
aa(lp476
F28.42918300628662
ag2
aI389
aa(lp477
F28.492128133773804
ag2
aI390
aa(lp478
F28.538262128829956
ag4
aI84
aa(lp479
F28.604592084884644
ag2
aI391
aa(lp480
F28.667972087860107
ag2
aI392
aa(lp481
F28.728368043899536
ag2
aI393
aa(lp482
F28.79568314552307
ag4
aI85
aa(lp483
F28.836366176605225
ag2
aI394
aa(lp484
F28.900216102600098
ag2
aI395
aa(lp485
F28.963922023773193
ag2
aI396
aa(lp486
F29.05267596244812
ag2
aI397
aa(lp487
F29.075947046279907
ag2
aI398
aa(lp488
F29.13770604133606
ag2
aI399
aa(lp489
F29.22842812538147
ag2
aI400
aa(lp490
F29.28034996986389
ag2
aI401
aa(lp491
F29.348344087600708
ag4
aI86
aa(lp492
F29.400166034698486
ag2
aI402
aa(lp493
F29.44385313987732
ag2
aI403
aa(lp494
F29.512449979782104
ag2
aI404
aa(lp495
F29.556251049041748
ag4
aI87
aa(lp496
F29.623618125915527
ag2
aI405
aa(lp497
F29.66432809829712
ag2
aI406
aa(lp498
F29.732189178466797
ag2
aI407
aa(lp499
F29.844480991363525
ag2
aI408
aa(lp500
F29.871636152267456
ag2
aI409
aa(lp501
F29.93605899810791
ag2
aI410
aa(lp502
F29.975775003433228
ag4
aI88
aa(lp503
F30.03980302810669
ag2
aI411
aa(lp504
F30.104076147079468
ag2
aI412
aa(lp505
F30.15146017074585
ag2
aI413
aa(lp506
F30.22026300430298
ag4
aI89
aa(lp507
F30.287868976593018
ag2
aI414
aa(lp508
F30.33589005470276
ag2
aI415
aa(lp509
F30.407718181610107
ag2
aI416
aa(lp510
F30.480189085006714
ag2
aI417
aa(lp511
F30.512148141860962
ag2
aI418
aa(lp512
F30.585529088974
ag2
aI419
aa(lp513
F30.643957138061523
ag4
aI90
aa(lp514
F30.68608808517456
ag2
aI420
aa(lp515
F30.752469062805176
ag2
aI421
aa(lp516
F30.816169023513794
ag2
aI422
aa(lp517
F30.8802330493927
ag4
aI91
aa(lp518
F30.9230740070343
ag2
aI423
aa(lp519
F30.98784112930298
ag2
aI424
aa(lp520
F31.04847812652588
ag2
aI425
aa(lp521
F31.136312007904053
ag2
aI426
aa(lp522
F31.16441297531128
ag2
aI427
aa(lp523
F31.23172402381897
ag2
aI428
aa(lp524
F31.304059982299805
ag4
aI92
aa(lp525
F31.34813117980957
ag2
aI429
aa(lp526
F31.41633415222168
ag2
aI430
aa(lp527
F31.456951141357422
ag2
aI431
aa(lp528
F31.523728132247925
ag4
aI93
aa(lp529
F31.592048168182373
ag2
aI432
aa(lp530
F31.64408302307129
ag2
aI433
aa(lp531
F31.716047048568726
ag2
aI434
aa(lp532
F31.808269023895264
ag2
aI435
aa(lp533
F31.836181163787842
ag2
aI436
aa(lp534
F31.900125980377197
ag2
aI437
aa(lp535
F31.923572063446045
ag4
aI94
aa(lp536
F32.003801107406616
ag2
aI438
aa(lp537
F32.06872916221619
ag2
aI439
aa(lp538
F32.11406898498535
ag2
aI440
aa(lp539
F32.20810317993164
ag2
aI441
aa(lp540
F32.25618600845337
ag2
aI442
aa(lp541
F32.33213019371033
ag4
aI95
aa(lp542
F32.3841769695282
ag2
aI443
aa(lp543
F32.42482900619507
ag2
aI444
aa(lp544
F32.492429971694946
ag2
aI445
aa(lp545
F32.580119132995605
ag2
aI446
aa(lp546
F32.62433218955994
ag2
aI447
aa(lp547
F32.66846704483032
ag2
aI448
aa(lp548
F32.73238396644592
ag4
aI96
aa(lp549
F32.7959361076355
ag2
aI449
aa(lp550
F32.85646605491638
ag2
aI450
aa(lp551
F32.89572310447693
ag2
aI451
aa(lp552
F32.96471118927002
ag4
aI97
aa(lp553
F33.036498069763184
ag2
aI452
aa(lp554
F33.079310178756714
ag2
aI453
aa(lp555
F33.14850306510925
ag2
aI454
aa(lp556
F33.24793601036072
ag2
aI455
aa(lp557
F33.28052806854248
ag2
aI456
aa(lp558
F33.33252716064453
ag2
aI457
aa(lp559
F33.405182123184204
ag4
aI98
aa(lp560
F33.447787046432495
ag2
aI458
aa(lp561
F33.51169419288635
ag2
aI459
aa(lp562
F33.572121143341064
ag2
aI460
aa(lp563
F33.64447999000549
ag4
aI99
aa(lp564
F33.68867301940918
ag2
aI461
aa(lp565
F33.755720138549805
ag2
aI462
aa(lp566
F33.79586100578308
ag2
aI463
aa(lp567
F33.888779163360596
ag2
aI464
aa(lp568
F33.912095069885254
ag2
aI465
aa(lp569
F33.976710081100464
ag2
aI466
aa(lp570
F34.03995418548584
ag4
aI100
aa(lp571
F34.10365915298462
ag2
aI467
aa(lp572
F34.15218496322632
ag2
aI468
aa(lp573
F34.21552395820618
ag2
aI469
aa(lp574
F34.28013300895691
ag4
aI101
aa(lp575
F34.339964151382446
ag2
aI470
aa(lp576
F34.387665033340454
ag2
aI471
aa(lp577
F34.45197415351868
ag2
aI472
aa(lp578
F34.54762816429138
ag2
aI473
aa(lp579
F34.57998704910278
ag2
aI474
aa(lp580
F34.64089608192444
ag2
aI475
aa(lp581
F34.692960023880005
ag4
aI102
aa(lp582
F34.75230097770691
ag2
aI476
aa(lp583
F34.82010102272034
ag2
aI477
aa(lp584
F34.879656076431274
ag2
aI478
aa(lp585
F34.947937965393066
ag4
aI103
aa(lp586
F34.99868297576904
ag2
aI479
aa(lp587
F35.09231996536255
ag2
aI480
aa(lp588
F35.14426302909851
ag2
aI481
aa(lp589
F35.167729139328
ag2
aI482
aa(lp590
F35.232239961624146
ag2
aI483
aa(lp591
F35.30056715011597
ag4
aI104
aa(lp592
F35.36808109283447
ag2
aI484
aa(lp593
F35.40865111351013
ag2
aI485
aa(lp594
F35.46854114532471
ag2
aI486
aa(lp595
F35.527966022491455
ag4
aI105
aa(lp596
F35.59273600578308
ag2
aI487
aa(lp597
F35.66369318962097
ag2
aI488
aa(lp598
F35.703721046447754
ag2
aI489
aa(lp599
F35.7924599647522
ag2
aI490
aa(lp600
F35.8443500995636
ag2
aI491
aa(lp601
F35.89232110977173
ag2
aI492
aa(lp602
F35.94768404960632
ag4
aI106
aa(lp603
F35.97214603424072
ag2
aI493
aa(lp604
F36.008358001708984
ag2
aI494
aa(lp605
F36.07978105545044
ag2
aI495
aa(lp606
F36.12788414955139
ag4
aI107
aa(lp607
F36.196073055267334
ag2
aI496
aa(lp608
F36.236122131347656
ag2
aI497
aa(lp609
F36.30810904502869
ag2
aI498
aa(lp610
F36.39968800544739
ag2
aI499
aa(lp611
F36.453510999679565
ag2
aI500
aa(lp612
F36.48369216918945
ag4
aI108
aa(lp613
F36.55195617675781
ag2
aI501
aa(lp614
F36.59816098213196
ag2
aI502
aa(lp615
F36.692574977874756
ag4
aI109
aa(lp616
F36.771897077560425
ag2
aI503
aa(lp617
F36.80418109893799
ag2
aI504
aa(lp618
F36.896003007888794
ag2
aI505
aa(lp619
F36.9280960559845
ag2
aI506
aa(lp620
F37.07671499252319
ag4
aI110
aa(lp621
F37.1243941783905
ag2
aI507
aa(lp622
F37.176223039627075
ag2
aI508
aa(lp623
F37.237061977386475
ag2
aI509
aa(lp624
F37.28425908088684
ag4
aI111
aa(lp625
F37.36047697067261
ag2
aI510
aa(lp626
F37.416505098342896
ag2
aI511
aa(lp627
F37.47611618041992
ag2
aI512
aa(lp628
F37.54833912849426
ag2
aI513
aa(lp629
F37.60014796257019
ag2
aI514
aa(lp630
F37.65229797363281
ag2
aI515
aa(lp631
F37.74066114425659
ag2
aI516
aa(lp632
F37.77597117424011
ag2
aI517
aa(lp633
F37.824769020080566
ag2
aI518
aa(lp634
F37.92853116989136
ag2
aI519
aa(lp635
F37.96822118759155
ag2
aI520
aa(lp636
F38.04009413719177
ag4
aI112
aa(lp637
F38.07197904586792
ag2
aI521
aa(lp638
F38.14014506340027
ag2
aI522
aa(lp639
F38.18029713630676
ag2
aI523
aa(lp640
F38.25972008705139
ag4
aI113
aa(lp641
F38.30025911331177
ag2
aI524
aa(lp642
F38.36472511291504
ag2
aI525
aa(lp643
F38.412583112716675
ag2
aI526
aa(lp644
F38.51613903045654
ag2
aI527
aa(lp645
F38.57654809951782
ag2
aI528
aa(lp646
F38.612152099609375
ag4
aI114
aa(lp647
F38.65670418739319
ag2
aI529
aa(lp648
F38.72835302352905
ag2
aI530
aa(lp649
F38.784823179244995
ag2
aI531
aa(lp650
F38.83184599876404
ag4
aI115
aa(lp651
F38.900521993637085
ag2
aI532
aa(lp652
F38.956287145614624
ag2
aI533
aa(lp653
F39.02847719192505
ag2
aI534
aa(lp654
F39.102081060409546
ag2
aI535
aa(lp655
F39.12815999984741
ag2
aI536
aa(lp656
F39.18879318237305
ag2
aI537
aa(lp657
F39.27692198753357
ag2
aI538
aa(lp658
F39.30383110046387
ag2
aI539
aa(lp659
F39.37229013442993
ag2
aI540
aa(lp660
F39.44125318527222
ag4
aI116
aa(lp661
F39.49687099456787
ag2
aI541
aa(lp662
F39.564512968063354
ag2
aI542
aa(lp663
F39.631694078445435
ag2
aI543
aa(lp664
F39.67372703552246
ag4
aI117
aa(lp665
F39.73654103279114
ag2
aI544
aa(lp666
F39.79960513114929
ag2
aI545
aa(lp667
F39.86812496185303
ag2
aI546
aa(lp668
F39.93269395828247
ag2
aI547
aa(lp669
F39.976524114608765
ag2
aI548
aa(lp670
F40.032111167907715
ag2
aI549
aa(lp671
F40.0917911529541
ag4
aI118
aa(lp672
F40.15212798118591
ag2
aI550
aa(lp673
F40.211634159088135
ag2
aI551
aa(lp674
F40.26841616630554
ag2
aI552
aa(lp675
F40.327208042144775
ag4
aI119
aa(lp676
F40.4155809879303
ag2
aI553
aa(lp677
F40.4439001083374
ag2
aI554
aa(lp678
F40.53563213348389
ag2
aI555
aa(lp679
F40.60023903846741
ag2
aI556
aa(lp680
F40.64413499832153
ag2
aI557
aa(lp681
F40.68816018104553
ag2
aI558
aa(lp682
F40.760282039642334
ag2
aI559
aa(lp683
F40.83577108383179
ag2
aI560
aa(lp684
F40.86376118659973
ag2
aI561
aa(lp685
F40.94468307495117
ag2
aI562
aa(lp686
F41.003467082977295
ag4
aI120
aa(lp687
F41.07568717002869
ag2
aI563
aa(lp688
F41.13226318359375
ag2
aI564
aa(lp689
F41.18045115470886
ag2
aI565
aa(lp690
F41.25961518287659
ag2
aI566
aa(lp691
F41.3080780506134
ag2
aI567
aa(lp692
F41.363675117492676
ag4
aI121
aa(lp693
F41.43222904205322
ag2
aI568
aa(lp694
F41.48368501663208
ag2
aI569
aa(lp695
F41.62575817108154
ag2
aI570
aa(lp696
F41.666428089141846
ag2
aI571
aa(lp697
F41.78766918182373
ag4
aI122
aa(lp698
F41.836328983306885
ag2
aI572
aa(lp699
F41.89998698234558
ag2
aI573
aa(lp700
F41.942140102386475
ag2
aI574
aa(lp701
F42.00782513618469
ag4
aI123
aa(lp702
F42.07229709625244
ag2
aI575
aa(lp703
F42.136139154434204
ag2
aI576
aa(lp704
F42.19973111152649
ag2
aI577
aa(lp705
F42.260985136032104
ag2
aI578
aa(lp706
F42.30417513847351
ag2
aI579
aa(lp707
F42.37323307991028
ag2
aI580
aa(lp708
F42.43990397453308
ag4
aI124
aa(lp709
F42.48796105384827
ag2
aI581
aa(lp710
F42.55210900306702
ag2
aI582
aa(lp711
F42.598384141922
ag2
aI583
aa(lp712
F42.66047811508179
ag4
aI125
aa(lp713
F42.72830009460449
ag2
aI584
aa(lp714
F42.79631304740906
ag2
aI585
aa(lp715
F42.84386706352234
ag2
aI586
aa(lp716
F42.932268142700195
ag2
aI587
aa(lp717
F42.96032214164734
ag2
aI588
aa(lp718
F43.02390718460083
ag2
aI589
aa(lp719
F43.09205603599548
ag4
aI126
aa(lp720
F43.140082120895386
ag2
aI590
aa(lp721
F43.20828104019165
ag2
aI591
aa(lp722
F43.23179507255554
ag2
aI592
aa(lp723
F43.315706968307495
ag4
aI127
aa(lp724
F43.38027811050415
ag2
aI593
aa(lp725
F43.43966197967529
ag2
aI594
aa(lp726
F43.50809597969055
ag2
aI595
aa(lp727
F43.58033204078674
ag2
aI596
aa(lp728
F43.62410807609558
ag2
aI597
aa(lp729
F43.68414497375488
ag2
aI598
aa(lp730
F43.731714963912964
ag4
aI128
aa(lp731
F43.799968957901
ag2
aI599
aa(lp732
F43.838823080062866
ag2
aI600
aa(lp733
F43.90447211265564
ag2
aI601
aa(lp734
F43.97166204452515
ag4
aI129
aa(lp735
F44.014711141586304
ag2
aI602
aa(lp736
F44.08421611785889
ag2
aI603
aa(lp737
F44.152487993240356
ag2
aI604
aa(lp738
F44.215965032577515
ag2
aI605
aa(lp739
F44.25990605354309
ag2
aI606
aa(lp740
F44.3284649848938
ag2
aI607
aa(lp741
F44.39184498786926
ag4
aI130
aa(lp742
F44.43343210220337
ag2
aI608
aa(lp743
F44.49614405632019
ag2
aI609
aa(lp744
F44.55970811843872
ag2
aI610
aa(lp745
F44.627928018569946
ag4
aI131
aa(lp746
F44.6678671836853
ag2
aI611
aa(lp747
F44.73630619049072
ag2
aI612
aa(lp748
F44.799827098846436
ag2
aI613
aa(lp749
F44.87202215194702
ag2
aI614
aa(lp750
F44.936562061309814
ag2
aI615
aa(lp751
F44.98055410385132
ag2
aI616
aa(lp752
F45.04399800300598
ag4
aI132
aa(lp753
F45.11226415634155
ag2
aI617
aa(lp754
F45.15055513381958
ag2
aI618
aa(lp755
F45.23990511894226
ag2
aI619
aa(lp756
F45.28416705131531
ag4
aI133
aa(lp757
F45.328227043151855
ag2
aI620
aa(lp758
F45.41207313537598
ag2
aI621
aa(lp759
F45.45201396942139
ag2
aI622
aa(lp760
F45.535902976989746
ag2
aI623
aa(lp761
F45.57999897003174
ag2
aI624
aa(lp762
F45.624147176742554
ag2
aI625
aa(lp763
F45.69234609603882
ag4
aI134
aa(lp764
F45.7345130443573
ag2
aI626
aa(lp765
F45.79572606086731
ag2
aI627
aa(lp766
F45.860159158706665
ag2
aI628
aa(lp767
F45.92777109146118
ag4
aI135
aa(lp768
F45.97668814659119
ag2
aI629
aa(lp769
F46.03976511955261
ag2
aI630
aa(lp770
F46.11628699302673
ag2
aI631
aa(lp771
F46.18444299697876
ag2
aI632
aa(lp772
F46.22483706474304
ag2
aI633
aa(lp773
F46.29211711883545
ag2
aI634
aa(lp774
F46.33388710021973
ag4
aI136
aa(lp775
F46.40013408660889
ag2
aI635
aa(lp776
F46.48377299308777
ag2
aI636
aa(lp777
F46.5320680141449
ag2
aI637
aa(lp778
F46.575916051864624
ag4
aI137
aa(lp779
F46.644164085388184
ag2
aI638
aa(lp780
F46.70794916152954
ag2
aI639
aa(lp781
F46.75649619102478
ag2
aI640
aa(lp782
F46.844417095184326
ag2
aI641
aa(lp783
F46.892704010009766
ag2
aI642
aa(lp784
F46.916102170944214
ag2
aI643
aa(lp785
F46.99498200416565
ag4
aI138
aa(lp786
F47.0602080821991
ag2
aI644
aa(lp787
F47.13232207298279
ag2
aI645
aa(lp788
F47.179999113082886
ag2
aI646
aa(lp789
F47.243921995162964
ag4
aI139
aa(lp790
F47.317201137542725
ag2
aI647
aa(lp791
F47.367871046066284
ag2
aI648
aa(lp792
F47.41123104095459
ag2
aI649
aa(lp793
F47.504477977752686
ag2
aI650
aa(lp794
F47.52766704559326
ag2
aI651
aa(lp795
F47.60439610481262
ag2
aI652
aa(lp796
F47.6683931350708
ag4
aI140
aa(lp797
F47.73189401626587
ag2
aI653
aa(lp798
F47.800315141677856
ag2
aI654
aa(lp799
F47.84417414665222
ag2
aI655
aa(lp800
F47.91254997253418
ag4
aI141
aa(lp801
F47.98408603668213
ag2
aI656
aa(lp802
F48.02792501449585
ag2
aI657
aa(lp803
F48.09249997138977
ag2
aI658
aa(lp804
F48.18385195732117
ag2
aI659
aa(lp805
F48.20837998390198
ag2
aI660
aa(lp806
F48.27221608161926
ag2
aI661
aa(lp807
F48.33632707595825
ag4
aI142
aa(lp808
F48.399880170822144
ag2
aI662
aa(lp809
F48.44787812232971
ag2
aI663
aa(lp810
F48.516117095947266
ag2
aI664
aa(lp811
F48.583800077438354
ag4
aI143
aa(lp812
F48.63235402107239
ag2
aI665
aa(lp813
F48.691689014434814
ag2
aI666
aa(lp814
F48.75991916656494
ag2
aI667
aa(lp815
F48.82391309738159
ag2
aI668
aa(lp816
F48.8723361492157
ag2
aI669
aa(lp817
F48.93992614746094
ag2
aI670
aa(lp818
F49.00391507148743
ag4
aI144
aa(lp819
F49.05210900306702
ag2
aI671
aa(lp820
F49.11638617515564
ag2
aI672
aa(lp821
F49.18377614021301
ag2
aI673
aa(lp822
F49.231805086135864
ag4
aI145
aa(lp823
F49.29663801193237
ag2
aI674
aa(lp824
F49.34348702430725
ag2
aI675
aa(lp825
F49.41170597076416
ag2
aI676
aa(lp826
F49.496334075927734
ag2
aI677
aa(lp827
F49.54016709327698
ag2
aI678
aa(lp828
F49.58442401885986
ag2
aI679
aa(lp829
F49.65261507034302
ag4
aI146
aa(lp830
F49.74038505554199
ag2
aI680
aa(lp831
F49.76382303237915
ag2
aI681
aa(lp832
F49.828137159347534
ag4
aI147
aa(lp833
F49.89285612106323
ag2
aI682
aa(lp834
F49.935840129852295
ag2
aI683
aa(lp835
F50.00398802757263
ag2
aI684
aa(lp836
F50.09976816177368
ag2
aI685
aa(lp837
F50.131880044937134
ag2
aI686
aa(lp838
F50.17607498168945
ag2
aI687
aa(lp839
F50.24025511741638
ag4
aI148
aa(lp840
F50.31171917915344
ag2
aI688
aa(lp841
F50.360411167144775
ag2
aI689
aa(lp842
F50.42835211753845
ag2
aI690
aa(lp843
F50.483800172805786
ag4
aI149
aa(lp844
F50.54825401306152
ag2
aI691
aa(lp845
F50.595728158950806
ag2
aI692
aa(lp846
F50.659934997558594
ag2
aI693
aa(lp847
F50.747939109802246
ag2
aI694
aa(lp848
F50.7762291431427
ag2
aI695
aa(lp849
F50.84397101402283
ag2
aI696
aa(lp850
F50.904412031173706
ag4
aI150
aa(lp851
F50.975664138793945
ag2
aI697
aa(lp852
F51.02053618431091
ag2
aI698
aa(lp853
F51.079952001571655
ag2
aI699
aa(lp854
F51.14821815490723
ag4
aI151
aa(lp855
F51.18711018562317
ag2
aI700
aa(lp856
F51.25203800201416
ag2
aI701
aa(lp857
F51.32408905029297
ag2
aI702
aa(lp858
F51.411771059036255
ag2
aI703
aa(lp859
F51.44024109840393
ag2
aI704
aa(lp860
F51.503885984420776
ag2
aI705
aa(lp861
F51.55177712440491
ag4
aI152
aa(lp862
F51.623810052871704
ag2
aI706
aa(lp863
F51.671911001205444
ag2
aI707
aa(lp864
F51.73230600357056
ag2
aI708
aa(lp865
F51.79961800575256
ag4
aI153
aa(lp866
F51.840206146240234
ag2
aI709
aa(lp867
F51.91577196121216
ag2
aI710
aa(lp868
F51.95583200454712
ag2
aI711
aa(lp869
F52.04789900779724
ag2
aI712
aa(lp870
F52.07232117652893
ag2
aI713
aa(lp871
F52.15621614456177
ag2
aI714
aa(lp872
F52.21638512611389
ag4
aI154
aa(lp873
F52.2839629650116
ag2
aI715
aa(lp874
F52.33651304244995
ag2
aI716
aa(lp875
F52.403998136520386
ag2
aI717
aa(lp876
F52.44362711906433
ag4
aI155
aa(lp877
F52.5126531124115
ag2
aI718
aa(lp878
F52.57176208496094
ag2
aI719
aa(lp879
F52.64030909538269
ag2
aI720
aa(lp880
F52.70413398742676
ag2
aI721
aa(lp881
F52.74382710456848
ag2
aI722
aa(lp882
F52.80849504470825
ag2
aI723
aa(lp883
F52.87188005447388
ag4
aI156
aa(lp884
F52.9361310005188
ag2
aI724
aa(lp885
F52.99601197242737
ag2
aI725
aa(lp886
F53.04459500312805
ag2
aI726
aa(lp887
F53.107813119888306
ag4
aI157
aa(lp888
F53.1727340221405
ag2
aI727
aa(lp889
F53.22044110298157
ag2
aI728
aa(lp890
F53.283796072006226
ag2
aI729
aa(lp891
F53.35261106491089
ag2
aI730
aa(lp892
F53.396093130111694
ag2
aI731
aa(lp893
F53.459912061691284
ag2
aI732
aa(lp894
F53.52385497093201
ag4
aI158
aa(lp895
F53.584463119506836
ag2
aI733
aa(lp896
F53.624587059020996
ag2
aI734
aa(lp897
F53.687939167022705
ag2
aI735
aa(lp898
F53.756267070770264
ag4
aI159
aa(lp899
F53.77981901168823
ag2
aI736
aa(lp900
F53.815834045410156
ag2
aI737
aa(lp901
F53.87569212913513
ag2
aI738
aa(lp902
F53.93582010269165
ag2
aI739
aa(lp903
F53.98788499832153
ag2
aI740
aa(lp904
F54.072012186050415
ag2
aI741
aa(lp905
F54.12053608894348
ag4
aI160
aa(lp906
F54.18003511428833
ag2
aI742
aa(lp907
F54.25232815742493
ag2
aI743
aa(lp908
F54.29281306266785
ag2
aI744
aa(lp909
F54.3520770072937
ag4
aI161
aa(lp910
F54.42072796821594
ag2
aI745
aa(lp911
F54.472262144088745
ag2
aI746
aa(lp912
F54.53651809692383
ag2
aI747
aa(lp913
F54.63207697868347
ag2
aI748
aa(lp914
F54.664546966552734
ag2
aI749
aa(lp915
F54.70850396156311
ag2
aI750
aa(lp916
F54.771754026412964
ag4
aI162
aa(lp917
F54.84780216217041
ag2
aI751
aa(lp918
F54.8920111656189
ag2
aI752
aa(lp919
F54.96028804779053
ag2
aI753
aa(lp920
F55.00209999084473
ag4
aI163
aa(lp921
F55.064095973968506
ag2
aI754
aa(lp922
F55.13197898864746
ag2
aI755
aa(lp923
F55.19641399383545
ag2
aI756
aa(lp924
F55.25977611541748
ag2
aI757
aa(lp925
F55.30778217315674
ag2
aI758
aa(lp926
F55.3762640953064
ag2
aI759
aa(lp927
F55.423871994018555
ag4
aI164
aa(lp928
F55.49214696884155
ag2
aI760
aa(lp929
F55.55184197425842
ag2
aI761
aa(lp930
F55.59432816505432
ag2
aI762
aa(lp931
F55.68804597854614
ag2
aI763
aa(lp932
F55.7120041847229
ag2
aI764
aa(lp933
F55.773497104644775
ag2
aI765
aa(lp934
F55.871960163116455
ag2
aI766
aa(lp935
F55.92389106750488
ag2
aI767
aa(lp936
F55.971649169921875
ag4
aI165
aa(lp937
F56.01579713821411
ag2
aI768
aa(lp938
F56.07618999481201
ag2
aI769
aa(lp939
F56.13960099220276
ag2
aI770
aa(lp940
F56.2041871547699
ag2
aI771
aa(lp941
F56.22841811180115
ag2
aI772
aa(lp942
F56.307116985321045
ag2
aI773
aa(lp943
F56.3719539642334
ag4
aI166
aa(lp944
F56.43603301048279
ag2
aI774
aa(lp945
F56.503787994384766
ag2
aI775
aa(lp946
F56.548099994659424
ag2
aI776
aa(lp947
F56.61618518829346
ag4
aI167
aa(lp948
F56.679670095443726
ag2
aI777
aa(lp949
F56.743988037109375
ag2
aI778
aa(lp950
F56.78699207305908
ag2
aI779
aa(lp951
F56.8720920085907
ag2
aI780
aa(lp952
F56.92238903045654
ag2
aI781
aa(lp953
F56.983867168426514
ag2
aI782
aa(lp954
F57.06758403778076
ag2
aI783
aa(lp955
F57.09555411338806
ag2
aI784
aa(lp956
F57.12393808364868
ag2
aI785
aa(lp957
F57.16002106666565
ag4
aI168
aa(lp958
F57.18389916419983
ag2
aI786
aa(lp959
F57.22055101394653
ag2
aI787
aa(lp960
F57.28003716468811
ag2
aI788
aa(lp961
F57.32069706916809
ag4
aI169
aa(lp962
F57.41173195838928
ag2
aI789
aa(lp963
F57.479979038238525
ag2
aI790
aa(lp964
F57.571776151657104
ag2
aI791
aa(lp965
F57.60039305686951
ag2
aI792
aa(lp966
F57.667628049850464
ag4
aI170
aa(lp967
F57.707632064819336
ag2
aI793
aa(lp968
F57.76825308799744
ag2
aI794
aa(lp969
F57.83972406387329
ag2
aI795
aa(lp970
F57.884488105773926
ag4
aI171
aa(lp971
F57.94830513000488
ag2
aI796
aa(lp972
F57.99610710144043
ag2
aI797
aa(lp973
F58.06028509140015
ag2
aI798
aa(lp974
F58.14414715766907
ag2
aI799
aa(lp975
F58.171717166900635
ag2
aI800
aa(lp976
F58.23628497123718
ag2
aI801
aa(lp977
F58.30046200752258
ag4
aI172
aa(lp978
F58.340883016586304
ag2
aI802
aa(lp979
F58.40393805503845
ag2
aI803
aa(lp980
F58.47226309776306
ag2
aI804
aa(lp981
F58.53594708442688
ag4
aI173
aa(lp982
F58.57649517059326
ag2
aI805
aa(lp983
F58.644113063812256
ag2
aI806
aa(lp984
F58.70377707481384
ag2
aI807
aa(lp985
F58.79631519317627
ag2
aI808
aa(lp986
F58.82375407218933
ag2
aI809
aa(lp987
F58.90409207344055
ag2
aI810
aa(lp988
F58.963701009750366
ag4
aI174
aa(lp989
F58.987760066986084
ag2
aI811
aa(lp990
F59.023895025253296
ag2
aI812
aa(lp991
F59.08452296257019
ag2
aI813
aa(lp992
F59.12807512283325
ag4
aI175
aa(lp993
F59.19215512275696
ag2
aI814
aa(lp994
F59.259730100631714
ag2
aI815
aa(lp995
F59.3042950630188
ag2
aI816
aa(lp996
F59.39192008972168
ag2
aI817
aa(lp997
F59.4359290599823
ag2
aI818
aa(lp998
F59.480026960372925
ag2
aI819
aa(lp999
F59.54374408721924
ag4
aI176
aa(lp1000
F59.60386800765991
ag2
aI820
aa(lp1001
F59.66837000846863
ag2
aI821
aa(lp1002
F59.727890968322754
ag2
aI822
aa(lp1003
F59.767488956451416
ag4
aI177
aa(lp1004
F59.83256196975708
ag2
aI823
aa(lp1005
F59.89971113204956
ag2
aI824
aa(lp1006
F59.93895602226257
ag2
aI825
aa(lp1007
F60.02765607833862
ag2
aI826
aa(lp1008
F60.07170009613037
ag2
aI827
aa(lp1009
F60.12076210975647
ag2
aI828
aa(lp1010
F60.184110164642334
ag4
aI178
aa(lp1011
F60.252243995666504
ag2
aI829
aa(lp1012
F60.29636597633362
ag2
aI830
aa(lp1013
F60.351824045181274
ag2
aI831
aa(lp1014
F60.412304162979126
ag4
aI179
aa(lp1015
F60.47212314605713
ag2
aI832
aa(lp1016
F60.5439510345459
ag2
aI833
aa(lp1017
F60.584218978881836
ag2
aI834
aa(lp1018
F60.67591214179993
ag2
aI835
aa(lp1019
F60.73573398590088
ag2
aI836
aa(lp1020
F60.77912402153015
ag2
aI837
aa(lp1021
F60.85971212387085
ag4
aI180
aa(lp1022
F60.90806317329407
ag2
aI838
aa(lp1023
F60.971867084503174
ag2
aI839
aa(lp1024
F61.015642166137695
ag2
aI840
aa(lp1025
F61.083996057510376
ag4
aI181
aa(lp1026
F61.14787316322327
ag2
aI841
aa(lp1027
F61.19722604751587
ag2
aI842
aa(lp1028
F61.25972318649292
ag2
aI843
aa(lp1029
F61.35162115097046
ag2
aI844
aa(lp1030
F61.38011717796326
ag2
aI845
aa(lp1031
F61.43232703208923
ag2
aI846
aa(lp1032
F61.50025916099548
ag4
aI182
aa(lp1033
F61.56445908546448
ag2
aI847
aa(lp1034
F61.631848096847534
ag2
aI848
aa(lp1035
F61.67580819129944
ag2
aI849
aa(lp1036
F61.739798069000244
ag4
aI183
aa(lp1037
F61.80811309814453
ag2
aI850
aa(lp1038
F61.85179018974304
ag2
aI851
aa(lp1039
F61.91989016532898
ag2
aI852
aa(lp1040
F61.99227714538574
ag2
aI853
aa(lp1041
F62.036303997039795
ag2
aI854
aa(lp1042
F62.06071400642395
ag2
aI855
aa(lp1043
F62.17198300361633
ag4
aI184
aa(lp1044
F62.21572399139404
ag2
aI856
aa(lp1045
F62.291890144348145
ag2
aI857
aa(lp1046
F62.35638403892517
ag2
aI858
aa(lp1047
F62.404813051223755
ag4
aI185
aa(lp1048
F62.46790099143982
ag2
aI859
aa(lp1049
F62.510563135147095
ag2
aI860
aa(lp1050
F62.57214903831482
ag2
aI861
aa(lp1051
F62.663933992385864
ag2
aI862
aa(lp1052
F62.71187496185303
ag2
aI863
aa(lp1053
F62.75623798370361
ag2
aI864
aa(lp1054
F62.816163063049316
ag4
aI186
aa(lp1055
F62.87984108924866
ag2
aI865
aa(lp1056
F62.92369318008423
ag2
aI866
aa(lp1057
F62.98808813095093
ag2
aI867
aa(lp1058
F63.05968904495239
ag4
aI187
aa(lp1059
F63.10441017150879
ag2
aI868
aa(lp1060
F63.167771100997925
ag2
aI869
aa(lp1061
F63.211791038513184
ag2
aI870
aa(lp1062
F63.30376410484314
ag2
aI871
aa(lp1063
F63.32776999473572
ag2
aI872
aa(lp1064
F63.3907949924469
ag2
aI873
aa(lp1065
F63.483896017074585
ag2
aI874
aa(lp1066
F63.52811598777771
ag2
aI875
aa(lp1067
F63.5720009803772
ag2
aI876
aa(lp1068
F63.647714138031006
ag4
aI188
aa(lp1069
F63.70808410644531
ag2
aI877
aa(lp1070
F63.77612018585205
ag2
aI878
aa(lp1071
F63.79976201057434
ag2
aI879
aa(lp1072
F63.87384796142578
ag4
aI189
aa(lp1073
F63.936522006988525
ag2
aI880
aa(lp1074
F63.99576115608215
ag2
aI881
aa(lp1075
F64.0604100227356
ag2
aI882
aa(lp1076
F64.15223717689514
ag2
aI883
aa(lp1077
F64.17575001716614
ag2
aI884
aa(lp1078
F64.23615217208862
ag2
aI885
aa(lp1079
F64.30428004264832
ag4
aI190
aa(lp1080
F64.3488290309906
ag2
aI886
aa(lp1081
F64.4118001461029
ag2
aI887
aa(lp1082
F64.4761290550232
ag2
aI888
aa(lp1083
F64.53961706161499
ag4
aI191
aa(lp1084
F64.57902216911316
ag2
aI889
aa(lp1085
F64.64805316925049
ag2
aI890
aa(lp1086
F64.70875716209412
ag2
aI891
aa(lp1087
F64.80026507377625
ag2
aI892
aa(lp1088
F64.82783198356628
ag2
aI893
aa(lp1089
F64.89978098869324
ag2
aI894
aa(lp1090
F64.9599380493164
ag4
aI192
aa(lp1091
F65.0086510181427
ag2
aI895
aa(lp1092
F65.07174897193909
ag2
aI896
aa(lp1093
F65.14019012451172
ag2
aI897
aa(lp1094
F65.18403005599976
ag4
aI193
aa(lp1095
F65.2477171421051
ag2
aI898
aa(lp1096
F65.30804896354675
ag2
aI899
aa(lp1097
F65.35098814964294
ag2
aI900
aa(lp1098
F65.42764616012573
ag2
aI901
aa(lp1099
F65.47176599502563
ag2
aI902
aa(lp1100
F65.55207705497742
ag2
aI903
aa(lp1101
F65.62852311134338
ag2
aI904
aa(lp1102
F65.68779397010803
ag2
aI905
aa(lp1103
F65.76807713508606
ag2
aI906
aa(lp1104
F65.82411503791809
ag4
aI194
aa(lp1105
F65.87596917152405
ag2
aI907
aa(lp1106
F65.94332909584045
ag4
aI195
aa(lp1107
F65.98003005981445
ag2
aI908
aa(lp1108
F66.02272009849548
ag2
aI909
aa(lp1109
F66.15550518035889
ag2
aI910
aa(lp1110
F66.3076560497284
ag4
aI196
aa(lp1111
F66.36462712287903
ag2
aI911
aa(lp1112
F66.38796210289001
ag2
aI912
aa(lp1113
F66.47222304344177
ag2
aI913
aa(lp1114
F66.53626108169556
ag4
aI197
aa(lp1115
F66.62809205055237
ag2
aI914
aa(lp1116
F66.65680503845215
ag2
aI915
aa(lp1117
F66.77602815628052
ag2
aI916
aa(lp1118
F66.80814719200134
ag2
aI917
aa(lp1119
F66.85588717460632
ag4
aI198
aa(lp1120
F66.92400002479553
ag2
aI918
aa(lp1121
F66.98456597328186
ag2
aI919
aa(lp1122
F67.05202603340149
ag2
aI920
aa(lp1123
F67.07640600204468
ag4
aI199
aa(lp1124
F67.15236616134644
ag2
aI921
aa(lp1125
F67.2199649810791
ag2
aI922
aa(lp1126
F67.28419804573059
ag2
aI923
aa(lp1127
F67.37593817710876
ag2
aI924
aa(lp1128
F67.40044713020325
ag2
aI925
aa(lp1129
F67.46087098121643
ag2
aI926
aa(lp1130
F67.50815200805664
ag4
aI200
aa(lp1131
F67.57630896568298
ag2
aI927
aa(lp1132
F67.61726117134094
ag2
aI928
aa(lp1133
F67.68007206916809
ag2
aI929
aa(lp1134
F67.74416899681091
ag4
aI201
aa(lp1135
F67.81280612945557
ag2
aI930
aa(lp1136
F67.86048913002014
ag2
aI931
aa(lp1137
F67.91985511779785
ag2
aI932
aa(lp1138
F68.01664113998413
ag2
aI933
aa(lp1139
F68.04400110244751
ag2
aI934
aa(lp1140
F68.10479402542114
ag2
aI935
aa(lp1141
F68.14849209785461
ag4
aI202
aa(lp1142
F68.20812010765076
ag2
aI936
aa(lp1143
F68.27645802497864
ag2
aI937
aa(lp1144
F68.33980417251587
ag2
aI938
aa(lp1145
F68.38041019439697
ag4
aI203
aa(lp1146
F68.44452404975891
ag2
aI939
aa(lp1147
F68.50793600082397
ag2
aI940
aa(lp1148
F68.57619404792786
ag2
aI941
aa(lp1149
F68.64837408065796
ag2
aI942
aa(lp1150
F68.69235515594482
ag2
aI943
aa(lp1151
F68.75191807746887
ag2
aI944
aa(lp1152
F68.79984211921692
ag4
aI204
aa(lp1153
F68.86428999900818
ag2
aI945
aa(lp1154
F68.9402551651001
ag2
aI946
aa(lp1155
F68.98408102989197
ag2
aI947
aa(lp1156
F69.0524890422821
ag4
aI205
aa(lp1157
F69.12825608253479
ag2
aI948
aa(lp1158
F69.1717300415039
ag2
aI949
aa(lp1159
F69.24014902114868
ag2
aI950
aa(lp1160
F69.31232619285583
ag2
aI951
aa(lp1161
F69.35630106925964
ag2
aI952
aa(lp1162
F69.41985011100769
ag2
aI953
aa(lp1163
F69.46448516845703
ag4
aI206
aa(lp1164
F69.53191900253296
ag2
aI954
aa(lp1165
F69.57222199440002
ag2
aI955
aa(lp1166
F69.64022302627563
ag2
aI956
aa(lp1167
F69.70362710952759
ag4
aI207
aa(lp1168
F69.74569201469421
ag2
aI957
aa(lp1169
F69.80819797515869
ag2
aI958
aa(lp1170
F69.87162804603577
ag2
aI959
aa(lp1171
F69.96841716766357
ag2
aI960
aa(lp1172
F70.00449299812317
ag2
aI961
aa(lp1173
F70.04506611824036
ag2
aI962
aa(lp1174
F70.10816097259521
ag4
aI208
aa(lp1175
F70.1798620223999
ag2
aI963
aa(lp1176
F70.2243230342865
ag2
aI964
aa(lp1177
F70.28768801689148
ag2
aI965
aa(lp1178
F70.35597801208496
ag4
aI209
aa(lp1179
F70.40030407905579
ag2
aI966
aa(lp1180
F70.46439719200134
ag2
aI967
aa(lp1181
F70.53170800209045
ag2
aI968
aa(lp1182
F70.5921790599823
ag2
aI969
aa(lp1183
F70.65181517601013
ag2
aI970
aa(lp1184
F70.69248008728027
ag2
aI971
aa(lp1185
F70.76411414146423
ag4
aI210
aa(lp1186
F70.82783102989197
ag2
aI972
aa(lp1187
F70.89593195915222
ag2
aI973
aa(lp1188
F70.94036412239075
ag2
aI974
aa(lp1189
F71.004390001297
ag4
aI211
aa(lp1190
F71.06410717964172
ag2
aI975
aa(lp1191
F71.12829399108887
ag2
aI976
aa(lp1192
F71.18780303001404
ag2
aI977
aa(lp1193
F71.25253009796143
ag2
aI978
aa(lp1194
F71.29653596878052
ag2
aI979
aa(lp1195
F71.36392712593079
ag2
aI980
aa(lp1196
F71.4077000617981
ag4
aI212
aa(lp1197
F71.47191405296326
ag2
aI981
aa(lp1198
F71.53576898574829
ag2
aI982
aa(lp1199
F71.58422708511353
ag2
aI983
aa(lp1200
F71.64769411087036
ag4
aI213
aa(lp1201
F71.70848798751831
ag2
aI984
aa(lp1202
F71.77189707756042
ag2
aI985
aa(lp1203
F71.81574511528015
ag2
aI986
aa(lp1204
F71.90362000465393
ag2
aI987
aa(lp1205
F71.94841504096985
ag2
aI988
aa(lp1206
F71.99266505241394
ag2
aI989
aa(lp1207
F72.05204606056213
ag4
aI214
aa(lp1208
F72.12028217315674
ag2
aI990
aa(lp1209
F72.1642541885376
ag2
aI991
aa(lp1210
F72.2238941192627
ag2
aI992
aa(lp1211
F72.30384802818298
ag4
aI215
aa(lp1212
F72.36858701705933
ag2
aI993
aa(lp1213
F72.42790412902832
ag2
aI994
aa(lp1214
F72.4933111667633
ag2
aI995
aa(lp1215
F72.56378602981567
ag2
aI996
aa(lp1216
F72.59187006950378
ag2
aI997
aa(lp1217
F72.6604700088501
ag2
aI998
aa(lp1218
F72.72363495826721
ag4
aI216
aa(lp1219
F72.76401114463806
ag2
aI999
aa(lp1220
F72.83202409744263
ag2
aI1000
aa(lp1221
F72.91982197761536
ag4
aI217
aa(lp1222
F72.94851398468018
ag2
aI1001
aa(lp1223
F73.03224301338196
ag2
aI1002
aa(lp1224
F73.09967517852783
ag2
aI1003
aa(lp1225
F73.12804007530212
ag2
aI1004
aa(lp1226
F73.19259595870972
ag2
aI1005
aa(lp1227
F73.2398750782013
ag4
aI218
aa(lp1228
F73.3000180721283
ag2
aI1006
aa(lp1229
F73.3679211139679
ag2
aI1007
aa(lp1230
F73.40722107887268
ag2
aI1008
aa(lp1231
F73.50003004074097
ag2
aI1009
aa(lp1232
F73.54389595985413
ag2
aI1010
aa(lp1233
F73.5878050327301
ag2
aI1011
aa(lp1234
F73.65626096725464
ag4
aI219
aa(lp1235
F73.7001280784607
ag2
aI1012
aa(lp1236
F73.75984501838684
ag2
aI1013
aa(lp1237
F73.82829999923706
ag2
aI1014
aa(lp1238
F73.9002411365509
ag2
aI1015
aa(lp1239
F73.94421100616455
ag2
aI1016
aa(lp1240
F74.00406002998352
ag2
aI1017
aa(lp1241
F74.06824111938477
ag4
aI220
aa(lp1242
F74.1319751739502
ag2
aI1018
aa(lp1243
F74.1737470626831
ag2
aI1019
aa(lp1244
F74.23624897003174
ag2
aI1020
aa(lp1245
F74.30371403694153
ag4
aI221
aa(lp1246
F74.3278751373291
ag2
aI1021
aa(lp1247
F74.3763120174408
ag2
aI1022
aa(lp1248
F74.42386507987976
ag2
aI1023
aa(lp1249
F74.51640105247498
ag2
aI1024
aa(lp1250
F74.53963303565979
ag2
aI1025
aa(lp1251
F74.60426115989685
ag2
aI1026
aa(lp1252
F74.66778898239136
ag4
aI222
aa(lp1253
F74.70857310295105
ag2
aI1027
aa(lp1254
F74.7725281715393
ag2
aI1028
aa(lp1255
F74.83554100990295
ag2
aI1029
aa(lp1256
F74.90378499031067
ag4
aI223
aa(lp1257
F74.94488000869751
ag2
aI1030
aa(lp1258
F75.00833702087402
ag2
aI1031
aa(lp1259
F75.07588410377502
ag2
aI1032
aa(lp1260
F75.15592908859253
ag2
aI1033
aa(lp1261
F75.20374298095703
ag2
aI1034
aa(lp1262
F75.2477719783783
ag2
aI1035
aa(lp1263
F75.32033705711365
ag4
aI224
aa(lp1264
F75.36808896064758
ag2
aI1036
aa(lp1265
F75.43596196174622
ag2
aI1037
aa(lp1266
F75.4957389831543
ag2
aI1038
aa(lp1267
F75.543781042099
ag4
aI225
aa(lp1268
F75.6078519821167
ag2
aI1039
aa(lp1269
F75.67182517051697
ag2
aI1040
aa(lp1270
F75.7361831665039
ag2
aI1041
aa(lp1271
F75.80811309814453
ag2
aI1042
aa(lp1272
F75.85608911514282
ag2
aI1043
aa(lp1273
F75.89999914169312
ag2
aI1044
aa(lp1274
F75.9596471786499
ag4
aI226
aa(lp1275
F76.05208206176758
ag2
aI1045
aa(lp1276
F76.08356499671936
ag2
aI1046
aa(lp1277
F76.17214107513428
ag2
aI1047
aa(lp1278
F76.2036600112915
ag2
aI1048
aa(lp1279
F76.2521140575409
ag2
aI1049
aa(lp1280
F76.34395813941956
ag2
aI1050
aa(lp1281
F76.37632703781128
ag2
aI1051
aa(lp1282
F76.44345211982727
ag2
aI1052
aa(lp1283
F76.51191210746765
ag2
aI1053
aa(lp1284
F76.57545018196106
ag2
aI1054
aa(lp1285
F76.66777014732361
ag4
aI227
aa(lp1286
F76.7448000907898
ag2
aI1055
aa(lp1287
F76.79238104820251
ag2
aI1056
aa(lp1288
F76.87260913848877
ag2
aI1057
aa(lp1289
F76.93951511383057
ag2
aI1058
aa(lp1290
F76.9913740158081
ag2
aI1059
aa(lp1291
F77.05984401702881
ag2
aI1060
aa(lp1292
F77.08762717247009
ag2
aI1061
aa(lp1293
F77.15133118629456
ag2
aI1062
aa(lp1294
F77.23575115203857
ag2
aI1063
aa(lp1295
F77.2639729976654
ag2
aI1064
aa(lp1296
F77.33263897895813
ag2
aI1065
aa(lp1297
F77.41604399681091
ag2
aI1066
aa(lp1298
F77.47967910766602
ag2
aI1067
aa(lp1299
F77.54742908477783
ag2
aI1068
aa(lp1300
F77.6396369934082
ag2
aI1069
aa(lp1301
F77.71227312088013
ag2
aI1070
aa(lp1302
F77.80078411102295
ag2
aI1071
aa(lp1303
F77.86009311676025
ag2
aI1072
aa(lp1304
F77.91628003120422
ag2
aI1073
aa(lp1305
F77.97301411628723
ag2
aI1074
aa(lp1306
F78.00007915496826
ag4
aI228
aa(lp1307
F78.0643880367279
ag2
aI1075
aa(lp1308
F78.12845015525818
ag2
aI1076
aa(lp1309
F78.21994113922119
ag4
aI229
aa(lp1310
F78.24839997291565
ag2
aI1077
aa(lp1311
F78.31207299232483
ag2
aI1078
aa(lp1312
F78.35635995864868
ag2
aI1079
aa(lp1313
F78.44394612312317
ag2
aI1080
aa(lp1314
F78.5090479850769
ag2
aI1081
aa(lp1315
F78.53611612319946
ag4
aI230
aa(lp1316
F78.60450315475464
ag2
aI1082
aa(lp1317
F78.6521520614624
ag2
aI1083
aa(lp1318
F78.74774217605591
ag4
aI231
aa(lp1319
F78.77658414840698
ag2
aI1084
aa(lp1320
F78.8401710987091
ag2
aI1085
aa(lp1321
F78.90489912033081
ag2
aI1086
aa(lp1322
F78.98855710029602
ag2
aI1087
aa(lp1323
F79.01609706878662
ag2
aI1088
aa(lp1324
F79.07606911659241
ag2
aI1089
aa(lp1325
F79.16411399841309
ag2
aI1090
aa(lp1326
F79.1921739578247
ag2
aI1091
aa(lp1327
F79.25180697441101
ag2
aI1092
aa(lp1328
F79.31237816810608
ag4
aI232
aa(lp1329
F79.40408301353455
ag2
aI1093
aa(lp1330
F79.42789101600647
ag2
aI1094
aa(lp1331
F79.49626612663269
ag4
aI233
aa(lp1332
F79.53992009162903
ag2
aI1095
aa(lp1333
F79.60049104690552
ag2
aI1096
aa(lp1334
F79.67171311378479
ag2
aI1097
aa(lp1335
F79.73643207550049
ag2
aI1098
aa(lp1336
F79.78015398979187
ag2
aI1099
aa(lp1337
F79.84385514259338
ag2
aI1100
aa(lp1338
F79.9276511669159
ag2
aI1101
aa(lp1339
F79.95585608482361
ag2
aI1102
aa(lp1340
F80.03215217590332
ag2
aI1103
aa(lp1341
F80.11968207359314
ag2
aI1104
aa(lp1342
F80.14777398109436
ag2
aI1105
aa(lp1343
F80.20763301849365
ag2
aI1106
aa(lp1344
F80.26431608200073
ag4
aI234
aa(lp1345
F80.32417798042297
ag2
aI1107
aa(lp1346
F80.38844203948975
ag2
aI1108
aa(lp1347
F80.47591400146484
ag4
aI235
aa(lp1348
F80.49969601631165
ag2
aI1109
aa(lp1349
F80.56032419204712
ag2
aI1110
aa(lp1350
F80.6556761264801
ag2
aI1111
aa(lp1351
F80.68419814109802
ag2
aI1112
aa(lp1352
F80.72542119026184
ag2
aI1113
aa(lp1353
F80.78767704963684
ag4
aI236
aa(lp1354
F80.85238313674927
ag2
aI1114
aa(lp1355
F80.91553711891174
ag2
aI1115
aa(lp1356
F80.93997716903687
ag2
aI1116
aa(lp1357
F81.03996896743774
ag2
aI1117
aa(lp1358
F81.08374118804932
ag2
aI1118
aa(lp1359
F81.1770510673523
ag4
aI237
aa(lp1360
F81.199716091156
ag2
aI1119
aa(lp1361
F81.29226303100586
ag2
aI1120
aa(lp1362
F81.34054899215698
ag2
aI1121
aa(lp1363
F81.41629004478455
ag2
aI1122
aa(lp1364
F81.4437460899353
ag4
aI238
aa(lp1365
F81.48467302322388
ag2
aI1123
aa(lp1366
F81.57661700248718
ag2
aI1124
aa(lp1367
F81.65151500701904
ag2
aI1125
aa(lp1368
F81.71139311790466
ag2
aI1126
aa(lp1369
F81.74831104278564
ag4
aI239
aa(lp1370
F81.80042004585266
ag2
aI1127
aa(lp1371
F81.84400200843811
ag2
aI1128
aa(lp1372
F81.96855211257935
ag2
aI1129
aa(lp1373
F81.9967429637909
ag2
aI1130
aa(lp1374
F82.04101800918579
ag2
aI1131
aa(lp1375
F82.10800313949585
ag4
aI240
aa(lp1376
F82.13626599311829
ag2
aI1132
aa(lp1377
F82.21384406089783
ag2
aI1133
aa(lp1378
F82.27231216430664
ag2
aI1134
aa(lp1379
F82.33184099197388
ag4
aI241
aa(lp1380
F82.40023517608643
ag2
aI1135
aa(lp1381
F82.44280219078064
ag2
aI1136
aa(lp1382
F82.50810599327087
ag2
aI1137
aa(lp1383
F82.59598898887634
ag2
aI1138
aa(lp1384
F82.63995814323425
ag2
aI1139
aa(lp1385
F82.69577503204346
ag2
aI1140
aa(lp1386
F82.75612998008728
ag4
aI242
aa(lp1387
F82.79822397232056
ag2
aI1141
aa(lp1388
F82.86381101608276
ag2
aI1142
aa(lp1389
F82.92796206474304
ag2
aI1143
aa(lp1390
F82.99241900444031
ag4
aI243
aa(lp1391
F83.05584597587585
ag2
aI1144
aa(lp1392
F83.09612798690796
ag2
aI1145
aa(lp1393
F83.18763613700867
ag2
aI1146
aa(lp1394
F83.25997114181519
ag2
aI1147
aa(lp1395
F83.2843611240387
ag4
aI244
aa(lp1396
F83.37586116790771
ag2
aI1148
aa(lp1397
F83.40464997291565
ag2
aI1149
aa(lp1398
F83.50414419174194
ag2
aI1150
aa(lp1399
F83.53237915039062
ag2
aI1151
aa(lp1400
F83.61549806594849
ag4
aI245
aa(lp1401
F83.6438500881195
ag2
aI1152
aa(lp1402
F83.70822095870972
ag2
aI1153
aa(lp1403
F83.7515230178833
ag2
aI1154
aa(lp1404
F83.8441231250763
ag2
aI1155
aa(lp1405
F83.8839750289917
ag2
aI1156
aa(lp1406
F83.92451405525208
ag2
aI1157
aa(lp1407
F83.98462414741516
ag4
aI246
aa(lp1408
F84.05217909812927
ag2
aI1158
aa(lp1409
F84.11634516716003
ag2
aI1159
aa(lp1410
F84.15909314155579
ag2
aI1160
aa(lp1411
F84.2278151512146
ag4
aI247
aa(lp1412
F84.29618310928345
ag2
aI1161
aa(lp1413
F84.34001612663269
ag2
aI1162
aa(lp1414
F84.40477800369263
ag2
aI1163
aa(lp1415
F84.50011610984802
ag2
aI1164
aa(lp1416
F84.52839612960815
ag2
aI1165
aa(lp1417
F84.58838605880737
ag2
aI1166
aa(lp1418
F84.63397598266602
ag4
aI248
aa(lp1419
F84.70062708854675
ag2
aI1167
aa(lp1420
F84.76366996765137
ag2
aI1168
aa(lp1421
F84.82808709144592
ag2
aI1169
aa(lp1422
F84.86919617652893
ag4
aI249
aa(lp1423
F84.9318380355835
ag2
aI1170
aa(lp1424
F85.00001907348633
ag2
aI1171
aa(lp1425
F85.06858515739441
ag2
aI1172
aa(lp1426
F85.14455509185791
ag2
aI1173
aa(lp1427
F85.17190217971802
ag2
aI1174
aa(lp1428
F85.2325611114502
ag2
aI1175
aa(lp1429
F85.31642007827759
ag4
aI250
aa(lp1430
F85.35658001899719
ag2
aI1176
aa(lp1431
F85.42381310462952
ag2
aI1177
aa(lp1432
F85.48830318450928
ag2
aI1178
aa(lp1433
F85.53606915473938
ag4
aI251
aa(lp1434
F85.59561014175415
ag2
aI1179
aa(lp1435
F85.66385507583618
ag2
aI1180
aa(lp1436
F85.70419216156006
ag2
aI1181
aa(lp1437
F85.7959451675415
ag2
aI1182
aa(lp1438
F85.82405805587769
ag2
aI1183
aa(lp1439
F85.8885600566864
ag2
aI1184
aa(lp1440
F85.93448400497437
ag4
aI252
aa(lp1441
F86.02471399307251
ag2
aI1185
aa(lp1442
F86.06817317008972
ag2
aI1186
aa(lp1443
F86.12782216072083
ag4
aI253
aa(lp1444
F86.16815900802612
ag2
aI1187
aa(lp1445
F86.23229002952576
ag2
aI1188
aa(lp1446
F86.30410408973694
ag2
aI1189
aa(lp1447
F86.37578296661377
ag2
aI1190
aa(lp1448
F86.42466902732849
ag2
aI1191
aa(lp1449
F86.47189998626709
ag2
aI1192
aa(lp1450
F86.55625295639038
ag4
aI254
aa(lp1451
F86.60594415664673
ag2
aI1193
aa(lp1452
F86.67252016067505
ag2
aI1194
aa(lp1453
F86.73589706420898
ag2
aI1195
aa(lp1454
F86.80428218841553
ag4
aI255
aa(lp1455
F86.84437298774719
ag2
aI1196
aa(lp1456
F86.9117751121521
ag2
aI1197
aa(lp1457
F86.97248196601868
ag2
aI1198
aa(lp1458
F87.06002616882324
ag2
aI1199
aa(lp1459
F87.08371019363403
ag2
aI1200
aa(lp1460
F87.16938805580139
ag4
aI256
aa(lp1461
F87.24954009056091
ag2
aI1201
aa(lp1462
F87.31099605560303
ag4
aI257
aa(lp1463
F87.36683702468872
ag2
aI1202
aa(lp1464
F87.44402599334717
ag2
aI1203
aa(lp1465
F87.47239303588867
ag2
aI1204
aa(lp1466
F87.51636099815369
ag2
aI1205
aa(lp1467
F87.58022713661194
ag4
aI258
aa(lp1468
F87.64435195922852
ag2
aI1206
aa(lp1469
F87.68798303604126
ag2
aI1207
aa(lp1470
F87.74785304069519
ag2
aI1208
aa(lp1471
F87.81222009658813
ag4
aI259
aa(lp1472
F87.87586617469788
ag2
aI1209
aa(lp1473
F87.89993810653687
ag2
aI1210
aa(lp1474
F87.97803401947021
ag2
aI1211
aa(lp1475
F88.06395602226257
ag2
aI1212
aa(lp1476
F88.11191701889038
ag2
aI1213
aa(lp1477
F88.153156042099
ag2
aI1214
aa(lp1478
F88.21670007705688
ag4
aI260
aa(lp1479
F88.28009510040283
ag2
aI1215
aa(lp1480
F88.3445611000061
ag2
aI1216
aa(lp1481
F88.38904809951782
ag2
aI1217
aa(lp1482
F88.45646905899048
ag4
aI261
aa(lp1483
F88.54442310333252
ag2
aI1218
aa(lp1484
F88.66786909103394
ag2
aI1219
aa(lp1485
F88.69592809677124
ag2
aI1220
aa(lp1486
F88.76445317268372
ag2
aI1221
aa(lp1487
F88.80807209014893
ag4
aI262
aa(lp1488
F88.87277913093567
ag2
aI1222
aa(lp1489
F88.9323320388794
ag2
aI1223
aa(lp1490
F88.99684119224548
ag2
aI1224
aa(lp1491
F89.05635619163513
ag4
aI263
aa(lp1492
F89.10417604446411
ag2
aI1225
aa(lp1493
F89.17240118980408
ag2
aI1226
aa(lp1494
F89.27204012870789
ag2
aI1227
aa(lp1495
F89.30436897277832
ag2
aI1228
aa(lp1496
F89.36410617828369
ag2
aI1229
aa(lp1497
F89.43184900283813
ag4
aI264
aa(lp1498
F89.48012900352478
ag2
aI1230
aa(lp1499
F89.53649306297302
ag2
aI1231
aa(lp1500
F89.60384011268616
ag2
aI1232
aa(lp1501
F89.65622401237488
ag4
aI265
aa(lp1502
F89.73649215698242
ag2
aI1233
aa(lp1503
F89.77626609802246
ag2
aI1234
aa(lp1504
F89.8478410243988
ag2
aI1235
aa(lp1505
F89.89578104019165
ag2
aI1236
aa(lp1506
F89.94382500648499
ag2
aI1237
aa(lp1507
F90.00856709480286
ag4
aI266
aa(lp1508
F90.06038308143616
ag2
aI1238
aa(lp1509
F90.12433695793152
ag2
aI1239
aa(lp1510
F90.1683280467987
ag2
aI1240
aa(lp1511
F90.24447011947632
ag4
aI267
aa(lp1512
F90.2845470905304
ag2
aI1241
aa(lp1513
F90.34369015693665
ag2
aI1242
aa(lp1514
F90.41138410568237
ag2
aI1243
aa(lp1515
F90.50397300720215
ag2
aI1244
aa(lp1516
F90.53708505630493
ag2
aI1245
aa(lp1517
F90.60194611549377
ag4
aI268
aa(lp1518
F90.6337251663208
ag2
aI1246
aa(lp1519
F90.69628310203552
ag2
aI1247
aa(lp1520
F90.75285816192627
ag2
aI1248
aa(lp1521
F90.81910014152527
ag4
aI269
aa(lp1522
F90.89995908737183
ag2
aI1249
aa(lp1523
F90.94528317451477
ag2
aI1250
aa(lp1524
F91.03916907310486
ag2
aI1251
aa(lp1525
F91.07297015190125
ag2
aI1252
aa(lp1526
F91.11680603027344
ag4
aI270
aa(lp1527
F91.18060517311096
ag2
aI1253
aa(lp1528
F91.24899697303772
ag2
aI1254
aa(lp1529
F91.28919005393982
ag2
aI1255
aa(lp1530
F91.34834003448486
ag4
aI271
aa(lp1531
F91.41788101196289
ag2
aI1256
aa(lp1532
F91.45906496047974
ag2
aI1257
aa(lp1533
F91.52142405509949
ag2
aI1258
aa(lp1534
F91.63744711875916
ag2
aI1259
aa(lp1535
F91.66349911689758
ag2
aI1260
aa(lp1536
F91.73537611961365
ag2
aI1261
aa(lp1537
F91.80545115470886
ag4
aI272
aa(lp1538
F91.88006496429443
ag2
aI1262
aa(lp1539
F91.9167959690094
ag2
aI1263
aa(lp1540
F91.9582781791687
ag4
aI273
aa(lp1541
F92.04794907569885
ag2
aI1264
aa(lp1542
F92.09259605407715
ag2
aI1265
aa(lp1543
F92.18032598495483
ag2
aI1266
aa(lp1544
F92.20774006843567
ag2
aI1267
aa(lp1545
F92.26917314529419
ag2
aI1268
aa(lp1546
F92.32851314544678
ag4
aI274
aa(lp1547
F92.39324402809143
ag2
aI1269
aa(lp1548
F92.45377016067505
ag2
aI1270
aa(lp1549
F92.49367499351501
ag2
aI1271
aa(lp1550
F92.55629110336304
ag4
aI275
aa(lp1551
F92.61744213104248
ag2
aI1272
aa(lp1552
F92.68525218963623
ag2
aI1273
aa(lp1553
F92.7446870803833
ag2
aI1274
aa(lp1554
F92.81175017356873
ag2
aI1275
aa(lp1555
F92.86775612831116
ag2
aI1276
aa(lp1556
F92.97973608970642
ag4
aI276
aa(lp1557
F93.04067897796631
ag2
aI1277
aa(lp1558
F93.10470795631409
ag2
aI1278
aa(lp1559
F93.14975118637085
ag2
aI1279
aa(lp1560
F93.20916509628296
ag4
aI277
aa(lp1561
F93.28002905845642
ag2
aI1280
aa(lp1562
F93.35221695899963
ag2
aI1281
aa(lp1563
F93.41183710098267
ag2
aI1282
aa(lp1564
F93.47632813453674
ag2
aI1283
aa(lp1565
F93.53234195709229
ag2
aI1284
aa(lp1566
F93.5799150466919
ag2
aI1285
aa(lp1567
F93.64435911178589
ag2
aI1286
aa(lp1568
F93.69599604606628
ag2
aI1287
aa(lp1569
F93.76407504081726
ag4
aI278
aa(lp1570
F93.81609106063843
ag2
aI1288
aa(lp1571
F93.89233803749084
ag2
aI1289
aa(lp1572
F93.9279351234436
ag4
aI279
aa(lp1573
F93.99208617210388
ag2
aI1290
aa(lp1574
F94.07197308540344
ag2
aI1291
aa(lp1575
F94.15180110931396
ag2
aI1292
aa(lp1576
F94.18478512763977
ag2
aI1293
aa(lp1577
F94.23605298995972
ag4
aI280
aa(lp1578
F94.30856513977051
ag2
aI1294
aa(lp1579
F94.3758270740509
ag2
aI1295
aa(lp1580
F94.42355799674988
ag4
aI281
aa(lp1581
F94.46883916854858
ag2
aI1296
aa(lp1582
F94.55262613296509
ag2
aI1297
aa(lp1583
F94.61228609085083
ag2
aI1298
aa(lp1584
F94.64439415931702
ag2
aI1299
aa(lp1585
F94.80741596221924
ag2
aI1300
aa(lp1586
F94.93599915504456
ag2
aI1301
aa(lp1587
F95.03659105300903
ag2
aI1302
aa(lp1588
F95.10030102729797
ag2
aI1303
aa(lp1589
F95.1391761302948
ag4
aI282
aa(lp1590
F95.22485017776489
ag2
aI1304
aa(lp1591
F95.28093314170837
ag2
aI1305
aa(lp1592
F95.3637101650238
ag4
aI283
aa(lp1593
F95.42840814590454
ag2
aI1306
aa(lp1594
F95.52410697937012
ag2
aI1307
aa(lp1595
F95.55695414543152
ag2
aI1308
aa(lp1596
F95.64801096916199
ag2
aI1309
aa(lp1597
F95.69223213195801
ag2
aI1310
aa(lp1598
F95.77643704414368
ag4
aI284
aa(lp1599
F95.86448097229004
ag2
aI1311
aa(lp1600
F95.93593311309814
ag2
aI1312
aa(lp1601
F95.98859000205994
ag2
aI1313
aa(lp1602
F96.0360050201416
ag4
aI285
aa(lp1603
F96.10847496986389
ag2
aI1314
aa(lp1604
F96.16413998603821
ag2
aI1315
aa(lp1605
F96.27195405960083
ag2
aI1316
aa(lp1606
F96.36018800735474
ag2
aI1317
aa(lp1607
F96.43177509307861
ag2
aI1318
aa(lp1608
F96.49184012413025
ag2
aI1319
aa(lp1609
F96.52409601211548
ag2
aI1320
aa(lp1610
F96.57591199874878
ag2
aI1321
aa(lp1611
F96.65208697319031
ag4
aI286
aa(lp1612
F96.69642615318298
ag2
aI1322
aa(lp1613
F96.78792119026184
ag2
aI1323
aa(lp1614
F96.82023310661316
ag4
aI287
aa(lp1615
F96.91986107826233
ag2
aI1324
aa(lp1616
F97.02451801300049
ag2
aI1325
aa(lp1617
F97.07614517211914
ag4
aI288
aa(lp1618
F97.127925157547
ag2
aI1326
aa(lp1619
F97.17588806152344
ag2
aI1327
aa(lp1620
F97.23230218887329
ag4
aI289
aa(lp1621
F97.27078914642334
ag2
aI1328
aa(lp1622
F97.35245704650879
ag2
aI1329
aa(lp1623
F97.42853116989136
ag2
aI1330
aa(lp1624
F97.46380400657654
ag2
aI1331
aa(lp1625
F97.50776100158691
ag2
aI1332
aa(lp1626
F97.57216811180115
ag4
aI290
aa(lp1627
F97.63779997825623
ag2
aI1333
aa(lp1628
F97.68117904663086
ag2
aI1334
aa(lp1629
F97.74470114707947
ag2
aI1335
aa(lp1630
F97.81643605232239
ag4
aI291
aa(lp1631
F97.88505005836487
ag2
aI1336
aa(lp1632
F97.92507219314575
ag2
aI1337
aa(lp1633
F97.98884201049805
ag2
aI1338
aa(lp1634
F98.0727231502533
ag2
aI1339
aa(lp1635
F98.11266303062439
ag2
aI1340
aa(lp1636
F98.16063499450684
ag2
aI1341
aa(lp1637
F98.22531318664551
ag4
aI292
aa(lp1638
F98.28862619400024
ag2
aI1342
aa(lp1639
F98.34896898269653
ag2
aI1343
aa(lp1640
F98.40842914581299
ag2
aI1344
aa(lp1641
F98.46873903274536
ag4
aI293
aa(lp1642
F98.53225517272949
ag2
aI1345
aa(lp1643
F98.6317491531372
ag2
aI1346
aa(lp1644
F98.69971513748169
ag2
aI1347
aa(lp1645
F98.79944515228271
ag2
aI1348
aa(lp1646
F98.82776498794556
ag2
aI1349
aa(lp1647
F98.9243221282959
ag4
aI294
aa(lp1648
F98.97607898712158
ag2
aI1350
aa(lp1649
F99.02411818504333
ag2
aI1351
aa(lp1650
F99.07995009422302
ag4
aI295
aa(lp1651
F99.15214896202087
ag2
aI1352
aa(lp1652
F99.2080671787262
ag2
aI1353
aa(lp1653
F99.2885570526123
ag2
aI1354
aa(lp1654
F99.35184907913208
ag2
aI1355
aa(lp1655
F99.47596311569214
ag2
aI1356
aa(lp1656
F99.50825119018555
ag2
aI1357
aa(lp1657
F99.60021114349365
ag2
aI1358
aa(lp1658
F99.660560131073
ag2
aI1359
aa(lp1659
F99.6915500164032
ag4
aI296
aa(lp1660
F99.76803517341614
ag2
aI1360
aa(lp1661
F99.81597995758057
ag2
aI1361
aa(lp1662
F99.87151312828064
ag4
aI297
aa(lp1663
F99.92077398300171
ag2
aI1362
aa(lp1664
F99.99242496490479
ag2
aI1363
aa(lp1665
F100.03655505180359
ag2
aI1364
aa(lp1666
F100.14053010940552
ag2
aI1365
aa(lp1667
F100.1719901561737
ag2
aI1366
aa(lp1668
F100.22095108032227
ag2
aI1367
aa(lp1669
F100.2804811000824
ag4
aI298
aa(lp1670
F100.34529900550842
ag2
aI1368
aa(lp1671
F100.40917015075684
ag2
aI1369
aa(lp1672
F100.4522180557251
ag2
aI1370
aa(lp1673
F100.54798913002014
ag2
aI1371
aa(lp1674
F100.57566213607788
ag2
aI1372
aa(lp1675
F100.64770603179932
ag2
aI1373
aa(lp1676
F100.68859195709229
ag4
aI299
aa(lp1677
F100.75625801086426
ag2
aI1374
aa(lp1678
F100.83259415626526
ag2
aI1375
aa(lp1679
F100.94706916809082
ag2
aI1376
aa(lp1680
F101.00664901733398
ag4
aI300
aa(lp1681
F101.10357809066772
ag2
aI1377
aa(lp1682
F101.14440703392029
ag2
aI1378
aa(lp1683
F101.20873808860779
ag4
aI301
aa(lp1684
F101.26841902732849
ag2
aI1379
aa(lp1685
F101.37287902832031
ag2
aI1380
aa(lp1686
F101.42868113517761
ag2
aI1381
aa(lp1687
F101.52835011482239
ag2
aI1382
aa(lp1688
F101.56892895698547
ag2
aI1383
aa(lp1689
F101.63251399993896
ag2
aI1384
aa(lp1690
F101.67867612838745
ag4
aI302
aa(lp1691
F101.74505400657654
ag2
aI1385
aa(lp1692
F101.80442404747009
ag2
aI1386
aa(lp1693
F101.86502313613892
ag2
aI1387
aa(lp1694
F101.92837309837341
ag4
aI303
aa(lp1695
F101.95277404785156
ag2
aI1388
aa(lp1696
F102.03654313087463
ag2
aI1389
aa(lp1697
F102.09663701057434
ag2
aI1390
aa(lp1698
F102.21549606323242
ag2
aI1391
aa(lp1699
F102.23998713493347
ag2
aI1392
aa(lp1700
F102.30348896980286
ag2
aI1393
aa(lp1701
F102.37590098381042
ag4
aI304
aa(lp1702
F102.42373704910278
ag2
aI1394
aa(lp1703
F102.48790097236633
ag2
aI1395
aa(lp1704
F102.57181406021118
ag4
aI305
aa(lp1705
F102.60019898414612
ag2
aI1396
aa(lp1706
F102.66798114776611
ag2
aI1397
aa(lp1707
F102.73210906982422
ag2
aI1398
aa(lp1708
F102.77620816230774
ag2
aI1399
aa(lp1709
F102.83956503868103
ag2
aI1400
aa(lp1710
F102.88517904281616
ag4
aI306
aa(lp1711
F102.98111701011658
ag2
aI1401
aa(lp1712
F103.02402901649475
ag2
aI1402
aa(lp1713
F103.0680000782013
ag4
aI307
aa(lp1714
F103.14812111854553
ag2
aI1403
aa(lp1715
F103.21576404571533
ag2
aI1404
aa(lp1716
F103.26002502441406
ag2
aI1405
aa(lp1717
F103.38261604309082
ag2
aI1406
aa(lp1718
F103.44305396080017
ag4
aI308
aa(lp1719
F103.53954911231995
ag2
aI1407
aa(lp1720
F103.56794595718384
ag2
aI1408
aa(lp1721
F103.65181398391724
ag2
aI1409
aa(lp1722
F103.71646499633789
ag2
aI1410
aa(lp1723
F103.77199602127075
ag2
aI1411
aa(lp1724
F103.80035018920898
ag2
aI1412
aa(lp1725
F103.86791896820068
ag2
aI1413
aa(lp1726
F103.92754817008972
ag4
aI309
aa(lp1727
F104.04826807975769
ag2
aI1414
aa(lp1728
F104.1701500415802
ag2
aI1415
aa(lp1729
F104.20642900466919
ag2
aI1416
aa(lp1730
F104.36751914024353
ag4
aI310
aa(lp1731
F104.3994951248169
ag2
aI1417
aa(lp1732
F104.45953798294067
ag2
aI1418
aa(lp1733
F104.52768898010254
ag4
aI311
aa(lp1734
F104.57582497596741
ag2
aI1419
aa(lp1735
F104.64779019355774
ag2
aI1420
aa(lp1736
F104.70757102966309
ag2
aI1421
aa(lp1737
F104.79643297195435
ag2
aI1422
aa(lp1738
F104.83631896972656
ag2
aI1423
aa(lp1739
F104.88774609565735
ag2
aI1424
aa(lp1740
F104.96411418914795
ag2
aI1425
aa(lp1741
F104.9915599822998
ag2
aI1426
aa(lp1742
F105.0558831691742
ag2
aI1427
aa(lp1743
F105.15177297592163
ag2
aI1428
aa(lp1744
F105.18406701087952
ag2
aI1429
aa(lp1745
F105.256098985672
ag4
aI312
aa(lp1746
F105.30399799346924
ag2
aI1430
aa(lp1747
F105.34762406349182
ag2
aI1431
aa(lp1748
F105.40776515007019
ag2
aI1432
aa(lp1749
F105.47184300422668
ag4
aI313
aa(lp1750
F105.5598931312561
ag2
aI1433
aa(lp1751
F105.58785915374756
ag2
aI1434
aa(lp1752
F105.67212200164795
ag2
aI1435
aa(lp1753
F105.70201396942139
ag2
aI1436
aa(lp1754
F105.81626415252686
ag4
aI314
aa(lp1755
F105.84416604042053
ag2
aI1437
aa(lp1756
F105.91183018684387
ag2
aI1438
aa(lp1757
F105.96841216087341
ag2
aI1439
aa(lp1758
F106.03668212890625
ag4
aI315
aa(lp1759
F106.08047318458557
ag2
aI1440
aa(lp1760
F106.13995313644409
ag2
aI1441
aa(lp1761
F106.20836806297302
ag2
aI1442
aa(lp1762
F106.28012418746948
ag2
aI1443
aa(lp1763
F106.32454299926758
ag2
aI1444
aa(lp1764
F106.39984917640686
ag2
aI1445
aa(lp1765
F106.45201897621155
ag4
aI316
aa(lp1766
F106.51951813697815
ag2
aI1446
aa(lp1767
F106.58771204948425
ag4
aI317
aa(lp1768
F106.62400913238525
ag2
aI1447
aa(lp1769
F106.71579003334045
ag2
aI1448
aa(lp1770
F106.76006698608398
ag2
aI1449
aa(lp1771
F106.83207297325134
ag2
aI1450
aa(lp1772
F106.88417196273804
ag2
aI1451
aa(lp1773
F106.93621516227722
ag2
aI1452
aa(lp1774
F107.07549118995667
ag2
aI1453
aa(lp1775
F107.13403511047363
ag4
aI318
aa(lp1776
F107.25617814064026
ag2
aI1454
aa(lp1777
F107.30383205413818
ag2
aI1455
aa(lp1778
F107.37243509292603
ag2
aI1456
aa(lp1779
F107.4155821800232
ag4
aI319
aa(lp1780
F107.48011112213135
ag2
aI1457
aa(lp1781
F107.54798698425293
ag2
aI1458
aa(lp1782
F107.59192895889282
ag2
aI1459
aa(lp1783
F107.69165396690369
ag2
aI1460
aa(lp1784
F107.71638917922974
ag2
aI1461
aa(lp1785
F107.81536817550659
ag4
aI320
aa(lp1786
F107.88349509239197
ag2
aI1462
aa(lp1787
F107.91202211380005
ag2
aI1463
aa(lp1788
F108.00747203826904
ag2
aI1464
aa(lp1789
F108.03607416152954
ag2
aI1465
aa(lp1790
F108.0778021812439
ag2
aI1466
aa(lp1791
F108.16438603401184
ag2
aI1467
aa(lp1792
F108.21187114715576
ag2
aI1468
aa(lp1793
F108.30349397659302
ag4
aI321
aa(lp1794
F108.32811307907104
ag2
aI1469
aa(lp1795
F108.3877329826355
ag2
aI1470
aa(lp1796
F108.50371813774109
ag2
aI1471
aa(lp1797
F108.53195714950562
ag2
aI1472
aa(lp1798
F108.57287001609802
ag2
aI1473
aa(lp1799
F108.66377997398376
ag2
aI1474
aa(lp1800
F108.71173000335693
ag2
aI1475
aa(lp1801
F108.7799961566925
ag4
aI322
aa(lp1802
F108.8244001865387
ag2
aI1476
aa(lp1803
F108.91560697555542
ag2
aI1477
aa(lp1804
F108.9440381526947
ag4
aI323
aa(lp1805
F109.00775218009949
ag2
aI1478
aa(lp1806
F109.07213115692139
ag2
aI1479
aa(lp1807
F109.16757416725159
ag2
aI1480
aa(lp1808
F109.19995617866516
ag2
aI1481
aa(lp1809
F109.2481119632721
ag4
aI324
aa(lp1810
F109.2966411113739
ag2
aI1482
aa(lp1811
F109.3999810218811
ag2
aI1483
aa(lp1812
F109.42840218544006
ag4
aI325
aa(lp1813
F109.49191212654114
ag2
aI1484
aa(lp1814
F109.55627703666687
ag2
aI1485
aa(lp1815
F109.62389707565308
ag2
aI1486
aa(lp1816
F109.69667100906372
ag2
aI1487
aa(lp1817
F109.76804399490356
ag2
aI1488
aa(lp1818
F109.82040119171143
ag2
aI1489
aa(lp1819
F109.84365797042847
ag2
aI1490
aa(lp1820
F109.93297910690308
ag4
aI326
aa(lp1821
F110.00765013694763
ag2
aI1491
aa(lp1822
F110.03588700294495
ag2
aI1492
aa(lp1823
F110.10384917259216
ag2
aI1493
aa(lp1824
F110.14369106292725
ag2
aI1494
aa(lp1825
F110.20808410644531
ag2
aI1495
aa(lp1826
F110.26375102996826
ag4
aI327
aa(lp1827
F110.36391997337341
ag2
aI1496
aa(lp1828
F110.39631605148315
ag2
aI1497
aa(lp1829
F110.47228407859802
ag2
aI1498
aa(lp1830
F110.50079298019409
ag2
aI1499
aa(lp1831
F110.57630610466003
ag2
aI1500
aa(lp1832
F110.64012718200684
ag2
aI1501
aa(lp1833
F110.68407917022705
ag2
aI1502
aa(lp1834
F110.74880313873291
ag2
aI1503
aa(lp1835
F110.83296203613281
ag2
aI1504
aa(lp1836
F110.85993599891663
ag2
aI1505
aa(lp1837
F110.92453908920288
ag2
aI1506
aa(lp1838
F110.9659070968628
ag4
aI328
aa(lp1839
F111.02800917625427
ag2
aI1507
aa(lp1840
F111.09222102165222
ag2
aI1508
aa(lp1841
F111.1598470211029
ag2
aI1509
aa(lp1842
F111.22405409812927
ag2
aI1510
aa(lp1843
F111.29604601860046
ag2
aI1511
aa(lp1844
F111.34013795852661
ag4
aI329
aa(lp1845
F111.41419100761414
ag2
aI1512
aa(lp1846
F111.46047115325928
ag2
aI1513
aa(lp1847
F111.52379202842712
ag2
aI1514
aa(lp1848
F111.5717351436615
ag2
aI1515
aa(lp1849
F111.61607217788696
ag2
aI1516
aa(lp1850
F111.68393111228943
ag4
aI330
aa(lp1851
F111.75229597091675
ag2
aI1517
aa(lp1852
F111.79250502586365
ag2
aI1518
aa(lp1853
F111.85983800888062
ag2
aI1519
aa(lp1854
F111.94874811172485
ag2
aI1520
aa(lp1855
F111.97572207450867
ag2
aI1521
aa(lp1856
F112.04395914077759
ag2
aI1522
aa(lp1857
F112.11208295822144
ag4
aI331
aa(lp1858
F112.16055011749268
ag2
aI1523
aa(lp1859
F112.24414610862732
ag2
aI1524
aa(lp1860
F112.31280612945557
ag2
aI1525
aa(lp1861
F112.34016919136047
ag2
aI1526
aa(lp1862
F112.47514319419861
ag2
aI1527
aa(lp1863
F112.6239721775055
ag4
aI332
aa(lp1864
F112.6915831565857
ag2
aI1528
aa(lp1865
F112.7410180568695
ag2
aI1529
aa(lp1866
F112.79239010810852
ag4
aI333
aa(lp1867
F112.85580611228943
ag2
aI1530
aa(lp1868
F112.92013812065125
ag2
aI1531
aa(lp1869
F112.96336007118225
ag2
aI1532
aa(lp1870
F113.05684804916382
ag2
aI1533
aa(lp1871
F113.08068418502808
ag2
aI1534
aa(lp1872
F113.14409613609314
ag2
aI1535
aa(lp1873
F113.21267318725586
ag4
aI334
aa(lp1874
F113.27241110801697
ag2
aI1536
aa(lp1875
F113.33665800094604
ag2
aI1537
aa(lp1876
F113.38065099716187
ag2
aI1538
aa(lp1877
F113.44895911216736
ag4
aI335
aa(lp1878
F113.51642513275146
ag2
aI1539
aa(lp1879
F113.58002996444702
ag2
aI1540
aa(lp1880
F113.64384508132935
ag2
aI1541
aa(lp1881
F113.67956805229187
ag2
aI1542
aa(lp1882
F113.74778819084167
ag2
aI1543
aa(lp1883
F113.82070207595825
ag2
aI1544
aa(lp1884
F113.88005113601685
ag2
aI1545
aa(lp1885
F113.92429709434509
ag2
aI1546
aa(lp1886
F113.9884741306305
ag4
aI336
aa(lp1887
F114.05638813972473
ag2
aI1547
aa(lp1888
F114.12813997268677
ag2
aI1548
aa(lp1889
F114.17242908477783
ag4
aI337
aa(lp1890
F114.21703505516052
ag2
aI1549
aa(lp1891
F114.30874419212341
ag2
aI1550
aa(lp1892
F114.35667300224304
ag2
aI1551
aa(lp1893
F114.42823219299316
ag2
aI1552
aa(lp1894
F114.45623111724854
ag4
aI338
aa(lp1895
F114.52038311958313
ag2
aI1553
aa(lp1896
F114.58442902565002
ag2
aI1554
aa(lp1897
F114.67193007469177
ag4
aI339
aa(lp1898
F114.70105004310608
ag2
aI1555
aa(lp1899
F114.76822519302368
ag2
aI1556
aa(lp1900
F114.88078618049622
ag2
aI1557
aa(lp1901
F114.90492916107178
ag2
aI1558
aa(lp1902
F114.99600410461426
ag4
aI340
aa(lp1903
F115.048269033432
ag2
aI1559
aa(lp1904
F115.07619118690491
ag2
aI1560
aa(lp1905
F115.13970613479614
ag4
aI341
aa(lp1906
F115.20411396026611
ag2
aI1561
aa(lp1907
F115.27217411994934
ag2
aI1562
aa(lp1908
F115.31555700302124
ag2
aI1563
aa(lp1909
F115.40785217285156
ag2
aI1564
aa(lp1910
F115.48129510879517
ag2
aI1565
aa(lp1911
F115.50353407859802
ag4
aI342
aa(lp1912
F115.57189798355103
ag2
aI1566
aa(lp1913
F115.65960597991943
ag2
aI1567
aa(lp1914
F115.69197702407837
ag4
aI343
aa(lp1915
F115.75184416770935
ag2
aI1568
aa(lp1916
F115.79554104804993
ag2
aI1569
aa(lp1917
F115.86012506484985
ag2
aI1570
aa(lp1918
F115.947909116745
ag2
aI1571
aa(lp1919
F116.01772499084473
ag2
aI1572
aa(lp1920
F116.06810307502747
ag2
aI1573
aa(lp1921
F116.10416913032532
ag2
aI1574
aa(lp1922
F116.16785407066345
ag2
aI1575
aa(lp1923
F116.23208117485046
ag4
aI344
aa(lp1924
F116.30465412139893
ag2
aI1576
aa(lp1925
F116.37160897254944
ag2
aI1577
aa(lp1926
F116.42365598678589
ag4
aI345
aa(lp1927
F116.46471309661865
ag2
aI1578
aa(lp1928
F116.52762007713318
ag2
aI1579
aa(lp1929
F116.60405206680298
ag2
aI1580
aa(lp1930
F116.69984698295593
ag2
aI1581
aa(lp1931
F116.73581099510193
ag2
aI1582
aa(lp1932
F116.77569603919983
ag4
aI346
aa(lp1933
F116.87151002883911
ag2
aI1583
aa(lp1934
F116.91151118278503
ag2
aI1584
aa(lp1935
F116.96413898468018
ag4
aI347
aa(lp1936
F117.03944301605225
ag2
aI1585
aa(lp1937
F117.07583403587341
ag2
aI1586
aa(lp1938
F117.17998003959656
ag2
aI1587
aa(lp1939
F117.2163770198822
ag2
aI1588
aa(lp1940
F117.28391003608704
ag4
aI348
aa(lp1941
F117.31587409973145
ag2
aI1589
aa(lp1942
F117.38797616958618
ag2
aI1590
aa(lp1943
F117.47567200660706
ag4
aI349
aa(lp1944
F117.51142716407776
ag2
aI1591
aa(lp1945
F117.5598680973053
ag2
aI1592
aa(lp1946
F117.62377309799194
ag2
aI1593
aa(lp1947
F117.71205306053162
ag2
aI1594
aa(lp1948
F117.75270009040833
ag2
aI1595
aa(lp1949
F117.80000901222229
ag2
aI1596
aa(lp1950
F117.86813306808472
ag2
aI1597
aa(lp1951
F117.9201340675354
ag2
aI1598
aa(lp1952
F117.99246406555176
ag4
aI350
aa(lp1953
F118.02360606193542
ag2
aI1599
aa(lp1954
F118.10793018341064
ag2
aI1600
aa(lp1955
F118.15639901161194
ag4
aI351
aa(lp1956
F118.1997401714325
ag2
aI1601
aa(lp1957
F118.28044414520264
ag2
aI1602
aa(lp1958
F118.336354970932
ag2
aI1603
aa(lp1959
F118.43995118141174
ag2
aI1604
aa(lp1960
F118.49989318847656
ag2
aI1605
aa(lp1961
F118.536208152771
ag4
aI352
aa(lp1962
F118.58396911621094
ag2
aI1606
aa(lp1963
F118.62795615196228
ag2
aI1607
aa(lp1964
F118.70050311088562
ag2
aI1608
aa(lp1965
F118.77245807647705
ag2
aI1609
aa(lp1966
F118.82042002677917
ag2
aI1610
aa(lp1967
F118.88378119468689
ag4
aI353
aa(lp1968
F118.97171807289124
ag2
aI1611
aa(lp1969
F119.00377607345581
ag2
aI1612
aa(lp1970
F119.08781814575195
ag2
aI1613
aa(lp1971
F119.12015104293823
ag2
aI1614
aa(lp1972
F119.17608118057251
ag2
aI1615
aa(lp1973
F119.21986699104309
ag4
aI354
aa(lp1974
F119.28813815116882
ag2
aI1616
aa(lp1975
F119.35973596572876
ag2
aI1617
aa(lp1976
F119.41216206550598
ag2
aI1618
aa(lp1977
F119.46376299858093
ag4
aI355
aa(lp1978
F119.5325231552124
ag2
aI1619
aa(lp1979
F119.5799331665039
ag2
aI1620
aa(lp1980
F119.64369511604309
ag2
aI1621
aa(lp1981
F119.74776005744934
ag2
aI1622
aa(lp1982
F119.78394198417664
ag2
aI1623
aa(lp1983
F119.82817006111145
ag2
aI1624
aa(lp1984
F119.9001841545105
ag4
aI356
aa(lp1985
F119.95208406448364
ag2
aI1625
aa(lp1986
F120.02179408073425
ag2
aI1626
aa(lp1987
F120.06809401512146
ag2
aI1627
aa(lp1988
F120.10980796813965
ag4
aI357
aa(lp1989
F120.17586708068848
ag2
aI1628
aa(lp1990
F120.25577116012573
ag2
aI1629
aa(lp1991
F120.3279139995575
ag2
aI1630
aa(lp1992
F120.36418318748474
ag2
aI1631
aa(lp1993
F120.44812607765198
ag2
aI1632
aa(lp1994
F120.47964000701904
ag2
aI1633
aa(lp1995
F120.56808614730835
ag4
aI358
aa(lp1996
F120.60053205490112
ag2
aI1634
aa(lp1997
F120.6677610874176
ag2
aI1635
aa(lp1998
F120.71567106246948
ag4
aI359
aa(lp1999
F120.78388619422913
ag2
aI1636
aa(lp2000
F120.83189105987549
ag2
aI1637
aa(lp2001
F120.98463416099548
ag2
aI1638
aa(lp2002
F121.02028012275696
ag2
aI1639
aa(lp2003
F121.16975712776184
ag2
aI1640
aa(lp2004
F121.1959969997406
ag2
aI1641
aa(lp2005
F121.26446104049683
ag4
aI360
aa(lp2006
F121.30042695999146
ag2
aI1642
aa(lp2007
F121.39234709739685
ag2
aI1643
aa(lp2008
F121.43245697021484
ag4
aI361
aa(lp2009
F121.47356700897217
ag2
aI1644
aa(lp2010
F121.53654599189758
ag2
aI1645
aa(lp2011
F121.66399002075195
ag2
aI1646
aa(lp2012
F121.69406199455261
ag2
aI1647
aa(lp2013
F121.8246500492096
ag4
aI362
aa(lp2014
F121.85616612434387
ag2
aI1648
aa(lp2015
F121.91584515571594
ag2
aI1649
aa(lp2016
F121.96237516403198
ag2
aI1650
aa(lp2017
F122.07661199569702
ag2
aI1651
aa(lp2018
F122.09991097450256
ag2
aI1652
aa(lp2019
F122.15970396995544
ag2
aI1653
aa(lp2020
F122.22057104110718
ag4
aI363
aa(lp2021
F122.2840051651001
ag2
aI1654
aa(lp2022
F122.37241196632385
ag2
aI1655
aa(lp2023
F122.45159196853638
ag2
aI1656
aa(lp2024
F122.48011708259583
ag2
aI1657
aa(lp2025
F122.55220317840576
ag4
aI364
aa(lp2026
F122.60774207115173
ag2
aI1658
aa(lp2027
F122.66835618019104
ag2
aI1659
aa(lp2028
F122.72410297393799
ag2
aI1660
aa(lp2029
F122.79313898086548
ag4
aI365
aa(lp2030
F122.87677502632141
ag2
aI1661
aa(lp2031
F122.90497517585754
ag2
aI1662
aa(lp2032
F122.99675297737122
ag2
aI1663
aa(lp2033
F123.05259108543396
ag2
aI1664
aa(lp2034
F123.10086512565613
ag2
aI1665
aa(lp2035
F123.14439415931702
ag2
aI1666
aa(lp2036
F123.20892906188965
ag2
aI1667
aa(lp2037
F123.31666302680969
ag2
aI1668
aa(lp2038
F123.35660409927368
ag2
aI1669
aa(lp2039
F123.49655318260193
ag4
aI366
aa(lp2040
F123.56435203552246
ag2
aI1670
aa(lp2041
F123.59270095825195
ag2
aI1671
aa(lp2042
F123.66371703147888
ag4
aI367
aa(lp2043
F123.68807101249695
ag2
aI1672
aa(lp2044
F123.72420501708984
ag2
aI1673
aa(lp2045
F123.78790211677551
ag2
aI1674
aa(lp2046
F123.85834407806396
ag2
aI1675
aa(lp2047
F123.91668701171875
ag2
aI1676
aa(lp2048
F123.98810315132141
ag2
aI1677
aa(lp2049
F124.04867315292358
ag2
aI1678
aa(lp2050
F124.10417699813843
ag2
aI1679
aa(lp2051
F124.13630819320679
ag2
aI1680
aa(lp2052
F124.18432712554932
ag2
aI1681
aa(lp2053
F124.28037118911743
ag2
aI1682
aa(lp2054
F124.3405590057373
ag2
aI1683
aa(lp2055
F124.37246012687683
ag4
aI368
aa(lp2056
F124.46054816246033
ag2
aI1684
aa(lp2057
F124.52356910705566
ag4
aI369
aa(lp2058
F124.56010603904724
ag2
aI1685
aa(lp2059
F124.60411310195923
ag2
aI1686
aa(lp2060
F124.7367160320282
ag2
aI1687
aa(lp2061
F124.82883501052856
ag2
aI1688
aa(lp2062
F124.88396406173706
ag4
aI370
aa(lp2063
F124.94095516204834
ag2
aI1689
aa(lp2064
F124.98856115341187
ag2
aI1690
aa(lp2065
F125.09557819366455
ag4
aI371
aa(lp2066
F125.13171100616455
ag2
aI1691
aa(lp2067
F125.18754005432129
ag2
aI1692
aa(lp2068
F125.23682403564453
ag2
aI1693
aa(lp2069
F125.34517502784729
ag2
aI1694
aa(lp2070
F125.38330411911011
ag2
aI1695
aa(lp2071
F125.46413016319275
ag2
aI1696
aa(lp2072
F125.52806305885315
ag4
aI372
aa(lp2073
F125.57237911224365
ag2
aI1697
aa(lp2074
F125.63583397865295
ag2
aI1698
aa(lp2075
F125.7231330871582
ag4
aI373
aa(lp2076
F125.75586915016174
ag2
aI1699
aa(lp2077
F125.82066416740417
ag2
aI1700
aa(lp2078
F125.87179613113403
ag2
aI1701
aa(lp2079
F125.95623207092285
ag2
aI1702
aa(lp2080
F125.99199914932251
ag2
aI1703
aa(lp2081
F126.08819603919983
ag2
aI1704
aa(lp2082
F126.11659216880798
ag2
aI1705
aa(lp2083
F126.17020297050476
ag2
aI1706
aa(lp2084
F126.25974011421204
ag2
aI1707
aa(lp2085
F126.28819417953491
ag2
aI1708
aa(lp2086
F126.35624504089355
ag2
aI1709
aa(lp2087
F126.40431904792786
ag4
aI374
aa(lp2088
F126.46787118911743
ag2
aI1710
aa(lp2089
F126.53621196746826
ag2
aI1711
aa(lp2090
F126.62378907203674
ag4
aI375
aa(lp2091
F126.65220618247986
ag2
aI1712
aa(lp2092
F126.71573495864868
ag2
aI1713
aa(lp2093
F126.76102113723755
ag2
aI1714
aa(lp2094
F126.87916898727417
ag2
aI1715
aa(lp2095
F126.95216202735901
ag2
aI1716
aa(lp2096
F127.02169108390808
ag2
aI1717
aa(lp2097
F127.07209706306458
ag2
aI1718
aa(lp2098
F127.1356451511383
ag2
aI1719
aa(lp2099
F127.1842110157013
ag2
aI1720
aa(lp2100
F127.27568697929382
ag2
aI1721
aa(lp2101
F127.32026219367981
ag2
aI1722
aa(lp2102
F127.36813116073608
ag2
aI1723
aa(lp2103
F127.43572497367859
ag4
aI376
aa(lp2104
F127.47680616378784
ag2
aI1724
aa(lp2105
F127.53611302375793
ag2
aI1725
aa(lp2106
F127.60417199134827
ag2
aI1726
aa(lp2107
F127.67541909217834
ag4
aI377
aa(lp2108
F127.7203140258789
ag2
aI1727
aa(lp2109
F127.78739905357361
ag2
aI1728
aa(lp2110
F127.82895803451538
ag2
aI1729
aa(lp2111
F127.92084908485413
ag2
aI1730
aa(lp2112
F127.9884991645813
ag2
aI1731
aa(lp2113
F128.04023909568787
ag2
aI1732
aa(lp2114
F128.10837411880493
ag2
aI1733
aa(lp2115
F128.17127299308777
ag2
aI1734
aa(lp2116
F128.22506618499756
ag2
aI1735
aa(lp2117
F128.31246900558472
ag2
aI1736
aa(lp2118
F128.37318301200867
ag2
aI1737
aa(lp2119
F128.39992117881775
ag4
aI378
aa(lp2120
F128.46107816696167
ag2
aI1738
aa(lp2121
F128.5283830165863
ag2
aI1739
aa(lp2122
F128.571946144104
ag2
aI1740
aa(lp2123
F128.6762399673462
ag2
aI1741
aa(lp2124
F128.70703601837158
ag2
aI1742
aa(lp2125
F128.77216410636902
ag2
aI1743
aa(lp2126
F128.83263206481934
ag4
aI379
aa(lp2127
F128.8926420211792
ag2
aI1744
aa(lp2128
F128.98042011260986
ag2
aI1745
aa(lp2129
F129.08486413955688
ag2
aI1746
aa(lp2130
F129.1289780139923
ag2
aI1747
aa(lp2131
F129.19211101531982
ag2
aI1748
aa(lp2132
F129.26110696792603
ag4
aI380
aa(lp2133
F129.32419610023499
ag2
aI1749
aa(lp2134
F129.3922619819641
ag2
aI1750
aa(lp2135
F129.43301010131836
ag4
aI381
aa(lp2136
F129.50092601776123
ag2
aI1751
aa(lp2137
F129.5447781085968
ag2
aI1752
aa(lp2138
F129.60485696792603
ag2
aI1753
aa(lp2139
F129.71624398231506
ag2
aI1754
aa(lp2140
F129.74853897094727
ag2
aI1755
aa(lp2141
F129.8399691581726
ag4
aI382
aa(lp2142
F129.96023511886597
ag2
aI1756
aa(lp2143
F130.02376198768616
ag4
aI383
aa(lp2144
F130.08796501159668
ag2
aI1757
aa(lp2145
F130.1363971233368
ag2
aI1758
aa(lp2146
F130.24003100395203
ag2
aI1759
aa(lp2147
F130.2690510749817
ag2
aI1760
aa(lp2148
F130.3600480556488
ag2
aI1761
aa(lp2149
F130.416335105896
ag2
aI1762
aa(lp2150
F130.46388411521912
ag4
aI384
aa(lp2151
F130.5437560081482
ag2
aI1763
aa(lp2152
F130.58027410507202
ag2
aI1764
aa(lp2153
F130.62798404693604
ag4
aI385
aa(lp2154
F130.72749996185303
ag2
aI1765
aa(lp2155
F130.767587184906
ag2
aI1766
aa(lp2156
F130.84766817092896
ag2
aI1767
aa(lp2157
F130.88010907173157
ag2
aI1768
aa(lp2158
F130.9559841156006
ag2
aI1769
aa(lp2159
F131.0134379863739
ag4
aI386
aa(lp2160
F131.08394598960876
ag2
aI1770
aa(lp2161
F131.15255999565125
ag4
aI387
aa(lp2162
F131.21221113204956
ag2
aI1771
aa(lp2163
F131.29224514961243
ag2
aI1772
aa(lp2164
F131.32039713859558
ag2
aI1773
aa(lp2165
F131.38373804092407
ag2
aI1774
aa(lp2166
F131.44821405410767
ag4
aI388
aa(lp2167
F131.4960470199585
ag2
aI1775
aa(lp2168
F131.58391308784485
ag2
aI1776
aa(lp2169
F131.6999170780182
ag2
aI1777
aa(lp2170
F131.78771305084229
ag2
aI1778
aa(lp2171
F131.8794550895691
ag4
aI389
aa(lp2172
F131.9160280227661
ag2
aI1779
aa(lp2173
F131.99589204788208
ag2
aI1780
aa(lp2174
F132.10032510757446
ag2
aI1781
aa(lp2175
F132.1394591331482
ag2
aI1782
aa(lp2176
F132.17576599121094
ag2
aI1783
aa(lp2177
F132.25164103507996
ag4
aI390
aa(lp2178
F132.2996211051941
ag2
aI1784
aa(lp2179
F132.346853017807
ag2
aI1785
aa(lp2180
F132.415687084198
ag2
aI1786
aa(lp2181
F132.4997260570526
ag4
aI391
aa(lp2182
F132.57212710380554
ag2
aI1787
aa(lp2183
F132.61577105522156
ag2
aI1788
aa(lp2184
F132.69617915153503
ag2
aI1789
aa(lp2185
F132.75586009025574
ag2
aI1790
aa(lp2186
F132.8198561668396
ag2
aI1791
aa(lp2187
F132.88346004486084
ag2
aI1792
aa(lp2188
F132.94791316986084
ag2
aI1793
aa(lp2189
F132.98775696754456
ag2
aI1794
aa(lp2190
F133.03957200050354
ag2
aI1795
aa(lp2191
F133.12381505966187
ag2
aI1796
aa(lp2192
F133.1596541404724
ag2
aI1797
aa(lp2193
F133.21188306808472
ag2
aI1798
aa(lp2194
F133.27995610237122
ag2
aI1799
aa(lp2195
F133.32788515090942
ag2
aI1800
aa(lp2196
F133.38873505592346
ag2
aI1801
aa(lp2197
F133.44760608673096
ag4
aI392
aa(lp2198
F133.55282998085022
ag2
aI1802
aa(lp2199
F133.62026405334473
ag2
aI1803
aa(lp2200
F133.68004298210144
ag4
aI393
aa(lp2201
F133.74411606788635
ag2
aI1804
aa(lp2202
F133.81244897842407
ag2
aI1805
aa(lp2203
F133.89271116256714
ag2
aI1806
aa(lp2204
F133.91660118103027
ag2
aI1807
aa(lp2205
F133.9673969745636
ag2
aI1808
aa(lp2206
F134.02900409698486
ag4
aI394
aa(lp2207
F134.12011218070984
ag2
aI1809
aa(lp2208
F134.1680281162262
ag4
aI395
aa(lp2209
F134.21675896644592
ag2
aI1810
aa(lp2210
F134.2886049747467
ag2
aI1811
aa(lp2211
F134.36013197898865
ag2
aI1812
aa(lp2212
F134.40509605407715
ag2
aI1813
aa(lp2213
F134.49687910079956
ag2
aI1814
aa(lp2214
F134.52026510238647
ag2
aI1815
aa(lp2215
F134.5759801864624
ag4
aI396
aa(lp2216
F134.67435812950134
ag2
aI1816
aa(lp2217
F134.76440596580505
ag2
aI1817
aa(lp2218
F134.83760714530945
ag2
aI1818
aa(lp2219
F134.88928413391113
ag2
aI1819
aa(lp2220
F134.9880290031433
ag4
aI397
aa(lp2221
F135.07617712020874
ag2
aI1820
aa(lp2222
F135.16876196861267
ag2
aI1821
aa(lp2223
F135.19520902633667
ag2
aI1822
aa(lp2224
F135.29298305511475
ag2
aI1823
aa(lp2225
F135.35558199882507
ag4
aI398
aa(lp2226
F135.41662907600403
ag2
aI1824
aa(lp2227
F135.4763581752777
ag2
aI1825
aa(lp2228
F135.60278701782227
ag4
aI399
aa(lp2229
F135.64044404029846
ag2
aI1826
aa(lp2230
F135.7280731201172
ag2
aI1827
aa(lp2231
F135.8180329799652
ag2
aI1828
aa(lp2232
F135.84831500053406
ag2
aI1829
aa(lp2233
F135.9770929813385
ag2
aI1830
aa(lp2234
F136.0006501674652
ag2
aI1831
aa(lp2235
F136.104994058609
ag4
aI400
aa(lp2236
F136.12815809249878
ag2
aI1832
aa(lp2237
F136.19673013687134
ag2
aI1833
aa(lp2238
F136.23956203460693
ag2
aI1834
aa(lp2239
F136.30382704734802
ag4
aI401
aa(lp2240
F136.36071300506592
ag2
aI1835
aa(lp2241
F136.42415618896484
ag2
aI1836
aa(lp2242
F136.54039597511292
ag2
aI1837
aa(lp2243
F136.56837916374207
ag2
aI1838
aa(lp2244
F136.6795461177826
ag4
aI402
aa(lp2245
F136.74870896339417
ag2
aI1839
aa(lp2246
F136.7908070087433
ag2
aI1840
aa(lp2247
F136.90228915214539
ag4
aI403
aa(lp2248
F136.93598818778992
ag2
aI1841
aa(lp2249
F137.0002670288086
ag2
aI1842
aa(lp2250
F137.0885090827942
ag2
aI1843
aa(lp2251
F137.14936304092407
ag2
aI1844
aa(lp2252
F137.1756730079651
ag4
aI404
aa(lp2253
F137.24032402038574
ag2
aI1845
aa(lp2254
F137.29964399337769
ag2
aI1846
aa(lp2255
F137.3923180103302
ag4
aI405
aa(lp2256
F137.41572999954224
ag2
aI1847
aa(lp2257
F137.4834849834442
ag2
aI1848
aa(lp2258
F137.5282781124115
ag2
aI1849
aa(lp2259
F137.65227508544922
ag2
aI1850
aa(lp2260
F137.68052911758423
ag2
aI1851
aa(lp2261
F137.75106811523438
ag2
aI1852
aa(lp2262
F137.78801012039185
ag2
aI1853
aa(lp2263
F137.84845614433289
ag2
aI1854
aa(lp2264
F137.91621804237366
ag4
aI406
aa(lp2265
F137.98412418365479
ag2
aI1855
aa(lp2266
F138.0729591846466
ag4
aI407
aa(lp2267
F138.10017108917236
ag2
aI1856
aa(lp2268
F138.14396405220032
ag2
aI1857
aa(lp2269
F138.25582718849182
ag2
aI1858
aa(lp2270
F138.28394603729248
ag2
aI1859
aa(lp2271
F138.32771015167236
ag2
aI1860
aa(lp2272
F138.44112515449524
ag2
aI1861
aa(lp2273
F138.50960397720337
ag2
aI1862
aa(lp2274
F138.5562481880188
ag4
aI408
aa(lp2275
F138.6236400604248
ag2
aI1863
aa(lp2276
F138.704833984375
ag2
aI1864
aa(lp2277
F138.74393916130066
ag4
aI409
aa(lp2278
F138.80490112304688
ag2
aI1865
aa(lp2279
F138.86815404891968
ag2
aI1866
aa(lp2280
F138.92866110801697
ag2
aI1867
aa(lp2281
F139.0281810760498
ag2
aI1868
aa(lp2282
F139.06093311309814
ag2
aI1869
aa(lp2283
F139.12799310684204
ag4
aI410
aa(lp2284
F139.1718521118164
ag2
aI1870
aa(lp2285
F139.23626613616943
ag2
aI1871
aa(lp2286
F139.30849814414978
ag2
aI1872
aa(lp2287
F139.3520770072937
ag4
aI411
aa(lp2288
F139.41612195968628
ag2
aI1873
aa(lp2289
F139.48419618606567
ag2
aI1874
aa(lp2290
F139.5281641483307
ag2
aI1875
aa(lp2291
F139.62075901031494
ag2
aI1876
aa(lp2292
F139.66408896446228
ag2
aI1877
aa(lp2293
F139.71262407302856
ag2
aI1878
aa(lp2294
F139.77966499328613
ag4
aI412
aa(lp2295
F139.8485779762268
ag2
aI1879
aa(lp2296
F139.89246606826782
ag2
aI1880
aa(lp2297
F139.95145797729492
ag2
aI1881
aa(lp2298
F140.01976418495178
ag4
aI413
aa(lp2299
F140.08809614181519
ag2
aI1882
aa(lp2300
F140.1839210987091
ag2
aI1883
aa(lp2301
F140.2075321674347
ag2
aI1884
aa(lp2302
F140.27229619026184
ag2
aI1885
aa(lp2303
F140.29609608650208
ag4
aI414
aa(lp2304
F140.34014105796814
ag2
aI1886
aa(lp2305
F140.39957308769226
ag2
aI1887
aa(lp2306
F140.51963305473328
ag4
aI415
aa(lp2307
F140.56373405456543
ag2
aI1888
aa(lp2308
F140.65529918670654
ag2
aI1889
aa(lp2309
F140.7044541835785
ag2
aI1890
aa(lp2310
F140.75210618972778
ag2
aI1891
aa(lp2311
F140.7956840991974
ag2
aI1892
aa(lp2312
F140.883807182312
ag2
aI1893
aa(lp2313
F140.9161491394043
ag2
aI1894
aa(lp2314
F140.97972512245178
ag2
aI1895
aa(lp2315
F141.09573602676392
ag2
aI1896
aa(lp2316
F141.11951518058777
ag2
aI1897
aa(lp2317
F141.18394112586975
ag4
aI416
aa(lp2318
F141.23175811767578
ag2
aI1898
aa(lp2319
F141.29160714149475
ag2
aI1899
aa(lp2320
F141.35567808151245
ag2
aI1900
aa(lp2321
F141.4200620651245
ag4
aI417
aa(lp2322
F141.44336605072021
ag2
aI1901
aa(lp2323
F141.50013518333435
ag2
aI1902
aa(lp2324
F141.60761213302612
ag2
aI1903
aa(lp2325
F141.69659304618835
ag2
aI1904
aa(lp2326
F141.72746014595032
ag2
aI1905
aa(lp2327
F141.8590211868286
ag2
aI1906
aa(lp2328
F141.89891004562378
ag2
aI1907
aa(lp2329
F142.04009699821472
ag4
aI418
aa(lp2330
F142.1204240322113
ag2
aI1908
aa(lp2331
F142.19272112846375
ag2
aI1909
aa(lp2332
F142.24069809913635
ag2
aI1910
aa(lp2333
F142.31592798233032
ag4
aI419
aa(lp2334
F142.36462903022766
ag2
aI1911
aa(lp2335
F142.42792415618896
ag2
aI1912
aa(lp2336
F142.47587203979492
ag2
aI1913
aa(lp2337
F142.58014917373657
ag2
aI1914
aa(lp2338
F142.61176300048828
ag2
aI1915
aa(lp2339
F142.65673899650574
ag2
aI1916
aa(lp2340
F142.72854804992676
ag4
aI420
aa(lp2341
F142.77648210525513
ag2
aI1917
aa(lp2342
F142.8437430858612
ag2
aI1918
aa(lp2343
F142.89672303199768
ag2
aI1919
aa(lp2344
F142.96830797195435
ag4
aI421
aa(lp2345
F143.0213861465454
ag2
aI1920
aa(lp2346
F143.1005301475525
ag2
aI1921
aa(lp2347
F143.14924907684326
ag2
aI1922
aa(lp2348
F143.25278615951538
ag2
aI1923
aa(lp2349
F143.2887420654297
ag2
aI1924
aa(lp2350
F143.36113715171814
ag2
aI1925
aa(lp2351
F143.4126169681549
ag4
aI422
aa(lp2352
F143.47691011428833
ag2
aI1926
aa(lp2353
F143.5248510837555
ag2
aI1927
aa(lp2354
F143.59631419181824
ag2
aI1928
aa(lp2355
F143.6400330066681
ag4
aI423
aa(lp2356
F143.70879817008972
ag2
aI1929
aa(lp2357
F143.75828003883362
ag2
aI1930
aa(lp2358
F143.8252990245819
ag2
aI1931
aa(lp2359
F143.91612696647644
ag2
aI1932
aa(lp2360
F143.94839811325073
ag2
aI1933
aa(lp2361
F144.03240203857422
ag2
aI1934
aa(lp2362
F144.06431818008423
ag4
aI424
aa(lp2363
F144.11193418502808
ag2
aI1935
aa(lp2364
F144.18848204612732
ag2
aI1936
aa(lp2365
F144.2606761455536
ag2
aI1937
aa(lp2366
F144.30474615097046
ag4
aI425
aa(lp2367
F144.37590217590332
ag2
aI1938
aa(lp2368
F144.42797708511353
ag2
aI1939
aa(lp2369
F144.4919250011444
ag2
aI1940
aa(lp2370
F144.56850004196167
ag2
aI1941
aa(lp2371
F144.6002221107483
ag2
aI1942
aa(lp2372
F144.66825199127197
ag2
aI1943
aa(lp2373
F144.71682596206665
ag4
aI426
aa(lp2374
F144.78017497062683
ag2
aI1944
aa(lp2375
F144.84845113754272
ag2
aI1945
aa(lp2376
F144.9041121006012
ag2
aI1946
aa(lp2377
F144.9519271850586
ag4
aI427
aa(lp2378
F145.02055406570435
ag2
aI1947
aa(lp2379
F145.07196617126465
ag2
aI1948
aa(lp2380
F145.17647409439087
ag2
aI1949
aa(lp2381
F145.23627710342407
ag2
aI1950
aa(lp2382
F145.2684531211853
ag2
aI1951
aa(lp2383
F145.32067203521729
ag2
aI1952
aa(lp2384
F145.38844203948975
ag4
aI428
aa(lp2385
F145.45577001571655
ag2
aI1953
aa(lp2386
F145.504497051239
ag2
aI1954
aa(lp2387
F145.55241107940674
ag2
aI1955
aa(lp2388
F145.61980605125427
ag4
aI429
aa(lp2389
F145.68421411514282
ag2
aI1956
aa(lp2390
F145.7362060546875
ag2
aI1957
aa(lp2391
F145.80810117721558
ag2
aI1958
aa(lp2392
F145.89208602905273
ag2
aI1959
aa(lp2393
F145.92035508155823
ag2
aI1960
aa(lp2394
F145.96818804740906
ag2
aI1961
aa(lp2395
F146.03608798980713
ag4
aI430
aa(lp2396
F146.10796213150024
ag2
aI1962
aa(lp2397
F146.1521701812744
ag2
aI1963
aa(lp2398
F146.22432899475098
ag2
aI1964
aa(lp2399
F146.2720890045166
ag4
aI431
aa(lp2400
F146.34042811393738
ag2
aI1965
aa(lp2401
F146.3883571624756
ag2
aI1966
aa(lp2402
F146.45590209960938
ag2
aI1967
aa(lp2403
F146.53211212158203
ag2
aI1968
aa(lp2404
F146.59629106521606
ag2
aI1969
aa(lp2405
F146.6482810974121
ag2
aI1970
aa(lp2406
F146.6960961818695
ag4
aI432
aa(lp2407
F146.76401114463806
ag2
aI1971
aa(lp2408
F146.84054017066956
ag2
aI1972
aa(lp2409
F146.88417410850525
ag2
aI1973
aa(lp2410
F146.9523949623108
ag4
aI433
aa(lp2411
F147.0007381439209
ag2
aI1974
aa(lp2412
F147.07271099090576
ag2
aI1975
aa(lp2413
F147.11656403541565
ag2
aI1976
aa(lp2414
F147.22781205177307
ag2
aI1977
aa(lp2415
F147.26024508476257
ag2
aI1978
aa(lp2416
F147.3246660232544
ag2
aI1979
aa(lp2417
F147.39624214172363
ag4
aI434
aa(lp2418
F147.44392800331116
ag2
aI1980
aa(lp2419
F147.5157961845398
ag2
aI1981
aa(lp2420
F147.5598201751709
ag2
aI1982
aa(lp2421
F147.62034606933594
ag4
aI435
aa(lp2422
F147.70075702667236
ag2
aI1983
aa(lp2423
F147.75231099128723
ag2
aI1984
aa(lp2424
F147.7959861755371
ag2
aI1985
aa(lp2425
F147.89181113243103
ag2
aI1986
aa(lp2426
F147.9243471622467
ag2
aI1987
aa(lp2427
F147.97249007225037
ag2
aI1988
aa(lp2428
F148.0364260673523
ag4
aI436
aa(lp2429
F148.09965205192566
ag2
aI1989
aa(lp2430
F148.16812896728516
ag2
aI1990
aa(lp2431
F148.21251916885376
ag2
aI1991
aa(lp2432
F148.28447008132935
ag4
aI437
aa(lp2433
F148.3362910747528
ag2
aI1992
aa(lp2434
F148.40829610824585
ag2
aI1993
aa(lp2435
F148.45210599899292
ag2
aI1994
aa(lp2436
F148.58822417259216
ag2
aI1995
aa(lp2437
F148.62721514701843
ag2
aI1996
aa(lp2438
F148.8202669620514
ag4
aI438
aa(lp2439
F148.86832308769226
ag2
aI1997
aa(lp2440
F148.93649005889893
ag2
aI1998
aa(lp2441
F148.9916341304779
ag2
aI1999
aa(lp2442
F149.06834506988525
ag4
aI439
aa(lp2443
F149.11654615402222
ag2
aI2000
aa(lp2444
F149.18467116355896
ag2
aI2001
aa(lp2445
F149.2325210571289
ag2
aI2002
aa(lp2446
F149.33587002754211
ag2
aI2003
aa(lp2447
F149.3644139766693
ag2
aI2004
aa(lp2448
F149.41733717918396
ag2
aI2005
aa(lp2449
F149.4922161102295
ag4
aI440
aa(lp2450
F149.5559639930725
ag2
aI2006
aa(lp2451
F149.60388612747192
ag2
aI2007
aa(lp2452
F149.6522991657257
ag2
aI2008
aa(lp2453
F149.72453117370605
ag4
aI441
aa(lp2454
F149.7727279663086
ag2
aI2009
aa(lp2455
F149.84862303733826
ag2
aI2010
aa(lp2456
F149.89631700515747
ag2
aI2011
aa(lp2457
F149.9918451309204
ag2
aI2012
aa(lp2458
F150.02425813674927
ag2
aI2013
aa(lp2459
F150.07248711585999
ag2
aI2014
aa(lp2460
F150.14821004867554
ag4
aI442
aa(lp2461
F150.20004105567932
ag2
aI2015
aa(lp2462
F150.24751114845276
ag2
aI2016
aa(lp2463
F150.3163239955902
ag2
aI2017
aa(lp2464
F150.38967609405518
ag4
aI443
aa(lp2465
F150.4404649734497
ag2
aI2018
aa(lp2466
F150.48805212974548
ag2
aI2019
aa(lp2467
F150.55641508102417
ag2
aI2020
aa(lp2468
F150.63243007659912
ag2
aI2021
aa(lp2469
F150.70002102851868
ag2
aI2022
aa(lp2470
F150.7403860092163
ag2
aI2023
aa(lp2471
F150.81215715408325
ag4
aI444
aa(lp2472
F150.85626912117004
ag2
aI2024
aa(lp2473
F150.9245891571045
ag2
aI2025
aa(lp2474
F150.97637605667114
ag2
aI2026
aa(lp2475
F151.04846501350403
ag4
aI445
aa(lp2476
F151.09669399261475
ag2
aI2027
aa(lp2477
F151.15992712974548
ag2
aI2028
aa(lp2478
F151.23195219039917
ag2
aI2029
aa(lp2479
F151.32382106781006
ag2
aI2030
aa(lp2480
F151.35263895988464
ag2
aI2031
aa(lp2481
F151.4248161315918
ag2
aI2032
aa(lp2482
F151.48401999473572
ag4
aI446
aa(lp2483
F151.5483000278473
ag2
aI2033
aa(lp2484
F151.59860515594482
ag2
aI2034
aa(lp2485
F151.6677770614624
ag2
aI2035
aa(lp2486
F151.71638703346252
ag4
aI447
aa(lp2487
F151.7838921546936
ag2
aI2036
aa(lp2488
F151.8309371471405
ag2
aI2037
aa(lp2489
F151.90002298355103
ag2
aI2038
aa(lp2490
F151.99646997451782
ag2
aI2039
aa(lp2491
F152.02411699295044
ag2
aI2040
aa(lp2492
F152.07214617729187
ag2
aI2041
aa(lp2493
F152.14012813568115
ag4
aI448
aa(lp2494
F152.20883107185364
ag2
aI2042
aa(lp2495
F152.2602481842041
ag2
aI2043
aa(lp2496
F152.32373714447021
ag2
aI2044
aa(lp2497
F152.37193202972412
ag4
aI449
aa(lp2498
F152.44008803367615
ag2
aI2045
aa(lp2499
F152.4995801448822
ag2
aI2046
aa(lp2500
F152.56384801864624
ag2
aI2047
aa(lp2501
F152.66829419136047
ag2
aI2048
aa(lp2502
F152.69972801208496
ag2
aI2049
aa(lp2503
F152.7527220249176
ag2
aI2050
aa(lp2504
F152.796462059021
ag4
aI450
aa(lp2505
F152.85578417778015
ag2
aI2051
aa(lp2506
F152.92816615104675
ag2
aI2052
aa(lp2507
F152.97687816619873
ag2
aI2053
aa(lp2508
F153.0443720817566
ag4
aI451
aa(lp2509
F153.11292910575867
ag2
aI2054
aa(lp2510
F153.16447496414185
ag2
aI2055
aa(lp2511
F153.24907398223877
ag2
aI2056
aa(lp2512
F153.3329360485077
ag2
aI2057
aa(lp2513
F153.37893199920654
ag2
aI2058
aa(lp2514
F153.49413299560547
ag4
aI452
aa(lp2515
F153.51628303527832
ag2
aI2059
aa(lp2516
F153.59380316734314
ag2
aI2060
aa(lp2517
F153.63665509223938
ag2
aI2061
aa(lp2518
F153.69915103912354
ag4
aI453
aa(lp2519
F153.7657630443573
ag2
aI2062
aa(lp2520
F153.8062870502472
ag2
aI2063
aa(lp2521
F153.87008500099182
ag2
aI2064
aa(lp2522
F153.9688811302185
ag2
aI2065
aa(lp2523
F154.0084981918335
ag2
aI2066
aa(lp2524
F154.06949400901794
ag2
aI2067
aa(lp2525
F154.1358540058136
ag2
aI2068
aa(lp2526
F154.18454718589783
ag2
aI2069
aa(lp2527
F154.2409210205078
ag2
aI2070
aa(lp2528
F154.3230049610138
ag4
aI454
aa(lp2529
F154.36522316932678
ag2
aI2071
aa(lp2530
F154.43723702430725
ag2
aI2072
aa(lp2531
F154.47724509239197
ag2
aI2073
aa(lp2532
F154.54260396957397
ag4
aI455
aa(lp2533
F154.60801100730896
ag2
aI2074
aa(lp2534
F154.65202713012695
ag2
aI2075
aa(lp2535
F154.71677207946777
ag2
aI2076
aa(lp2536
F154.80430912971497
ag2
aI2077
aa(lp2537
F154.85921907424927
ag2
aI2078
aa(lp2538
F154.91002106666565
ag2
aI2079
aa(lp2539
F154.94678711891174
ag4
aI456
aa(lp2540
F155.00987315177917
ag2
aI2080
aa(lp2541
F155.12857913970947
ag4
aI457
aa(lp2542
F155.20672917366028
ag2
aI2081
aa(lp2543
F155.28805708885193
ag2
aI2082
aa(lp2544
F155.41848015785217
ag2
aI2083
aa(lp2545
F155.4732701778412
ag2
aI2084
aa(lp2546
F155.56786704063416
ag4
aI458
aa(lp2547
F155.59301614761353
ag2
aI2085
aa(lp2548
F155.67548608779907
ag2
aI2086
aa(lp2549
F155.7020971775055
ag4
aI459
aa(lp2550
F155.7840781211853
ag2
aI2087
aa(lp2551
F155.84879612922668
ag2
aI2088
aa(lp2552
F155.89624905586243
ag2
aI2089
aa(lp2553
F155.94012999534607
ag2
aI2090
aa(lp2554
F155.99983596801758
ag2
aI2091
aa(lp2555
F156.06818199157715
ag4
aI460
aa(lp2556
F156.11223196983337
ag2
aI2092
aa(lp2557
F156.17768502235413
ag2
aI2093
aa(lp2558
F156.2361581325531
ag2
aI2094
aa(lp2559
F156.29666209220886
ag4
aI461
aa(lp2560
F156.35609817504883
ag2
aI2095
aa(lp2561
F156.41231417655945
ag2
aI2096
aa(lp2562
F156.46873116493225
ag2
aI2097
aa(lp2563
F156.55232310295105
ag2
aI2098
aa(lp2564
F156.60497117042542
ag2
aI2099
aa(lp2565
F156.64916896820068
ag2
aI2100
aa(lp2566
F156.712464094162
ag4
aI462
aa(lp2567
F156.7731900215149
ag2
aI2101
aa(lp2568
F156.83646202087402
ag2
aI2102
aa(lp2569
F156.8840401172638
ag2
aI2103
aa(lp2570
F156.9451880455017
ag4
aI463
aa(lp2571
F157.0087230205536
ag2
aI2104
aa(lp2572
F157.08078598976135
ag2
aI2105
aa(lp2573
F157.14401412010193
ag2
aI2106
aa(lp2574
F157.20749306678772
ag2
aI2107
aa(lp2575
F157.26358318328857
ag2
aI2108
aa(lp2576
F157.3365089893341
ag2
aI2109
aa(lp2577
F157.35978603363037
ag2
aI2110
aa(lp2578
F157.42420506477356
ag2
aI2111
aa(lp2579
F157.4876310825348
ag4
aI464
aa(lp2580
F157.53323698043823
ag2
aI2112
aa(lp2581
F157.59593510627747
ag2
aI2113
aa(lp2582
F157.65963697433472
ag2
aI2114
aa(lp2583
F157.71987199783325
ag4
aI465
aa(lp2584
F157.7475380897522
ag2
aI2115
aa(lp2585
F157.84861016273499
ag2
aI2116
aa(lp2586
F157.90742707252502
ag2
aI2117
aa(lp2587
F157.99707412719727
ag2
aI2118
aa(lp2588
F158.02429509162903
ag2
aI2119
aa(lp2589
F158.0931191444397
ag2
aI2120
aa(lp2590
F158.1831831932068
ag2
aI2121
aa(lp2591
F158.2134211063385
ag2
aI2122
aa(lp2592
F158.26180505752563
ag2
aI2123
aa(lp2593
F158.35511803627014
ag2
aI2124
aa(lp2594
F158.3923840522766
ag2
aI2125
aa(lp2595
F158.44074296951294
ag2
aI2126
aa(lp2596
F158.50395107269287
ag4
aI466
aa(lp2597
F158.57362604141235
ag2
aI2127
aa(lp2598
F158.6109540462494
ag2
aI2128
aa(lp2599
F158.6730489730835
ag2
aI2129
aa(lp2600
F158.7603461742401
ag2
aI2130
aa(lp2601
F158.80523705482483
ag2
aI2131
aa(lp2602
F158.84839415550232
ag2
aI2132
aa(lp2603
F158.9128451347351
ag4
aI467
aa(lp2604
F158.9845950603485
ag2
aI2133
aa(lp2605
F159.0386221408844
ag2
aI2134
aa(lp2606
F159.12832617759705
ag2
aI2135
aa(lp2607
F159.16290307044983
ag2
aI2136
aa(lp2608
F159.2962691783905
ag2
aI2137
aa(lp2609
F159.33713102340698
ag4
aI468
aa(lp2610
F159.4084391593933
ag2
aI2138
aa(lp2611
F159.46023511886597
ag2
aI2139
aa(lp2612
F159.51229810714722
ag2
aI2140
aa(lp2613
F159.58043909072876
ag4
aI469
aa(lp2614
F159.63217115402222
ag2
aI2141
aa(lp2615
F159.7237410545349
ag2
aI2142
aa(lp2616
F159.7678279876709
ag2
aI2143
aa(lp2617
F159.86456513404846
ag2
aI2144
aa(lp2618
F159.89668011665344
ag2
aI2145
aa(lp2619
F159.94424605369568
ag2
aI2146
aa(lp2620
F160.01180410385132
ag4
aI470
aa(lp2621
F160.08430099487305
ag2
aI2147
aa(lp2622
F160.1280460357666
ag2
aI2148
aa(lp2623
F160.2007691860199
ag2
aI2149
aa(lp2624
F160.24820804595947
ag4
aI471
aa(lp2625
F160.31646919250488
ag2
aI2150
aa(lp2626
F160.36849904060364
ag2
aI2151
aa(lp2627
F160.44905304908752
ag2
aI2152
aa(lp2628
F160.52880311012268
ag2
aI2153
aa(lp2629
F160.56522798538208
ag2
aI2154
aa(lp2630
F160.61301612854004
ag2
aI2155
aa(lp2631
F160.66089415550232
ag4
aI472
aa(lp2632
F160.7288019657135
ag2
aI2156
aa(lp2633
F160.7810881137848
ag2
aI2157
aa(lp2634
F160.85264205932617
ag2
aI2158
aa(lp2635
F160.905091047287
ag4
aI473
aa(lp2636
F160.97253704071045
ag2
aI2159
aa(lp2637
F161.02503108978271
ag2
aI2160
aa(lp2638
F161.09258317947388
ag2
aI2161
aa(lp2639
F161.18036913871765
ag2
aI2162
aa(lp2640
F161.20484805107117
ag2
aI2163
aa(lp2641
F161.29238104820251
ag2
aI2164
aa(lp2642
F161.32910418510437
ag4
aI474
aa(lp2643
F161.38533306121826
ag2
aI2165
aa(lp2644
F161.43045210838318
ag2
aI2166
aa(lp2645
F161.5102880001068
ag2
aI2167
aa(lp2646
F161.61623811721802
ag2
aI2168
aa(lp2647
F161.64469408988953
ag2
aI2169
aa(lp2648
F161.7212221622467
ag2
aI2170
aa(lp2649
F161.76453709602356
ag4
aI475
aa(lp2650
F161.84921598434448
ag2
aI2171
aa(lp2651
F161.92366099357605
ag2
aI2172
aa(lp2652
F161.9883680343628
ag2
aI2173
aa(lp2653
F162.02061319351196
ag2
aI2174
aa(lp2654
F162.0739381313324
ag2
aI2175
aa(lp2655
F162.1249861717224
ag4
aI476
aa(lp2656
F162.25595808029175
ag2
aI2176
aa(lp2657
F162.28416895866394
ag2
aI2177
aa(lp2658
F162.36813306808472
ag4
aI477
aa(lp2659
F162.40829801559448
ag2
aI2178
aa(lp2660
F162.46370911598206
ag2
aI2179
aa(lp2661
F162.52373814582825
ag2
aI2180
aa(lp2662
F162.60389018058777
ag2
aI2181
aa(lp2663
F162.63590908050537
ag2
aI2182
aa(lp2664
F162.7045760154724
ag2
aI2183
aa(lp2665
F162.7481780052185
ag4
aI478
aa(lp2666
F162.81686806678772
ag2
aI2184
aa(lp2667
F162.86458802223206
ag2
aI2185
aa(lp2668
F162.94452595710754
ag2
aI2186
aa(lp2669
F163.01185512542725
ag4
aI479
aa(lp2670
F163.06863403320312
ag2
aI2187
aa(lp2671
F163.1124391555786
ag2
aI2188
aa(lp2672
F163.17976903915405
ag2
aI2189
aa(lp2673
F163.26896214485168
ag2
aI2190
aa(lp2674
F163.29597997665405
ag2
aI2191
aa(lp2675
F163.36905312538147
ag2
aI2192
aa(lp2676
F163.41650319099426
ag4
aI480
aa(lp2677
F163.47653818130493
ag2
aI2193
aa(lp2678
F163.53992700576782
ag2
aI2194
aa(lp2679
F163.58786010742188
ag2
aI2195
aa(lp2680
F163.66019415855408
ag4
aI481
aa(lp2681
F163.70007801055908
ag2
aI2196
aa(lp2682
F163.7684769630432
ag2
aI2197
aa(lp2683
F163.81593418121338
ag2
aI2198
aa(lp2684
F163.96365308761597
ag2
aI2199
aa(lp2685
F164.11621618270874
ag2
aI2200
aa(lp2686
F164.1643090248108
ag4
aI482
aa(lp2687
F164.2325780391693
ag2
aI2201
aa(lp2688
F164.304612159729
ag2
aI2202
aa(lp2689
F164.35262298583984
ag2
aI2203
aa(lp2690
F164.41589903831482
ag4
aI483
aa(lp2691
F164.4806649684906
ag2
aI2204
aa(lp2692
F164.5282120704651
ag2
aI2205
aa(lp2693
F164.6004979610443
ag2
aI2206
aa(lp2694
F164.68832898139954
ag2
aI2207
aa(lp2695
F164.72086310386658
ag2
aI2208
aa(lp2696
F164.76883006095886
ag2
aI2209
aa(lp2697
F164.83580899238586
ag4
aI484
aa(lp2698
F164.8967649936676
ag2
aI2210
aa(lp2699
F164.9483141899109
ag2
aI2211
aa(lp2700
F165.01655316352844
ag2
aI2212
aa(lp2701
F165.0683081150055
ag4
aI485
aa(lp2702
F165.1401560306549
ag2
aI2213
aa(lp2703
F165.18840503692627
ag2
aI2214
aa(lp2704
F165.26486206054688
ag2
aI2215
aa(lp2705
F165.34838795661926
ag2
aI2216
aa(lp2706
F165.38409996032715
ag2
aI2217
aa(lp2707
F165.43253707885742
ag2
aI2218
aa(lp2708
F165.48431396484375
ag4
aI486
aa(lp2709
F165.560485124588
ag2
aI2219
aa(lp2710
F165.6042721271515
ag2
aI2220
aa(lp2711
F165.6766951084137
ag2
aI2221
aa(lp2712
F165.73214602470398
ag4
aI487
aa(lp2713
F165.78400897979736
ag2
aI2222
aa(lp2714
F165.82791996002197
ag2
aI2223
aa(lp2715
F165.89607310295105
ag2
aI2224
aa(lp2716
F165.98813104629517
ag2
aI2225
aa(lp2717
F166.02014112472534
ag2
aI2226
aa(lp2718
F166.06650018692017
ag2
aI2227
aa(lp2719
F166.17245197296143
ag2
aI2228
aa(lp2720
F166.20382118225098
ag2
aI2229
aa(lp2721
F166.24799013137817
ag2
aI2230
aa(lp2722
F166.31992506980896
ag4
aI488
aa(lp2723
F166.36820697784424
ag2
aI2231
aa(lp2724
F166.44826197624207
ag2
aI2232
aa(lp2725
F166.51235508918762
ag2
aI2233
aa(lp2726
F166.5600299835205
ag4
aI489
aa(lp2727
F166.60809206962585
ag2
aI2234
aa(lp2728
F166.67241597175598
ag2
aI2235
aa(lp2729
F166.74435710906982
ag2
aI2236
aa(lp2730
F166.83261919021606
ag2
aI2237
aa(lp2731
F166.86875295639038
ag2
aI2238
aa(lp2732
F166.92036700248718
ag2
aI2239
aa(lp2733
F166.9643270969391
ag4
aI490
aa(lp2734
F167.03591799736023
ag2
aI2240
aa(lp2735
F167.08047819137573
ag2
aI2241
aa(lp2736
F167.14787602424622
ag2
aI2242
aa(lp2737
F167.20385003089905
ag4
aI491
aa(lp2738
F167.27195000648499
ag2
aI2243
aa(lp2739
F167.33237409591675
ag2
aI2244
aa(lp2740
F167.38047099113464
ag2
aI2245
aa(lp2741
F167.47981715202332
ag2
aI2246
aa(lp2742
F167.53290915489197
ag2
aI2247
aa(lp2743
F167.580304145813
ag2
aI2248
aa(lp2744
F167.65669298171997
ag4
aI492
aa(lp2745
F167.70456719398499
ag2
aI2249
aa(lp2746
F167.75234818458557
ag2
aI2250
aa(lp2747
F167.82014203071594
ag2
aI2251
aa(lp2748
F167.86861515045166
ag4
aI493
aa(lp2749
F167.93030714988708
ag2
aI2252
aa(lp2750
F168.00426816940308
ag2
aI2253
aa(lp2751
F168.06143403053284
ag2
aI2254
aa(lp2752
F168.1399941444397
ag2
aI2255
aa(lp2753
F168.17600011825562
ag2
aI2256
aa(lp2754
F168.24849319458008
ag2
aI2257
aa(lp2755
F168.3000030517578
ag4
aI494
aa(lp2756
F168.35615801811218
ag2
aI2258
aa(lp2757
F168.42008805274963
ag2
aI2259
aa(lp2758
F168.47187399864197
ag2
aI2260
aa(lp2759
F168.54023218154907
ag4
aI495
aa(lp2760
F168.592050075531
ag2
aI2261
aa(lp2761
F168.66039896011353
ag2
aI2262
aa(lp2762
F168.70522117614746
ag2
aI2263
aa(lp2763
F168.79606699943542
ag2
aI2264
aa(lp2764
F168.84015011787415
ag2
aI2265
aa(lp2765
F168.89689111709595
ag2
aI2266
aa(lp2766
F168.94215416908264
ag4
aI496
aa(lp2767
F169.01643800735474
ag2
aI2267
aa(lp2768
F169.06175708770752
ag2
aI2268
aa(lp2769
F169.1359691619873
ag2
aI2269
aa(lp2770
F169.1840569972992
ag4
aI497
aa(lp2771
F169.25608015060425
ag2
aI2270
aa(lp2772
F169.36117506027222
ag2
aI2271
aa(lp2773
F169.4241349697113
ag2
aI2272
aa(lp2774
F169.51974511146545
ag2
aI2273
aa(lp2775
F169.55598902702332
ag2
aI2274
aa(lp2776
F169.60451316833496
ag2
aI2275
aa(lp2777
F169.67188811302185
ag4
aI498
aa(lp2778
F169.7202181816101
ag2
aI2276
aa(lp2779
F169.78825116157532
ag2
aI2277
aa(lp2780
F169.81241917610168
ag2
aI2278
aa(lp2781
F169.9004681110382
ag4
aI499
aa(lp2782
F169.98448610305786
ag2
aI2279
aa(lp2783
F170.0325391292572
ag2
aI2280
aa(lp2784
F170.0766670703888
ag2
aI2281
aa(lp2785
F170.17602801322937
ag2
aI2282
aa(lp2786
F170.20831608772278
ag2
aI2283
aa(lp2787
F170.2560691833496
ag2
aI2284
aa(lp2788
F170.32024502754211
ag4
aI500
aa(lp2789
F170.39669704437256
ag2
aI2285
aa(lp2790
F170.440327167511
ag2
aI2286
aa(lp2791
F170.51274013519287
ag2
aI2287
aa(lp2792
F170.55650806427002
ag4
aI501
aa(lp2793
F170.6278121471405
ag2
aI2288
aa(lp2794
F170.6765170097351
ag2
aI2289
aa(lp2795
F170.74434304237366
ag2
aI2290
aa(lp2796
F170.82813906669617
ag2
aI2291
aa(lp2797
F170.860582113266
ag2
aI2292
aa(lp2798
F170.90801310539246
ag2
aI2293
aa(lp2799
F170.98031497001648
ag4
aI502
aa(lp2800
F171.03602409362793
ag2
aI2294
aa(lp2801
F171.0887851715088
ag2
aI2295
aa(lp2802
F171.16786003112793
ag2
aI2296
aa(lp2803
F171.2166349887848
ag4
aI503
aa(lp2804
F171.28408908843994
ag2
aI2297
aa(lp2805
F171.3560709953308
ag2
aI2298
aa(lp2806
F171.40688800811768
ag2
aI2299
aa(lp2807
F171.51271104812622
ag2
aI2300
aa(lp2808
F171.54446005821228
ag2
aI2301
aa(lp2809
F171.59601497650146
ag2
aI2302
aa(lp2810
F171.66376113891602
ag4
aI504
aa(lp2811
F171.71270108222961
ag2
aI2303
aa(lp2812
F171.78039503097534
ag2
aI2304
aa(lp2813
F171.91162419319153
ag4
aI505
aa(lp2814
F172.0044810771942
ag2
aI2305
aa(lp2815
F172.13909101486206
ag2
aI2306
aa(lp2816
F172.1851990222931
ag2
aI2307
aa(lp2817
F172.37249112129211
ag4
aI506
aa(lp2818
F172.41735410690308
ag2
aI2308
aa(lp2819
F172.5317521095276
ag2
aI2309
aa(lp2820
F172.59691214561462
ag2
aI2310
aa(lp2821
F172.7262361049652
ag2
aI2311
aa(lp2822
F172.78193616867065
ag2
aI2312
aa(lp2823
F172.86647200584412
ag2
aI2313
aa(lp2824
F172.89197611808777
ag4
aI507
aa(lp2825
F172.95476913452148
ag2
aI2314
aa(lp2826
F172.99899697303772
ag2
aI2315
aa(lp2827
F173.06695199012756
ag2
aI2316
aa(lp2828
F173.15282917022705
ag2
aI2317
aa(lp2829
F173.18818616867065
ag2
aI2318
aa(lp2830
F173.23655915260315
ag2
aI2319
aa(lp2831
F173.3340940475464
ag2
aI2320
aa(lp2832
F173.38429808616638
ag2
aI2321
aa(lp2833
F173.44821119308472
ag4
aI508
aa(lp2834
F173.51572799682617
ag2
aI2322
aa(lp2835
F173.5451581478119
ag2
aI2323
aa(lp2836
F173.62861013412476
ag2
aI2324
aa(lp2837
F173.67309498786926
ag2
aI2325
aa(lp2838
F173.71676802635193
ag2
aI2326
aa(lp2839
F173.7770791053772
ag4
aI509
aa(lp2840
F173.84116005897522
ag2
aI2327
aa(lp2841
F173.88598012924194
ag2
aI2328
aa(lp2842
F173.944589138031
ag2
aI2329
aa(lp2843
F174.0363531112671
ag2
aI2330
aa(lp2844
F174.0721731185913
ag2
aI2331
aa(lp2845
F174.131756067276
ag2
aI2332
aa(lp2846
F174.26666808128357
ag2
aI2333
aa(lp2847
F174.2928819656372
ag2
aI2334
aa(lp2848
F174.39178609848022
ag4
aI510
aa(lp2849
F174.4443531036377
ag2
aI2335
aa(lp2850
F174.49610018730164
ag2
aI2336
aa(lp2851
F174.5360541343689
ag2
aI2337
aa(lp2852
F174.6083641052246
ag4
aI511
aa(lp2853
F174.67974710464478
ag2
aI2338
aa(lp2854
F174.73233199119568
ag2
aI2339
aa(lp2855
F174.78009510040283
ag2
aI2340
aa(lp2856
F174.88355207443237
ag2
aI2341
aa(lp2857
F174.92373704910278
ag2
aI2342
aa(lp2858
F174.9999771118164
ag2
aI2343
aa(lp2859
F175.05157113075256
ag4
aI512
aa(lp2860
F175.123850107193
ag2
aI2344
aa(lp2861
F175.19220209121704
ag2
aI2345
aa(lp2862
F175.2635781764984
ag4
aI513
aa(lp2863
F175.3119761943817
ag2
aI2346
aa(lp2864
F175.36012315750122
ag2
aI2347
aa(lp2865
F175.42762112617493
ag2
aI2348
aa(lp2866
F175.51268911361694
ag2
aI2349
aa(lp2867
F175.53997707366943
ag2
aI2350
aa(lp2868
F175.6806480884552
ag2
aI2351
aa(lp2869
F175.71489906311035
ag2
aI2352
aa(lp2870
F175.84948801994324
ag2
aI2353
aa(lp2871
F175.96788501739502
ag2
aI2354
aa(lp2872
F176.04791116714478
ag2
aI2355
aa(lp2873
F176.10860204696655
ag2
aI2356
aa(lp2874
F176.17190718650818
ag2
aI2357
aa(lp2875
F176.2082781791687
ag2
aI2358
aa(lp2876
F176.4010670185089
ag4
aI514
aa(lp2877
F176.50085306167603
ag2
aI2359
aa(lp2878
F176.59245800971985
ag2
aI2360
aa(lp2879
F176.61582016944885
ag2
aI2361
aa(lp2880
F176.64034414291382
ag4
aI515
aa(lp2881
F176.6653311252594
ag2
aI2362
aa(lp2882
F176.720712184906
ag2
aI2363
aa(lp2883
F176.76716208457947
ag2
aI2364
aa(lp2884
F176.79771208763123
ag2
aI2365
aa(lp2885
F176.90486216545105
ag2
aI2366
aa(lp2886
F176.96050810813904
ag2
aI2367
aa(lp2887
F177.06352400779724
ag2
aI2368
aa(lp2888
F177.12300395965576
ag4
aI516
aa(lp2889
F177.14919519424438
ag2
aI2369
aa(lp2890
F177.20116209983826
ag2
aI2370
aa(lp2891
F177.26230001449585
ag2
aI2371
aa(lp2892
F177.35210609436035
ag2
aI2372
aa(lp2893
F177.41274619102478
ag4
aI517
aa(lp2894
F177.50984406471252
ag2
aI2373
aa(lp2895
F177.58933115005493
ag2
aI2374
aa(lp2896
F177.61270403862
ag2
aI2375
aa(lp2897
F177.66056513786316
ag2
aI2376
aa(lp2898
F177.69120907783508
ag2
aI2377
aa(lp2899
F177.74590611457825
ag4
aI518
aa(lp2900
F177.77382612228394
ag2
aI2378
aa(lp2901
F177.80805897712708
ag2
aI2379
aa(lp2902
F177.83935809135437
ag2
aI2380
aa(lp2903
F177.89635515213013
ag2
aI2381
aa(lp2904
F177.95233011245728
ag2
aI2382
aa(lp2905
F178.0512661933899
ag2
aI2383
aa(lp2906
F178.1107120513916
ag4
aI519
aa(lp2907
F178.2270631790161
ag2
aI2384
aa(lp2908
F178.24938297271729
ag2
aI2385
aa(lp2909
F178.3040280342102
ag2
aI2386
aa(lp2910
F178.34081602096558
ag2
aI2387
aa(lp2911
F178.36679100990295
ag2
aI2388
aa(lp2912
F178.427344083786
ag2
aI2389
aa(lp2913
F178.45433402061462
ag2
aI2390
aa(lp2914
F178.50344705581665
ag4
aI520
aa(lp2915
F178.53317403793335
ag2
aI2391
aa(lp2916
F178.58507800102234
ag2
aI2392
aa(lp2917
F178.63309717178345
ag2
aI2393
aa(lp2918
F178.79622101783752
ag2
aI2394
aa(lp2919
F178.8564989566803
ag4
aI521
aa(lp2920
F178.9173560142517
ag2
aI2395
aa(lp2921
F178.9719569683075
ag2
aI2396
aa(lp2922
F179.02061009407043
ag2
aI2397
aa(lp2923
F179.04507303237915
ag2
aI2398
aa(lp2924
F179.06867599487305
ag2
aI2399
aa(lp2925
F179.09288501739502
ag4
aI522
aa(lp2926
F179.1221251487732
ag2
aI2400
aa(lp2927
F179.14556312561035
ag2
aI2401
aa(lp2928
F179.16975712776184
ag2
aI2402
aa(lp2929
F179.38882112503052
ag2
aI2403
aa(lp2930
F179.4139461517334
ag2
aI2404
aa(lp2931
F179.43632316589355
ag2
aI2405
aa(lp2932
F179.46565413475037
ag4
aI523
aa(lp2933
F179.48997902870178
ag2
aI2406
aa(lp2934
F179.51853108406067
ag2
aI2407
aa(lp2935
F179.54301810264587
ag2
aI2408
aa(lp2936
F179.5999059677124
ag2
aI2409
aa(lp2937
F179.62967896461487
ag2
aI2410
aa(lp2938
F179.65859198570251
ag2
aI2411
aa(lp2939
F179.71185302734375
ag2
aI2412
aa(lp2940
F179.7694010734558
ag2
aI2413
aa(lp2941
F179.799250125885
ag4
aI524
aa(lp2942
F179.8317461013794
ag2
aI2414
aa(lp2943
F180.0202431678772
ag2
aI2415
aa(lp2944
F180.08496713638306
ag4
aI525
aa(lp2945
F180.1406750679016
ag2
aI2416
aa(lp2946
F180.20116710662842
ag2
aI2417
aa(lp2947
F180.24138808250427
ag2
aI2418
aa(lp2948
F180.3808331489563
ag2
aI2419
aa(lp2949
F180.404687166214
ag2
aI2420
aa(lp2950
F180.43286418914795
ag2
aI2421
aa(lp2951
F180.485435962677
ag2
aI2422
aa(lp2952
F180.51410913467407
ag2
aI2423
aa(lp2953
F180.58085298538208
ag4
aI526
aa(lp2954
F180.61976408958435
ag2
aI2424
aa(lp2955
F180.64520001411438
ag2
aI2425
aa(lp2956
F180.6726610660553
ag4
aI527
aa(lp2957
F180.69739699363708
ag2
aI2426
aa(lp2958
F180.7478301525116
ag2
aI2427
aa(lp2959
F180.92857098579407
ag2
aI2428
aa(lp2960
F180.95298099517822
ag2
aI2429
aa(lp2961
F180.97798013687134
ag4
aI528
aa(lp2962
F181.0024449825287
ag2
aI2430
aa(lp2963
F181.05884718894958
ag2
aI2431
aa(lp2964
F181.09115409851074
ag4
aI529
aa(lp2965
F181.11769104003906
ag2
aI2432
aa(lp2966
F181.14526295661926
ag2
aI2433
aa(lp2967
F181.27765107154846
ag2
aI2434
aa(lp2968
F181.30038213729858
ag2
aI2435
aa(lp2969
F181.32527208328247
ag2
aI2436
aa(lp2970
F181.34850811958313
ag4
aI530
aa(lp2971
F181.37370014190674
ag2
aI2437
aa(lp2972
F181.42462396621704
ag2
aI2438
aa(lp2973
F181.45024013519287
ag4
aI531
aa(lp2974
F181.50526809692383
ag2
aI2439
aa(lp2975
F181.5347399711609
ag2
aI2440
aa(lp2976
F181.58034706115723
ag2
aI2441
aa(lp2977
F181.63012099266052
ag2
aI2442
aa(lp2978
F181.65306210517883
ag2
aI2443
aa(lp2979
F181.7566180229187
ag2
aI2444
aa(lp2980
F181.8170051574707
ag2
aI2445
aa(lp2981
F181.87278699874878
ag2
aI2446
aa(lp2982
F181.93258810043335
ag4
aI532
aa(lp2983
F181.95675110816956
ag2
aI2447
aa(lp2984
F181.9808530807495
ag2
aI2448
aa(lp2985
F182.01044511795044
ag2
aI2449
aa(lp2986
F182.0663001537323
ag2
aI2450
aa(lp2987
F182.0979630947113
ag2
aI2451
aa(lp2988
F182.13267016410828
ag2
aI2452
aa(lp2989
F182.18202209472656
ag2
aI2453
aa(lp2990
F182.2120749950409
ag2
aI2454
aa(lp2991
F182.29014801979065
ag2
aI2455
aa(lp2992
F182.31800603866577
ag2
aI2456
aa(lp2993
F182.36422109603882
ag4
aI533
aa(lp2994
F182.4008641242981
ag2
aI2457
aa(lp2995
F182.4412009716034
ag2
aI2458
aa(lp2996
F182.4646611213684
ag2
aI2459
aa(lp2997
F182.4884970188141
ag4
aI534
aa(lp2998
F182.51315712928772
ag2
aI2460
aa(lp2999
F182.53735399246216
ag2
aI2461
aa(lp3000
F182.61960101127625
ag2
aI2462
aa(lp3001
F182.65071511268616
ag2
aI2463
aa(lp3002
F182.69722700119019
ag4
aI535
aa(lp3003
F182.72685503959656
ag2
aI2464
aa(lp3004
F182.78076815605164
ag2
aI2465
aa(lp3005
F182.88385009765625
ag2
aI2466
aa(lp3006
F182.94440913200378
ag2
aI2467
aa(lp3007
F182.9962739944458
ag2
aI2468
aa(lp3008
F183.05676102638245
ag4
aI536
aa(lp3009
F183.11721515655518
ag2
aI2469
aa(lp3010
F183.14052414894104
ag2
aI2470
aa(lp3011
F183.16404604911804
ag2
aI2471
aa(lp3012
F183.2227041721344
ag2
aI2472
aa(lp3013
F183.2481780052185
ag2
aI2473
aa(lp3014
F183.2766010761261
ag2
aI2474
aa(lp3015
F183.30388712882996
ag4
aI537
aa(lp3016
F183.32883310317993
ag2
aI2475
aa(lp3017
F183.353590965271
ag2
aI2476
aa(lp3018
F183.3772211074829
ag2
aI2477
aa(lp3019
F183.40387511253357
ag4
aI538
aa(lp3020
F183.42986297607422
ag2
aI2478
aa(lp3021
F183.46200799942017
ag2
aI2479
aa(lp3022
F183.49300003051758
ag2
aI2480
aa(lp3023
F183.6073350906372
ag2
aI2481
aa(lp3024
F183.66651916503906
ag2
aI2482
aa(lp3025
F183.7395579814911
ag2
aI2483
aa(lp3026
F183.79657697677612
ag4
aI539
aa(lp3027
F183.86032605171204
ag2
aI2484
aa(lp3028
F183.8883240222931
ag2
aI2485
aa(lp3029
F183.92871403694153
ag2
aI2486
aa(lp3030
F183.95621609687805
ag4
aI540
aa(lp3031
F183.9885551929474
ag2
aI2487
aa(lp3032
F184.01286602020264
ag2
aI2488
aa(lp3033
F184.03679418563843
ag2
aI2489
aa(lp3034
F184.08753514289856
ag2
aI2490
aa(lp3035
F184.11700797080994
ag2
aI2491
aa(lp3036
F184.14660000801086
ag2
aI2492
aa(lp3037
F184.17809295654297
ag4
aI541
aa(lp3038
F184.20470309257507
ag2
aI2493
aa(lp3039
F184.23335003852844
ag2
aI2494
aa(lp3040
F184.26376605033875
ag2
aI2495
aa(lp3041
F184.29884696006775
ag4
aI542
aa(lp3042
F184.3560860157013
ag2
aI2496
aa(lp3043
F184.38081216812134
ag2
aI2497
aa(lp3044
F184.40384817123413
ag2
aI2498
aa(lp3045
F184.46119499206543
ag2
aI2499
aa(lp3046
F184.4906690120697
ag2
aI2500
aa(lp3047
F184.52332615852356
ag2
aI2501
aa(lp3048
F184.56553506851196
ag4
aI543
aa(lp3049
F184.62751507759094
ag2
aI2502
aa(lp3050
F184.65630316734314
ag2
aI2503
aa(lp3051
F184.68651914596558
ag2
aI2504
aa(lp3052
F184.71273612976074
ag4
aI544
aa(lp3053
F184.7407820224762
ag2
aI2505
aa(lp3054
F184.76436305046082
ag2
aI2506
aa(lp3055
F184.78918409347534
ag2
aI2507
aa(lp3056
F184.8451201915741
ag2
aI2508
aa(lp3057
F184.87400603294373
ag2
aI2509
aa(lp3058
F184.89788699150085
ag2
aI2510
aa(lp3059
F184.9212520122528
ag4
aI545
aa(lp3060
F184.94423699378967
ag2
aI2511
aa(lp3061
F184.96867418289185
ag2
aI2512
aa(lp3062
F185.0176751613617
ag2
aI2513
aa(lp3063
F185.0847029685974
ag4
aI546
aa(lp3064
F185.1405291557312
ag2
aI2514
aa(lp3065
F185.20020818710327
ag2
aI2515
aa(lp3066
F185.2607560157776
ag2
aI2516
aa(lp3067
F185.31205105781555
ag2
aI2517
aa(lp3068
F185.33660006523132
ag2
aI2518
aa(lp3069
F185.36046695709229
ag2
aI2519
aa(lp3070
F185.38428807258606
ag4
aI547
aa(lp3071
F185.4087209701538
ag2
aI2520
aa(lp3072
F185.4321620464325
ag2
aI2521
aa(lp3073
F185.45651006698608
ag2
aI2522
aa(lp3074
F185.48034715652466
ag4
aI548
aa(lp3075
F185.50890707969666
ag2
aI2523
aa(lp3076
F185.5328459739685
ag2
aI2524
aa(lp3077
F185.55613803863525
ag2
aI2525
aa(lp3078
F185.60405206680298
ag2
aI2526
aa(lp3079
F185.6284430027008
ag2
aI2527
aa(lp3080
F185.65211296081543
ag2
aI2528
aa(lp3081
F185.73321413993835
ag4
aI549
aa(lp3082
F185.75644898414612
ag2
aI2529
aa(lp3083
F185.78027296066284
ag2
aI2530
aa(lp3084
F185.80437707901
ag2
aI2531
aa(lp3085
F185.8292360305786
ag4
aI550
aa(lp3086
F185.86928796768188
ag2
aI2532
aa(lp3087
F185.89602398872375
ag2
aI2533
aa(lp3088
F185.92033410072327
ag2
aI2534
aa(lp3089
F185.96877098083496
ag2
aI2535
aa(lp3090
F185.99664998054504
ag2
aI2536
aa(lp3091
F186.02443718910217
ag2
aI2537
aa(lp3092
F186.05237317085266
ag4
aI551
aa(lp3093
F186.0805640220642
ag2
aI2538
aa(lp3094
F186.1039400100708
ag2
aI2539
aa(lp3095
F186.12838196754456
ag2
aI2540
aa(lp3096
F186.15294003486633
ag4
aI552
aa(lp3097
F186.17643213272095
ag2
aI2541
aa(lp3098
F186.20479106903076
ag2
aI2542
aa(lp3099
F186.22800517082214
ag2
aI2543
aa(lp3100
F186.27590918540955
ag2
aI2544
aa(lp3101
F186.30029010772705
ag2
aI2545
aa(lp3102
F186.32531118392944
ag2
aI2546
aa(lp3103
F186.35197615623474
ag4
aI553
aa(lp3104
F186.37639117240906
ag2
aI2547
aa(lp3105
F186.40081000328064
ag2
aI2548
aa(lp3106
F186.43212699890137
ag2
aI2549
aa(lp3107
F186.45643711090088
ag4
aI554
aa(lp3108
F186.48014998435974
ag2
aI2550
aa(lp3109
F186.5042691230774
ag2
aI2551
aa(lp3110
F186.52902817726135
ag2
aI2552
aa(lp3111
F186.60891318321228
ag2
aI2553
aa(lp3112
F186.63238096237183
ag2
aI2554
aa(lp3113
F186.67253613471985
ag2
aI2555
aa(lp3114
F186.73675799369812
ag4
aI555
aa(lp3115
F186.76012516021729
ag2
aI2556
aa(lp3116
F186.78448009490967
ag2
aI2557
aa(lp3117
F186.8080780506134
ag2
aI2558
aa(lp3118
F186.83229303359985
ag4
aI556
aa(lp3119
F186.85690808296204
ag2
aI2559
aa(lp3120
F186.8841791152954
ag2
aI2560
aa(lp3121
F186.912278175354
ag2
aI2561
aa(lp3122
F186.96018409729004
ag2
aI2562
aa(lp3123
F186.98456001281738
ag2
aI2563
aa(lp3124
F187.00839495658875
ag2
aI2564
aa(lp3125
F187.0326759815216
ag4
aI557
aa(lp3126
F187.05600500106812
ag2
aI2565
aa(lp3127
F187.0803210735321
ag2
aI2566
aa(lp3128
F187.1046760082245
ag2
aI2567
aa(lp3129
F187.13205814361572
ag4
aI558
aa(lp3130
F187.15711998939514
ag2
aI2568
aa(lp3131
F187.19827103614807
ag2
aI2569
aa(lp3132
F187.2603461742401
ag2
aI2570
aa(lp3133
F187.388179063797
ag2
aI2571
aa(lp3134
F187.41240000724792
ag2
aI2572
aa(lp3135
F187.43714809417725
ag2
aI2573
aa(lp3136
F187.46020412445068
ag4
aI559
aa(lp3137
F187.48476099967957
ag2
aI2574
aa(lp3138
F187.51571011543274
ag2
aI2575
aa(lp3139
F187.5520350933075
ag2
aI2576
aa(lp3140
F187.57631397247314
ag4
aI560
aa(lp3141
F187.6010401248932
ag2
aI2577
aa(lp3142
F187.62445306777954
ag2
aI2578
aa(lp3143
F187.64887714385986
ag2
aI2579
aa(lp3144
F187.69635701179504
ag2
aI2580
aa(lp3145
F187.7198691368103
ag2
aI2581
aa(lp3146
F187.74427819252014
ag2
aI2582
aa(lp3147
F187.7678680419922
ag4
aI561
aa(lp3148
F187.79193902015686
ag2
aI2583
aa(lp3149
F187.81661701202393
ag2
aI2584
aa(lp3150
F187.84016013145447
ag2
aI2585
aa(lp3151
F187.86438608169556
ag4
aI562
aa(lp3152
F187.88814902305603
ag2
aI2586
aa(lp3153
F187.91267108917236
ag2
aI2587
aa(lp3154
F187.94057202339172
ag2
aI2588
aa(lp3155
F187.98880219459534
ag2
aI2589
aa(lp3156
F188.02073502540588
ag2
aI2590
aa(lp3157
F188.06116700172424
ag2
aI2591
aa(lp3158
F188.0842161178589
ag4
aI563
aa(lp3159
F188.1085560321808
ag2
aI2592
aa(lp3160
F188.13367915153503
ag2
aI2593
aa(lp3161
F188.1568660736084
ag2
aI2594
aa(lp3162
F188.1811180114746
ag4
aI564
aa(lp3163
F188.20586705207825
ag2
aI2595
aa(lp3164
F188.23318219184875
ag2
aI2596
aa(lp3165
F188.25656700134277
ag2
aI2597
aa(lp3166
F188.3046751022339
ag2
aI2598
aa(lp3167
F188.3287181854248
ag2
aI2599
aa(lp3168
F188.35336804389954
ag2
aI2600
aa(lp3169
F188.37632513046265
ag4
aI565
aa(lp3170
F188.40122318267822
ag2
aI2601
aa(lp3171
F188.44818496704102
ag2
aI2602
aa(lp3172
F188.5476050376892
ag4
aI566
aa(lp3173
F188.60504698753357
ag2
aI2603
aa(lp3174
F188.72471809387207
ag2
aI2604
aa(lp3175
F188.77315211296082
ag2
aI2605
aa(lp3176
F188.79705500602722
ag2
aI2606
aa(lp3177
F188.82518601417542
ag2
aI2607
aa(lp3178
F188.84945917129517
ag4
aI567
aa(lp3179
F188.87269401550293
ag2
aI2608
aa(lp3180
F188.91984105110168
ag2
aI2609
aa(lp3181
F188.94482898712158
ag4
aI568
aa(lp3182
F188.97337102890015
ag2
aI2610
aa(lp3183
F189.02024698257446
ag2
aI2611
aa(lp3184
F189.068941116333
ag2
aI2612
aa(lp3185
F189.0933539867401
ag2
aI2613
aa(lp3186
F189.117103099823
ag2
aI2614
aa(lp3187
F189.1409821510315
ag4
aI569
aa(lp3188
F189.16463899612427
ag2
aI2615
aa(lp3189
F189.20496606826782
ag2
aI2616
aa(lp3190
F189.26572513580322
ag2
aI2617
aa(lp3191
F189.32458019256592
ag4
aI570
aa(lp3192
F189.38156604766846
ag2
aI2618
aa(lp3193
F189.40863513946533
ag2
aI2619
aa(lp3194
F189.43317103385925
ag2
aI2620
aa(lp3195
F189.4808840751648
ag2
aI2621
aa(lp3196
F189.5399820804596
ag2
aI2622
aa(lp3197
F189.56470918655396
ag4
aI571
aa(lp3198
F189.58865308761597
ag2
aI2623
aa(lp3199
F189.61425518989563
ag2
aI2624
aa(lp3200
F189.63731408119202
ag2
aI2625
aa(lp3201
F189.6967430114746
ag4
aI572
aa(lp3202
F189.75752806663513
ag2
aI2626
aa(lp3203
F189.833270072937
ag2
aI2627
aa(lp3204
F189.89297699928284
ag2
aI2628
aa(lp3205
F190.06728100776672
ag2
aI2629
aa(lp3206
F190.1284420490265
ag2
aI2630
aa(lp3207
F190.1844940185547
ag2
aI2631
aa(lp3208
F190.2101011276245
ag4
aI573
aa(lp3209
F190.26034998893738
ag2
aI2632
aa(lp3210
F190.2848961353302
ag2
aI2633
aa(lp3211
F190.30909419059753
ag4
aI574
aa(lp3212
F190.33735704421997
ag2
aI2634
aa(lp3213
F190.36045002937317
ag2
aI2635
aa(lp3214
F190.42384004592896
ag2
aI2636
aa(lp3215
F190.5452060699463
ag2
aI2637
aa(lp3216
F190.60478806495667
ag2
aI2638
aa(lp3217
F190.62942004203796
ag2
aI2639
aa(lp3218
F190.6532289981842
ag4
aI575
aa(lp3219
F190.7396981716156
ag2
aI2640
aa(lp3220
F190.764662027359
ag2
aI2641
aa(lp3221
F190.78892707824707
ag4
aI576
aa(lp3222
F190.8127851486206
ag2
aI2642
aa(lp3223
F190.83720302581787
ag2
aI2643
aa(lp3224
F190.8812940120697
ag2
aI2644
aa(lp3225
F191.0421040058136
ag2
aI2645
aa(lp3226
F191.09854316711426
ag2
aI2646
aa(lp3227
F191.14365315437317
ag4
aI577
aa(lp3228
F191.1729760169983
ag2
aI2647
aa(lp3229
F191.1973581314087
ag2
aI2648
aa(lp3230
F191.24392199516296
ag4
aI578
aa(lp3231
F191.26873517036438
ag2
aI2649
aa(lp3232
F191.29286217689514
ag2
aI2650
aa(lp3233
F191.31620812416077
ag2
aI2651
aa(lp3234
F191.36526799201965
ag2
aI2652
aa(lp3235
F191.38852500915527
ag2
aI2653
aa(lp3236
F191.41314315795898
ag2
aI2654
aa(lp3237
F191.43642210960388
ag4
aI579
aa(lp3238
F191.4607470035553
ag2
aI2655
aa(lp3239
F191.48455715179443
ag2
aI2656
aa(lp3240
F191.50869798660278
ag2
aI2657
aa(lp3241
F191.53303599357605
ag4
aI580
aa(lp3242
F191.55681204795837
ag2
aI2658
aa(lp3243
F191.58101606369019
ag2
aI2659
aa(lp3244
F191.62130498886108
ag2
aI2660
aa(lp3245
F191.7372260093689
ag2
aI2661
aa(lp3246
F191.8045530319214
ag2
aI2662
aa(lp3247
F191.82958602905273
ag2
aI2663
aa(lp3248
F191.86558508872986
ag4
aI581
aa(lp3249
F191.9247591495514
ag2
aI2664
aa(lp3250
F191.94950699806213
ag2
aI2665
aa(lp3251
F191.97256016731262
ag2
aI2666
aa(lp3252
F191.99634504318237
ag4
aI582
aa(lp3253
F192.0206241607666
ag2
aI2667
aa(lp3254
F192.04464101791382
ag2
aI2668
aa(lp3255
F192.08099102973938
ag2
aI2669
aa(lp3256
F192.19311714172363
ag2
aI2670
aa(lp3257
F192.29551815986633
ag2
aI2671
aa(lp3258
F192.31666207313538
ag2
aI2672
aa(lp3259
F192.3408341407776
ag4
aI583
aa(lp3260
F192.36495304107666
ag2
aI2673
aa(lp3261
F192.3883399963379
ag2
aI2674
aa(lp3262
F192.4206039905548
ag2
aI2675
aa(lp3263
F192.44488716125488
ag4
aI584
aa(lp3264
F192.46852707862854
ag2
aI2676
aa(lp3265
F192.49303197860718
ag2
aI2677
aa(lp3266
F192.51619911193848
ag2
aI2678
aa.