(lp0
(lp1
F0.00047206878662109375
aS'TCP'
p2
aI0
aa(lp3
F0.05213809013366699
aS'UDP'
p4
aI0
aa(lp5
F0.13290119171142578
ag2
aI1
aa(lp6
F0.20425009727478027
ag2
aI2
aa(lp7
F0.25579118728637695
ag4
aI1
aa(lp8
F0.30743908882141113
ag2
aI3
aa(lp9
F0.4019951820373535
ag2
aI4
aa(lp10
F0.4642481803894043
ag2
aI5
aa(lp11
F0.5157620906829834
ag2
aI6
aa(lp12
F0.5881130695343018
ag2
aI7
aa(lp13
F0.6195859909057617
ag4
aI2
aa(lp14
F0.675908088684082
ag2
aI8
aa(lp15
F0.8038341999053955
ag2
aI9
aa(lp16
F0.9200310707092285
ag2
aI10
aa(lp17
F0.966853141784668
ag4
aI3
aa(lp18
F1.083611011505127
ag2
aI11
aa(lp19
F1.1354091167449951
ag2
aI12
aa(lp20
F1.207643985748291
ag2
aI13
aa(lp21
F1.2392961978912354
ag4
aI4
aa(lp22
F1.4230639934539795
ag2
aI14
aa(lp23
F1.4674181938171387
ag2
aI15
aa(lp24
F1.4916720390319824
ag4
aI5
aa(lp25
F1.5165441036224365
ag2
aI16
aa(lp26
F1.5627729892730713
ag2
aI17
aa(lp27
F1.5949630737304688
ag4
aI6
aa(lp28
F1.6242790222167969
ag2
aI18
aa(lp29
F1.6567330360412598
ag4
aI7
aa(lp30
F1.7516400814056396
ag4
aI8
aa(lp31
F1.8040101528167725
ag4
aI9
aa(lp32
F1.8925671577453613
ag4
aI10
aa(lp33
F1.9196100234985352
ag2
aI19
aa(lp34
F1.9487311840057373
ag4
aI11
aa(lp35
F1.980593204498291
ag2
aI20
aa(lp36
F2.0386910438537598
ag2
aI21
aa(lp37
F2.084848165512085
ag2
aI22
aa(lp38
F2.1120522022247314
ag4
aI12
aa(lp39
F2.159726142883301
ag4
aI13
aa(lp40
F2.1919751167297363
ag2
aI23
aa(lp41
F2.240415096282959
ag2
aI24
aa(lp42
F2.2641100883483887
ag4
aI14
aa(lp43
F2.2973721027374268
ag2
aI25
aa(lp44
F2.3311891555786133
ag4
aI15
aa(lp45
F2.3586621284484863
ag2
aI26
aa(lp46
F2.438613176345825
ag4
aI16
aa(lp47
F2.484966993331909
ag4
aI17
aa(lp48
F2.5122900009155273
ag2
aI27
aa(lp49
F2.561361074447632
ag2
aI28
aa(lp50
F2.583893060684204
ag4
aI18
aa(lp51
F2.61940598487854
ag2
aI29
aa(lp52
F2.684324026107788
ag4
aI19
aa(lp53
F2.7112200260162354
ag2
aI30
aa(lp54
F2.760378122329712
ag2
aI31
aa(lp55
F2.787553071975708
ag4
aI20
aa(lp56
F2.8161911964416504
ag2
aI32
aa(lp57
F2.8835630416870117
ag4
aI21
aa(lp58
F2.9082491397857666
ag2
aI33
aa(lp59
F2.9578981399536133
ag2
aI34
aa(lp60
F2.98628306388855
ag4
aI22
aa(lp61
F3.0274100303649902
ag4
aI23
aa(lp62
F3.0580530166625977
ag2
aI35
aa(lp63
F3.1052451133728027
ag2
aI36
aa(lp64
F3.18282413482666
ag4
aI24
aa(lp65
F3.2241411209106445
ag4
aI25
aa(lp66
F3.3322880268096924
ag4
aI26
aa(lp67
F3.387399196624756
ag4
aI27
aa(lp68
F3.422011137008667
ag2
aI37
aa(lp69
F3.474846124649048
ag2
aI38
aa(lp70
F3.525783061981201
ag2
aI39
aa(lp71
F3.5821070671081543
ag2
aI40
aa(lp72
F3.6414730548858643
ag2
aI41
aa(lp73
F3.7061550617218018
ag2
aI42
aa(lp74
F3.7658560276031494
ag2
aI43
aa(lp75
F3.8249480724334717
ag2
aI44
aa(lp76
F3.861621141433716
ag4
aI28
aa(lp77
F3.920405149459839
ag4
aI29
aa(lp78
F4.036696195602417
ag4
aI30
aa(lp79
F4.083675146102905
ag4
aI31
aa(lp80
F4.118858098983765
ag2
aI45
aa(lp81
F4.181384086608887
ag2
aI46
aa(lp82
F4.216066122055054
ag4
aI32
aa(lp83
F4.25237512588501
ag2
aI47
aa(lp84
F4.282801151275635
ag4
aI33
aa(lp85
F4.396017074584961
ag4
aI34
aa(lp86
F4.424868106842041
ag2
aI48
aa(lp87
F4.4557130336761475
ag4
aI35
aa(lp88
F4.494230031967163
ag2
aI49
aa(lp89
F4.555004119873047
ag2
aI50
aa(lp90
F4.609570026397705
ag2
aI51
aa(lp91
F4.662992000579834
ag2
aI52
aa(lp92
F4.715130090713501
ag2
aI53
aa(lp93
F4.761713027954102
ag2
aI54
aa(lp94
F4.816774129867554
ag2
aI55
aa(lp95
F4.879141092300415
ag2
aI56
aa(lp96
F4.9158570766448975
ag4
aI36
aa(lp97
F4.947076082229614
ag2
aI57
aa(lp98
F4.973194122314453
ag4
aI37
aa(lp99
F5.010127067565918
ag2
aI58
aa(lp100
F5.05382513999939
ag2
aI59
aa(lp101
F5.099910020828247
ag2
aI60
aa(lp102
F5.150060176849365
ag2
aI61
aa(lp103
F5.206454038619995
ag2
aI62
aa(lp104
F5.252509117126465
ag2
aI63
aa(lp105
F5.280867099761963
ag4
aI38
aa(lp106
F5.335443019866943
ag4
aI39
aa(lp107
F5.3689351081848145
ag2
aI64
aa(lp108
F5.4343101978302
ag2
aI65
aa(lp109
F5.461613178253174
ag4
aI40
aa(lp110
F5.520296096801758
ag4
aI41
aa(lp111
F5.54795503616333
ag2
aI66
aa(lp112
F5.606942176818848
ag2
aI67
aa(lp113
F5.672007083892822
ag2
aI68
aa(lp114
F5.722213983535767
ag2
aI69
aa(lp115
F5.748805999755859
ag4
aI42
aa(lp116
F5.781951189041138
ag2
aI70
aa(lp117
F5.830747127532959
ag2
aI71
aa(lp118
F5.863512992858887
ag4
aI43
aa(lp119
F5.888763189315796
ag2
aI72
aa(lp120
F5.939834117889404
ag2
aI73
aa(lp121
F6.009191036224365
ag2
aI74
aa(lp122
F6.063820123672485
ag2
aI75
aa(lp123
F6.087747097015381
ag4
aI44
aa(lp124
F6.119121074676514
ag2
aI76
aa(lp125
F6.1470911502838135
ag4
aI45
aa(lp126
F6.176573038101196
ag2
aI77
aa(lp127
F6.259634017944336
ag4
aI46
aa(lp128
F6.321144104003906
ag4
aI47
aa(lp129
F6.405441045761108
ag2
aI78
aa(lp130
F6.462104082107544
ag2
aI79
aa(lp131
F6.493204116821289
ag4
aI48
aa(lp132
F6.5247321128845215
ag2
aI80
aa(lp133
F6.574137210845947
ag2
aI81
aa(lp134
F6.625867128372192
ag2
aI82
aa(lp135
F6.6561501026153564
ag4
aI49
aa(lp136
F6.691761016845703
ag2
aI83
aa(lp137
F6.77671217918396
ag4
aI50
aa(lp138
F6.827247142791748
ag4
aI51
aa(lp139
F6.850028991699219
ag2
aI84
aa(lp140
F6.8996570110321045
ag2
aI85
aa(lp141
F6.920180082321167
ag4
aI52
aa(lp142
F6.947846174240112
ag2
aI86
aa(lp143
F6.96855902671814
ag4
aI53
aa(lp144
F7.043645143508911
ag2
aI87
aa(lp145
F7.08768105506897
ag2
aI88
aa(lp146
F7.113864183425903
ag4
aI54
aa(lp147
F7.164556980133057
ag4
aI55
aa(lp148
F7.1885881423950195
ag2
aI89
aa(lp149
F7.240646123886108
ag2
aI90
aa(lp150
F7.268535137176514
ag4
aI56
aa(lp151
F7.300688028335571
ag2
aI91
aa(lp152
F7.328540086746216
ag4
aI57
aa(lp153
F7.357249975204468
ag2
aI92
aa(lp154
F7.405970096588135
ag2
aI93
aa(lp155
F7.436377048492432
ag4
aI58
aa(lp156
F7.461144208908081
ag2
aI94
aa(lp157
F7.485072135925293
ag4
aI59
aa(lp158
F7.508551120758057
ag2
aI95
aa(lp159
F7.599975109100342
ag4
aI60
aa(lp160
F7.653931140899658
ag2
aI96
aa(lp161
F7.712069034576416
ag2
aI97
aa(lp162
F7.744817018508911
ag4
aI61
aa(lp163
F7.783990144729614
ag2
aI98
aa(lp164
F7.832707166671753
ag2
aI99
aa(lp165
F7.856630086898804
ag4
aI62
aa(lp166
F7.88467812538147
ag2
aI100
aa(lp167
F7.912988185882568
ag4
aI63
aa(lp168
F7.939025163650513
ag2
aI101
aa(lp169
F8.013171195983887
ag2
aI102
aa(lp170
F8.041445016860962
ag4
aI64
aa(lp171
F8.080156087875366
ag2
aI103
aa(lp172
F8.11306118965149
ag4
aI65
aa(lp173
F8.1457359790802
ag2
aI104
aa(lp174
F8.204596042633057
ag2
aI105
aa(lp175
F8.267632007598877
ag2
aI106
aa(lp176
F8.333553075790405
ag2
aI107
aa(lp177
F8.366955041885376
ag4
aI66
aa(lp178
F8.404998064041138
ag2
aI108
aa(lp179
F8.433428049087524
ag4
aI67
aa(lp180
F8.54425311088562
ag4
aI68
aa(lp181
F8.576420068740845
ag2
aI109
aa(lp182
F8.63768720626831
ag2
aI110
aa(lp183
F8.69501805305481
ag2
aI111
aa(lp184
F8.741368055343628
ag2
aI112
aa(lp185
F8.776002168655396
ag4
aI69
aa(lp186
F8.891270160675049
ag4
aI70
aa(lp187
F8.923845052719116
ag2
aI113
aa(lp188
F8.977017164230347
ag2
aI114
aa(lp189
F9.0034761428833
ag4
aI71
aa(lp190
F9.101966142654419
ag2
aI115
aa(lp191
F9.133539199829102
ag4
aI72
aa(lp192
F9.16735315322876
ag2
aI116
aa(lp193
F9.20179009437561
ag4
aI73
aa(lp194
F9.233468055725098
ag2
aI117
aa(lp195
F9.288937091827393
ag2
aI118
aa(lp196
F9.371852159500122
ag4
aI74
aa(lp197
F9.406330108642578
ag2
aI119
aa(lp198
F9.457129001617432
ag2
aI120
aa(lp199
F9.487680196762085
ag4
aI75
aa(lp200
F9.529175043106079
ag2
aI121
aa(lp201
F9.613877058029175
ag4
aI76
aa(lp202
F9.634443998336792
ag2
aI122
aa(lp203
F9.661051988601685
ag4
aI77
aa(lp204
F9.685341119766235
ag2
aI123
aa(lp205
F9.728746175765991
ag2
aI124
aa(lp206
F9.78444218635559
ag2
aI125
aa(lp207
F9.811328172683716
ag4
aI78
aa(lp208
F9.85067105293274
ag2
aI126
aa(lp209
F9.87907600402832
ag4
aI79
aa(lp210
F9.911426067352295
ag2
aI127
aa(lp211
F9.97150707244873
ag2
aI128
aa(lp212
F10.043838024139404
ag2
aI129
aa(lp213
F10.088873147964478
ag2
aI130
aa(lp214
F10.123275995254517
ag4
aI80
aa(lp215
F10.153215169906616
ag2
aI131
aa(lp216
F10.20737910270691
ag2
aI132
aa(lp217
F10.263298988342285
ag2
aI133
aa(lp218
F10.334084033966064
ag2
aI134
aa(lp219
F10.396052122116089
ag2
aI135
aa(lp220
F10.423892974853516
ag4
aI81
aa(lp221
F10.451694011688232
ag2
aI136
aa(lp222
F10.504944086074829
ag2
aI137
aa(lp223
F10.56851315498352
ag2
aI138
aa(lp224
F10.623984098434448
ag2
aI139
aa(lp225
F10.654994010925293
ag4
aI82
aa(lp226
F10.681564092636108
ag2
aI140
aa(lp227
F10.70553207397461
ag4
aI83
aa(lp228
F10.732048034667969
ag2
aI141
aa(lp229
F10.808688163757324
ag4
aI84
aa(lp230
F10.845386028289795
ag2
aI142
aa(lp231
F10.898729085922241
ag2
aI143
aa(lp232
F10.959904193878174
ag2
aI144
aa(lp233
F11.018477201461792
ag2
aI145
aa(lp234
F11.07688307762146
ag2
aI146
aa(lp235
F11.120306015014648
ag4
aI85
aa(lp236
F11.14876103401184
ag2
aI147
aa(lp237
F11.228387117385864
ag4
aI86
aa(lp238
F11.264052152633667
ag2
aI148
aa(lp239
F11.295798063278198
ag4
aI87
aa(lp240
F11.32910704612732
ag2
aI149
aa(lp241
F11.402551174163818
ag2
aI150
aa(lp242
F11.432635068893433
ag4
aI88
aa(lp243
F11.467357158660889
ag2
aI151
aa(lp244
F11.534927129745483
ag2
aI152
aa(lp245
F11.568571090698242
ag4
aI89
aa(lp246
F11.598122119903564
ag2
aI153
aa(lp247
F11.657616138458252
ag2
aI154
aa(lp248
F11.689417123794556
ag4
aI90
aa(lp249
F11.7171790599823
ag2
aI155
aa(lp250
F11.77652907371521
ag2
aI156
aa(lp251
F11.808943033218384
ag4
aI91
aa(lp252
F11.893386125564575
ag2
aI157
aa(lp253
F11.92080807685852
ag4
aI92
aa(lp254
F11.952905178070068
ag2
aI158
aa(lp255
F11.984000205993652
ag4
aI93
aa(lp256
F12.085570096969604
ag2
aI159
aa(lp257
F12.116485118865967
ag4
aI94
aa(lp258
F12.146802186965942
ag2
aI160
aa(lp259
F12.201240062713623
ag2
aI161
aa(lp260
F12.228849172592163
ag4
aI95
aa(lp261
F12.309166193008423
ag2
aI162
aa(lp262
F12.360419034957886
ag2
aI163
aa(lp263
F12.384457111358643
ag4
aI96
aa(lp264
F12.408097982406616
ag2
aI164
aa(lp265
F12.43173098564148
ag4
aI97
aa(lp266
F12.458245038986206
ag2
aI165
aa(lp267
F12.540431022644043
ag4
aI98
aa(lp268
F12.618086099624634
ag2
aI166
aa(lp269
F12.704177141189575
ag2
aI167
aa(lp270
F12.73910403251648
ag4
aI99
aa(lp271
F12.773221015930176
ag2
aI168
aa(lp272
F12.843881130218506
ag2
aI169
aa(lp273
F12.881790161132812
ag4
aI100
aa(lp274
F12.919003009796143
ag2
aI170
aa(lp275
F13.000967025756836
ag2
aI171
aa(lp276
F13.033104181289673
ag4
aI101
aa(lp277
F13.059455156326294
ag2
aI172
aa(lp278
F13.12603497505188
ag2
aI173
aa(lp279
F13.183964014053345
ag4
aI102
aa(lp280
F13.245935201644897
ag4
aI103
aa(lp281
F13.352050065994263
ag4
aI104
aa(lp282
F13.382980108261108
ag2
aI174
aa(lp283
F13.409646034240723
ag4
aI105
aa(lp284
F13.443511009216309
ag2
aI175
aa(lp285
F13.509396076202393
ag2
aI176
aa(lp286
F13.543184995651245
ag4
aI106
aa(lp287
F13.57058310508728
ag2
aI177
aa(lp288
F13.603863000869751
ag4
aI107
aa(lp289
F13.627690076828003
ag2
aI178
aa(lp290
F13.68100619316101
ag2
aI179
aa(lp291
F13.759599208831787
ag2
aI180
aa(lp292
F13.806030988693237
ag2
aI181
aa(lp293
F13.86414098739624
ag2
aI182
aa(lp294
F13.919213056564331
ag2
aI183
aa(lp295
F13.971611976623535
ag2
aI184
aa(lp296
F14.000095129013062
ag4
aI108
aa(lp297
F14.044172048568726
ag4
aI109
aa(lp298
F14.072625160217285
ag2
aI185
aa(lp299
F14.143675088882446
ag2
aI186
aa(lp300
F14.167870044708252
ag4
aI110
aa(lp301
F14.19930100440979
ag2
aI187
aa(lp302
F14.25079607963562
ag2
aI188
aa(lp303
F14.308781147003174
ag2
aI189
aa(lp304
F14.351466178894043
ag4
aI111
aa(lp305
F14.38758111000061
ag2
aI190
aa(lp306
F14.467336177825928
ag2
aI191
aa(lp307
F14.502010107040405
ag4
aI112
aa(lp308
F14.556625127792358
ag4
aI113
aa(lp309
F14.596235990524292
ag2
aI192
aa(lp310
F14.69705319404602
ag4
aI114
aa(lp311
F14.748263120651245
ag4
aI115
aa(lp312
F14.853749990463257
ag4
aI116
aa(lp313
F14.902054071426392
ag2
aI193
aa(lp314
F14.942599058151245
ag4
aI117
aa(lp315
F14.980283975601196
ag2
aI194
aa(lp316
F15.060142040252686
ag4
aI118
aa(lp317
F15.104466199874878
ag2
aI195
aa(lp318
F15.140621185302734
ag4
aI119
aa(lp319
F15.167976140975952
ag2
aI196
aa(lp320
F15.23215103149414
ag2
aI197
aa(lp321
F15.256644010543823
ag4
aI120
aa(lp322
F15.291916131973267
ag2
aI198
aa(lp323
F15.322034120559692
ag4
aI121
aa(lp324
F15.424517154693604
ag4
aI122
aa(lp325
F15.477346181869507
ag4
aI123
aa(lp326
F15.505113124847412
ag2
aI199
aa(lp327
F15.555816173553467
ag2
aI200
aa(lp328
F15.608806133270264
ag2
aI201
aa(lp329
F15.638816118240356
ag4
aI124
aa(lp330
F15.680824041366577
ag2
aI202
aa(lp331
F15.739457130432129
ag2
aI203
aa(lp332
F15.7726571559906
ag4
aI125
aa(lp333
F15.970649003982544
ag4
aI126
aa(lp334
F16.070576190948486
ag2
aI204
aa(lp335
F16.10456418991089
ag4
aI127
aa(lp336
F16.145047187805176
ag2
aI205
aa(lp337
F16.215100049972534
ag2
aI206
aa(lp338
F16.407567977905273
ag2
aI207
aa(lp339
F16.452043056488037
ag2
aI208
aa(lp340
F16.5362331867218
ag4
aI128
aa(lp341
F16.584288120269775
ag4
aI129
aa(lp342
F16.70591902732849
ag4
aI130
aa(lp343
F16.734220027923584
ag2
aI209
aa(lp344
F16.7732892036438
ag4
aI131
aa(lp345
F16.810320138931274
ag2
aI210
aa(lp346
F16.88321614265442
ag2
aI211
aa(lp347
F16.919255018234253
ag4
aI132
aa(lp348
F16.969824075698853
ag4
aI133
aa(lp349
F17.07190704345703
ag2
aI212
aa(lp350
F17.108012199401855
ag4
aI134
aa(lp351
F17.146923065185547
ag2
aI213
aa(lp352
F17.18225908279419
ag4
aI135
aa(lp353
F17.217149019241333
ag2
aI214
aa(lp354
F17.27493119239807
ag2
aI215
aa(lp355
F17.3259379863739
ag2
aI216
aa(lp356
F17.374126195907593
ag2
aI217
aa(lp357
F17.426448106765747
ag2
aI218
aa(lp358
F17.455846071243286
ag4
aI136
aa(lp359
F17.547631978988647
ag2
aI219
aa(lp360
F17.60137414932251
ag4
aI137
aa(lp361
F17.671921014785767
ag2
aI220
aa(lp362
F17.76007604598999
ag2
aI221
aa(lp363
F17.783406019210815
ag4
aI138
aa(lp364
F17.849245071411133
ag2
aI222
aa(lp365
F17.923809051513672
ag4
aI139
aa(lp366
F18.025094032287598
ag2
aI223
aa(lp367
F18.17162013053894
ag4
aI140
aa(lp368
F18.222164154052734
ag2
aI224
aa(lp369
F18.348721981048584
ag4
aI141
aa(lp370
F18.584607124328613
ag4
aI142
aa(lp371
F18.608586072921753
ag2
aI225
aa(lp372
F18.71780800819397
ag2
aI226
aa(lp373
F18.768786191940308
ag2
aI227
aa(lp374
F18.866674184799194
ag4
aI143
aa(lp375
F18.984243154525757
ag2
aI228
aa(lp376
F19.016632080078125
ag4
aI144
aa(lp377
F19.175371170043945
ag4
aI145
aa(lp378
F19.327779054641724
ag2
aI229
aa(lp379
F19.388219118118286
ag2
aI230
aa(lp380
F19.440110206604004
ag2
aI231
aa(lp381
F19.47139620780945
ag4
aI146
aa(lp382
F19.571110010147095
ag4
aI147
aa(lp383
F19.61197519302368
ag2
aI232
aa(lp384
F19.68784499168396
ag2
aI233
aa(lp385
F19.7799391746521
ag4
aI148
aa(lp386
F19.83430004119873
ag4
aI149
aa(lp387
F19.952226161956787
ag2
aI234
aa(lp388
F20.059990167617798
ag2
aI235
aa(lp389
F20.131304025650024
ag2
aI236
aa(lp390
F20.23623013496399
ag2
aI237
aa(lp391
F20.30709218978882
ag4
aI150
aa(lp392
F20.375988006591797
ag2
aI238
aa(lp393
F20.44342613220215
ag2
aI239
aa(lp394
F20.520402193069458
ag2
aI240
aa(lp395
F20.5760440826416
ag2
aI241
aa(lp396
F20.6078519821167
ag4
aI151
aa(lp397
F20.75985312461853
ag4
aI152
aa(lp398
F20.789741039276123
ag2
aI242
aa(lp399
F20.93155002593994
ag4
aI153
aa(lp400
F20.99267601966858
ag2
aI243
aa(lp401
F21.08039116859436
ag2
aI244
aa(lp402
F21.12420916557312
ag4
aI154
aa(lp403
F21.20426917076111
ag2
aI245
aa(lp404
F21.24362015724182
ag4
aI155
aa(lp405
F21.312390089035034
ag2
aI246
aa(lp406
F21.391530990600586
ag2
aI247
aa(lp407
F21.435497999191284
ag4
aI156
aa(lp408
F21.499686002731323
ag2
aI248
aa(lp409
F21.560094118118286
ag4
aI157
aa(lp410
F21.604355096817017
ag2
aI249
aa(lp411
F21.692082166671753
ag2
aI250
aa(lp412
F21.739580154418945
ag4
aI158
aa(lp413
F21.779870986938477
ag2
aI251
aa(lp414
F21.843358993530273
ag4
aI159
aa(lp415
F21.900164127349854
ag2
aI252
aa(lp416
F21.97999405860901
ag2
aI253
aa(lp417
F22.02403497695923
ag4
aI160
aa(lp418
F22.087298154830933
ag2
aI254
aa(lp419
F22.147900104522705
ag4
aI161
aa(lp420
F22.207916021347046
ag2
aI255
aa(lp421
F22.295922994613647
ag2
aI256
aa(lp422
F22.320276021957397
ag4
aI162
aa(lp423
F22.392742156982422
ag2
aI257
aa(lp424
F22.45223617553711
ag4
aI163
aa(lp425
F22.520600080490112
ag2
aI258
aa(lp426
F22.584073066711426
ag2
aI259
aa(lp427
F22.62802219390869
ag4
aI164
aa(lp428
F22.69031810760498
ag2
aI260
aa(lp429
F22.751857042312622
ag4
aI165
aa(lp430
F22.82434606552124
ag2
aI261
aa(lp431
F22.911672115325928
ag4
aI166
aa(lp432
F22.940927982330322
ag2
aI262
aa(lp433
F23.008892059326172
ag2
aI263
aa(lp434
F23.053062200546265
ag4
aI167
aa(lp435
F23.12044620513916
ag2
aI264
aa(lp436
F23.192747116088867
ag2
aI265
aa(lp437
F23.22488808631897
ag4
aI168
aa(lp438
F23.28828501701355
ag2
aI266
aa(lp439
F23.348512172698975
ag4
aI169
aa(lp440
F23.411907196044922
ag2
aI267
aa(lp441
F23.496034145355225
ag2
aI268
aa(lp442
F23.53753900527954
ag4
aI170
aa(lp443
F23.601030111312866
ag2
aI269
aa(lp444
F23.683815002441406
ag2
aI270
aa(lp445
F23.724364042282104
ag4
aI171
aa(lp446
F23.768918991088867
ag2
aI271
aa(lp447
F23.857424020767212
ag2
aI272
aa(lp448
F23.92310905456543
ag2
aI273
aa(lp449
F23.948037147521973
ag4
aI172
aa(lp450
F24.008759021759033
ag2
aI274
aa(lp451
F24.068068981170654
ag4
aI173
aa(lp452
F24.132880210876465
ag2
aI275
aa(lp453
F24.220348119735718
ag2
aI276
aa(lp454
F24.243839025497437
ag4
aI174
aa(lp455
F24.309579133987427
ag2
aI277
aa(lp456
F24.372831106185913
ag4
aI175
aa(lp457
F24.436326026916504
ag2
aI278
aa(lp458
F24.504886150360107
ag2
aI279
aa(lp459
F24.55242109298706
ag4
aI176
aa(lp460
F24.615905046463013
ag2
aI280
aa(lp461
F24.663560152053833
ag4
aI177
aa(lp462
F24.72423219680786
ag2
aI281
aa(lp463
F24.816107988357544
ag2
aI282
aa(lp464
F24.840468168258667
ag4
aI178
aa(lp465
F24.911765098571777
ag2
aI283
aa(lp466
F24.98013710975647
ag4
aI179
aa(lp467
F25.044666051864624
ag2
aI284
aa(lp468
F25.111900091171265
ag2
aI285
aa(lp469
F25.155575037002563
ag4
aI180
aa(lp470
F25.220163106918335
ag2
aI286
aa(lp471
F25.264233112335205
ag4
aI181
aa(lp472
F25.328139066696167
ag2
aI287
aa(lp473
F25.416625022888184
ag2
aI288
aa(lp474
F25.444128036499023
ag4
aI182
aa(lp475
F25.508597135543823
ag2
aI289
aa(lp476
F25.576667070388794
ag4
aI183
aa(lp477
F25.62513303756714
ag2
aI290
aa(lp478
F25.71245813369751
ag2
aI291
aa(lp479
F25.73577904701233
ag4
aI184
aa(lp480
F25.798002004623413
ag2
aI292
aa(lp481
F25.86004114151001
ag4
aI185
aa(lp482
F25.924760103225708
ag2
aI293
aa(lp483
F26.008156061172485
ag2
aI294
aa(lp484
F26.031838178634644
ag4
aI186
aa(lp485
F26.09599804878235
ag2
aI295
aa(lp486
F26.1566801071167
ag4
aI187
aa(lp487
F26.22022008895874
ag2
aI296
aa(lp488
F26.308070182800293
ag2
aI297
aa(lp489
F26.332439184188843
ag4
aI188
aa(lp490
F26.39234709739685
ag2
aI298
aa(lp491
F26.45244002342224
ag4
aI189
aa(lp492
F26.520044088363647
ag2
aI299
aa(lp493
F26.588239192962646
ag2
aI300
aa(lp494
F26.636232137680054
ag4
aI190
aa(lp495
F26.696664094924927
ag2
aI301
aa(lp496
F26.756038188934326
ag4
aI191
aa(lp497
F26.81696319580078
ag2
aI302
aa(lp498
F26.899792194366455
ag2
aI303
aa(lp499
F26.937750101089478
ag4
aI192
aa(lp500
F27.000534057617188
ag2
aI304
aa(lp501
F27.06085705757141
ag4
aI193
aa(lp502
F27.124464988708496
ag2
aI305
aa(lp503
F27.208147048950195
ag2
aI306
aa(lp504
F27.2324001789093
ag4
aI194
aa(lp505
F27.293861150741577
ag2
aI307
aa(lp506
F27.364513158798218
ag4
aI195
aa(lp507
F27.388074159622192
ag2
aI308
aa(lp508
F27.51515007019043
ag4
aI196
aa(lp509
F27.54033398628235
ag2
aI309
aa(lp510
F27.623522996902466
ag2
aI310
aa(lp511
F27.72307300567627
ag2
aI311
aa(lp512
F27.763098001480103
ag4
aI197
aa(lp513
F27.823801040649414
ag2
aI312
aa(lp514
F27.90776014328003
ag2
aI313
aa(lp515
F27.95166015625
ag4
aI198
aa(lp516
F28.0241219997406
ag2
aI314
aa(lp517
F28.071715116500854
ag4
aI199
aa(lp518
F28.139966011047363
ag2
aI315
aa(lp519
F28.213311195373535
ag2
aI316
aa(lp520
F28.2396821975708
ag4
aI200
aa(lp521
F28.303290128707886
ag2
aI317
aa(lp522
F28.383321046829224
ag2
aI318
aa(lp523
F28.427438020706177
ag4
aI201
aa(lp524
F28.49152708053589
ag2
aI319
aa(lp525
F28.57953119277954
ag2
aI320
aa(lp526
F28.618386030197144
ag4
aI202
aa(lp527
F28.678369998931885
ag2
aI321
aa(lp528
F28.739716053009033
ag4
aI203
aa(lp529
F28.804649114608765
ag2
aI322
aa(lp530
F28.89171600341797
ag2
aI323
aa(lp531
F28.919233083724976
ag4
aI204
aa(lp532
F28.98370599746704
ag2
aI324
aa(lp533
F29.04319715499878
ag4
aI205
aa(lp534
F29.11188507080078
ag2
aI325
aa(lp535
F29.195451021194458
ag2
aI326
aa(lp536
F29.21977710723877
ag4
aI206
aa(lp537
F29.283512115478516
ag2
aI327
aa(lp538
F29.35193109512329
ag4
aI207
aa(lp539
F29.399859189987183
ag2
aI328
aa(lp540
F29.49145007133484
ag2
aI329
aa(lp541
F29.51967716217041
ag4
aI208
aa(lp542
F29.58731698989868
ag2
aI330
aa(lp543
F29.647593021392822
ag4
aI209
aa(lp544
F29.691739082336426
ag2
aI331
aa(lp545
F29.779585123062134
ag2
aI332
aa(lp546
F29.839833974838257
ag4
aI210
aa(lp547
F29.88791012763977
ag2
aI333
aa(lp548
F29.955228090286255
ag4
aI211
aa(lp549
F29.998284101486206
ag2
aI334
aa(lp550
F30.08792519569397
ag2
aI335
aa(lp551
F30.143808126449585
ag4
aI212
aa(lp552
F30.207787036895752
ag2
aI336
aa(lp553
F30.252029180526733
ag4
aI213
aa(lp554
F30.31562304496765
ag2
aI337
aa(lp555
F30.406984090805054
ag2
aI338
aa(lp556
F30.43183207511902
ag4
aI214
aa(lp557
F30.50399112701416
ag2
aI339
aa(lp558
F30.55196213722229
ag4
aI215
aa(lp559
F30.631386041641235
ag2
aI340
aa(lp560
F30.70462918281555
ag2
aI341
aa(lp561
F30.72822403907776
ag4
aI216
aa(lp562
F30.796491146087646
ag2
aI342
aa(lp563
F30.844590187072754
ag4
aI217
aa(lp564
F30.912963151931763
ag2
aI343
aa(lp565
F31.004574060440063
ag2
aI344
aa(lp566
F31.032077074050903
ag4
aI218
aa(lp567
F31.100353002548218
ag2
aI345
aa(lp568
F31.152162075042725
ag4
aI219
aa(lp569
F31.228365182876587
ag2
aI346
aa(lp570
F31.34838104248047
ag2
aI347
aa(lp571
F31.40856409072876
ag4
aI220
aa(lp572
F31.4321870803833
ag2
aI348
aa(lp573
F31.517004013061523
ag4
aI221
aa(lp574
F31.580864191055298
ag2
aI349
aa(lp575
F31.67188811302185
ag2
aI350
aa(lp576
F31.719998121261597
ag2
aI351
aa(lp577
F31.764168977737427
ag4
aI222
aa(lp578
F31.824804067611694
ag2
aI352
aa(lp579
F31.884244203567505
ag4
aI223
aa(lp580
F31.948626041412354
ag2
aI353
aa(lp581
F32.01212000846863
ag2
aI354
aa(lp582
F32.05215907096863
ag4
aI224
aa(lp583
F32.116739988327026
ag2
aI355
aa(lp584
F32.17994213104248
ag4
aI225
aa(lp585
F32.244399070739746
ag2
aI356
aa(lp586
F32.3761351108551
ag2
aI357
aa(lp587
F32.41949415206909
ag4
aI226
aa(lp588
F32.48108220100403
ag2
aI358
aa(lp589
F32.54829406738281
ag4
aI227
aa(lp590
F32.608455181121826
ag2
aI359
aa(lp591
F32.70036697387695
ag2
aI360
aa(lp592
F32.72372913360596
ag4
aI228
aa(lp593
F32.78488516807556
ag2
aI361
aa(lp594
F32.856950998306274
ag4
aI229
aa(lp595
F32.901735067367554
ag2
aI362
aa(lp596
F32.98851203918457
ag2
aI363
aa(lp597
F33.03640818595886
ag4
aI230
aa(lp598
F33.08319401741028
ag2
aI364
aa(lp599
F33.14476799964905
ag4
aI231
aa(lp600
F33.21221113204956
ag2
aI365
aa(lp601
F33.29991817474365
ag2
aI366
aa(lp602
F33.32449007034302
ag4
aI232
aa(lp603
F33.388190031051636
ag2
aI367
aa(lp604
F33.45232915878296
ag4
aI233
aa(lp605
F33.52470803260803
ag2
aI368
aa(lp606
F33.59595608711243
ag2
aI369
aa(lp607
F33.64146113395691
ag4
aI234
aa(lp608
F33.68793201446533
ag2
aI370
aa(lp609
F33.748250007629395
ag4
aI235
aa(lp610
F33.820470094680786
ag2
aI371
aa(lp611
F33.94062900543213
ag2
aI372
aa(lp612
F33.964203119277954
ag4
aI236
aa(lp613
F34.04642415046692
ag2
aI373
aa(lp614
F34.131235122680664
ag2
aI374
aa(lp615
F34.184449195861816
ag4
aI237
aa(lp616
F34.24437117576599
ag2
aI375
aa(lp617
F34.38437819480896
ag2
aI376
aa(lp618
F34.47284913063049
ag2
aI377
aa(lp619
F34.52442216873169
ag4
aI238
aa(lp620
F34.57571816444397
ag2
aI378
aa(lp621
F34.69988512992859
ag2
aI379
aa(lp622
F34.760608196258545
ag4
aI239
aa(lp623
F34.82803916931152
ag2
aI380
aa(lp624
F34.9206759929657
ag2
aI381
aa(lp625
F34.9482741355896
ag4
aI240
aa(lp626
F35.01285004615784
ag2
aI382
aa(lp627
F35.07998204231262
ag4
aI241
aa(lp628
F35.124181032180786
ag2
aI383
aa(lp629
F35.20794916152954
ag2
aI384
aa(lp630
F35.24803400039673
ag4
aI242
aa(lp631
F35.312870025634766
ag2
aI385
aa(lp632
F35.39959406852722
ag2
aI386
aa(lp633
F35.428508043289185
ag4
aI243
aa(lp634
F35.492101192474365
ag2
aI387
aa(lp635
F35.57621097564697
ag2
aI388
aa(lp636
F35.600261211395264
ag4
aI244
aa(lp637
F35.66599202156067
ag2
aI389
aa(lp638
F35.73230814933777
ag4
aI245
aa(lp639
F35.79655909538269
ag2
aI390
aa(lp640
F35.911219120025635
ag4
aI246
aa(lp641
F35.97619605064392
ag2
aI391
aa(lp642
F35.99581599235535
ag4
aI247
aa(lp643
F36.09791707992554
ag2
aI392
aa(lp644
F36.188377141952515
ag2
aI393
aa(lp645
F36.240039110183716
ag4
aI248
aa(lp646
F36.2887761592865
ag2
aI394
aa(lp647
F36.3526132106781
ag4
aI249
aa(lp648
F36.376631021499634
ag2
aI395
aa(lp649
F36.47654700279236
ag2
aI396
aa(lp650
F36.536904096603394
ag4
aI250
aa(lp651
F36.59625720977783
ag2
aI397
aa(lp652
F36.65605306625366
ag4
aI251
aa(lp653
F36.76072716712952
ag2
aI398
aa(lp654
F36.88647508621216
ag2
aI399
aa(lp655
F37.012832164764404
ag2
aI400
aa(lp656
F37.09312200546265
ag4
aI252
aa(lp657
F37.20478105545044
ag2
aI401
aa(lp658
F37.271995067596436
ag4
aI253
aa(lp659
F37.33669114112854
ag2
aI402
aa(lp660
F37.423442125320435
ag4
aI254
aa(lp661
F37.45189905166626
ag2
aI403
aa(lp662
F37.51528000831604
ag4
aI255
aa(lp663
F37.562684059143066
ag2
aI404
aa(lp664
F37.647948026657104
ag2
aI405
aa(lp665
F37.687950134277344
ag4
aI256
aa(lp666
F37.74853014945984
ag2
aI406
aa(lp667
F37.85387301445007
ag4
aI257
aa(lp668
F37.91769504547119
ag2
aI407
aa(lp669
F37.99975109100342
ag2
aI408
aa(lp670
F38.081438064575195
ag2
aI409
aa(lp671
F38.1079261302948
ag4
aI258
aa(lp672
F38.1727831363678
ag2
aI410
aa(lp673
F38.232131004333496
ag4
aI259
aa(lp674
F38.29627513885498
ag2
aI411
aa(lp675
F38.416505098342896
ag2
aI412
aa(lp676
F38.47999310493469
ag4
aI260
aa(lp677
F38.529245138168335
ag2
aI413
aa(lp678
F38.592140197753906
ag4
aI261
aa(lp679
F38.65667009353638
ag2
aI414
aa(lp680
F38.780421018600464
ag2
aI415
aa(lp681
F38.832478046417236
ag4
aI262
aa(lp682
F38.895310163497925
ag2
aI416
aa(lp683
F38.94406318664551
ag4
aI263
aa(lp684
F39.01205801963806
ag2
aI417
aa(lp685
F39.09995198249817
ag2
aI418
aa(lp686
F39.12416911125183
ag4
aI264
aa(lp687
F39.18820309638977
ag2
aI419
aa(lp688
F39.25228500366211
ag4
aI265
aa(lp689
F39.32071805000305
ag2
aI420
aa(lp690
F39.39681005477905
ag2
aI421
aa(lp691
F39.43837809562683
ag4
aI266
aa(lp692
F39.49999213218689
ag2
aI422
aa(lp693
F39.56401610374451
ag4
aI267
aa(lp694
F39.62741708755493
ag2
aI423
aa(lp695
F39.71528100967407
ag2
aI424
aa(lp696
F39.755187034606934
ag4
aI268
aa(lp697
F39.795581102371216
ag2
aI425
aa(lp698
F39.852994203567505
ag4
aI269
aa(lp699
F39.91594314575195
ag2
aI426
aa(lp700
F40.011290073394775
ag2
aI427
aa(lp701
F40.05612802505493
ag4
aI270
aa(lp702
F40.116183042526245
ag2
aI428
aa(lp703
F40.157790184020996
ag4
aI271
aa(lp704
F40.2181601524353
ag2
aI429
aa(lp705
F40.303558111190796
ag2
aI430
aa(lp706
F40.34815001487732
ag4
aI272
aa(lp707
F40.412010192871094
ag2
aI431
aa(lp708
F40.451693058013916
ag4
aI273
aa(lp709
F40.52014899253845
ag2
aI432
aa(lp710
F40.615833044052124
ag2
aI433
aa(lp711
F40.64401316642761
ag4
aI274
aa(lp712
F40.68824005126953
ag2
aI434
aa(lp713
F40.75155711174011
ag4
aI275
aa(lp714
F40.81603503227234
ag2
aI435
aa(lp715
F40.90364599227905
ag2
aI436
aa(lp716
F40.93023109436035
ag4
aI276
aa(lp717
F40.993964195251465
ag2
aI437
aa(lp718
F41.05664110183716
ag4
aI277
aa(lp719
F41.11632513999939
ag2
aI438
aa(lp720
F41.200178146362305
ag2
aI439
aa(lp721
F41.236194133758545
ag4
aI278
aa(lp722
F41.3009991645813
ag2
aI440
aa(lp723
F41.368112087249756
ag4
aI279
aa(lp724
F41.41659212112427
ag2
aI441
aa(lp725
F41.50033402442932
ag2
aI442
aa(lp726
F41.539998054504395
ag4
aI280
aa(lp727
F41.600781202316284
ag2
aI443
aa(lp728
F41.66376805305481
ag4
aI281
aa(lp729
F41.724539041519165
ag2
aI444
aa(lp730
F41.80869507789612
ag2
aI445
aa(lp731
F41.831735134124756
ag4
aI282
aa(lp732
F41.89655518531799
ag2
aI446
aa(lp733
F41.96063017845154
ag4
aI283
aa(lp734
F42.0241219997406
ag2
aI447
aa(lp735
F42.115200996398926
ag4
aI284
aa(lp736
F42.1406831741333
ag2
aI448
aa(lp737
F42.19987607002258
ag4
aI285
aa(lp738
F42.26054906845093
ag2
aI449
aa(lp739
F42.32389998435974
ag2
aI450
aa(lp740
F42.36748504638672
ag4
aI286
aa(lp741
F42.42859721183777
ag2
aI451
aa(lp742
F42.495925188064575
ag4
aI287
aa(lp743
F42.52014708518982
ag2
aI452
aa(lp744
F42.62849020957947
ag2
aI453
aa(lp745
F42.668879985809326
ag4
aI288
aa(lp746
F42.74009108543396
ag2
aI454
aa(lp747
F42.76422905921936
ag4
aI289
aa(lp748
F42.804439067840576
ag2
aI455
aa(lp749
F42.92547798156738
ag2
aI456
aa(lp750
F42.968576192855835
ag4
aI290
aa(lp751
F43.03207612037659
ag2
aI457
aa(lp752
F43.096222162246704
ag4
aI291
aa(lp753
F43.12041115760803
ag2
aI458
aa(lp754
F43.24362802505493
ag4
aI292
aa(lp755
F43.26825499534607
ag2
aI459
aa(lp756
F43.33240509033203
ag4
aI293
aa(lp757
F43.39982604980469
ag2
aI460
aa(lp758
F43.46814799308777
ag2
aI461
aa(lp759
F43.53214502334595
ag2
aI462
aa(lp760
F43.58017420768738
ag4
aI294
aa(lp761
F43.627955198287964
ag2
aI463
aa(lp762
F43.68341016769409
ag4
aI295
aa(lp763
F43.74005317687988
ag2
aI464
aa(lp764
F43.82446813583374
ag2
aI465
aa(lp765
F43.85913705825806
ag4
aI296
aa(lp766
F43.91977620124817
ag2
aI466
aa(lp767
F43.975218057632446
ag4
aI297
aa(lp768
F44.14623808860779
ag4
aI298
aa(lp769
F44.21487617492676
ag4
aI299
aa(lp770
F44.35155010223389
ag2
aI467
aa(lp771
F44.38000011444092
ag4
aI300
aa(lp772
F44.41966700553894
ag2
aI468
aa(lp773
F44.49222111701965
ag4
aI301
aa(lp774
F44.559627056121826
ag2
aI469
aa(lp775
F44.63979721069336
ag2
aI470
aa(lp776
F44.66795110702515
ag4
aI302
aa(lp777
F44.735759019851685
ag2
aI471
aa(lp778
F44.776435136795044
ag4
aI303
aa(lp779
F44.8435640335083
ag2
aI472
aa(lp780
F44.9355251789093
ag2
aI473
aa(lp781
F44.979379177093506
ag4
aI304
aa(lp782
F45.024415016174316
ag2
aI474
aa(lp783
F45.08475303649902
ag4
aI305
aa(lp784
F45.151262044906616
ag2
aI475
aa(lp785
F45.2478711605072
ag2
aI476
aa(lp786
F45.275217056274414
ag4
aI306
aa(lp787
F45.33960819244385
ag2
aI477
aa(lp788
F45.387701988220215
ag4
aI307
aa(lp789
F45.46021819114685
ag2
aI478
aa(lp790
F45.53273010253906
ag2
aI479
aa(lp791
F45.58029007911682
ag4
aI308
aa(lp792
F45.62812805175781
ag2
aI480
aa(lp793
F45.70045304298401
ag4
aI309
aa(lp794
F45.771783113479614
ag2
aI481
aa(lp795
F45.84028506278992
ag2
aI482
aa(lp796
F45.89246106147766
ag4
aI310
aa(lp797
F45.944390058517456
ag2
aI483
aa(lp798
F46.012274980545044
ag4
aI311
aa(lp799
F46.059906005859375
ag2
aI484
aa(lp800
F46.15211820602417
ag2
aI485
aa(lp801
F46.17561411857605
ag4
aI312
aa(lp802
F46.23542809486389
ag2
aI486
aa(lp803
F46.29937219619751
ag4
aI313
aa(lp804
F46.36387515068054
ag2
aI487
aa(lp805
F46.44819402694702
ag2
aI488
aa(lp806
F46.476322174072266
ag4
aI314
aa(lp807
F46.547950983047485
ag2
aI489
aa(lp808
F46.59151315689087
ag4
aI315
aa(lp809
F46.65581202507019
ag2
aI490
aa(lp810
F46.75134015083313
ag4
aI316
aa(lp811
F46.78377318382263
ag2
aI491
aa(lp812
F46.83161211013794
ag4
aI317
aa(lp813
F46.8953001499176
ag2
aI492
aa(lp814
F46.9676730632782
ag2
aI493
aa(lp815
F47.011306047439575
ag4
aI318
aa(lp816
F47.058518171310425
ag2
aI494
aa(lp817
F47.127565145492554
ag4
aI319
aa(lp818
F47.19585108757019
ag2
aI495
aa(lp819
F47.2599310874939
ag2
aI496
aa(lp820
F47.30820107460022
ag4
aI320
aa(lp821
F47.37558102607727
ag2
aI497
aa(lp822
F47.44778609275818
ag4
aI321
aa(lp823
F47.507354974746704
ag2
aI498
aa(lp824
F47.64491820335388
ag2
aI499
aa(lp825
F47.69574999809265
ag2
aI500
aa(lp826
F47.74429702758789
ag4
aI322
aa(lp827
F47.76860213279724
ag2
aI501
aa(lp828
F47.80874300003052
ag4
aI323
aa(lp829
F47.86836004257202
ag2
aI502
aa(lp830
F48.019819021224976
ag4
aI324
aa(lp831
F48.04404902458191
ag2
aI503
aa(lp832
F48.06836915016174
ag4
aI325
aa(lp833
F48.152486085891724
ag2
aI504
aa(lp834
F48.23638916015625
ag2
aI505
aa(lp835
F48.276745080947876
ag4
aI326
aa(lp836
F48.344632148742676
ag2
aI506
aa(lp837
F48.40818500518799
ag4
aI327
aa(lp838
F48.432775020599365
ag2
aI507
aa(lp839
F48.484374046325684
ag2
aI508
aa(lp840
F48.50871205329895
ag4
aI328
aa(lp841
F48.5321900844574
ag2
aI509
aa(lp842
F48.55645418167114
ag4
aI329
aa(lp843
F48.58009099960327
ag2
aI510
aa(lp844
F48.6278350353241
ag2
aI511
aa(lp845
F48.65268015861511
ag4
aI330
aa(lp846
F48.67683410644531
ag2
aI512
aa(lp847
F48.70023202896118
ag4
aI331
aa(lp848
F48.72571301460266
ag2
aI513
aa(lp849
F48.77261209487915
ag2
aI514
aa(lp850
F48.79615116119385
ag4
aI332
aa(lp851
F48.821386098861694
ag2
aI515
aa(lp852
F48.86809420585632
ag2
aI516
aa(lp853
F48.892295122146606
ag4
aI333
aa(lp854
F48.91658115386963
ag2
aI517
aa(lp855
F48.965084075927734
ag2
aI518
aa(lp856
F48.988797187805176
ag4
aI334
aa(lp857
F49.01377606391907
ag2
aI519
aa(lp858
F49.039478063583374
ag4
aI335
aa(lp859
F49.06646418571472
ag2
aI520
aa(lp860
F49.117998123168945
ag2
aI521
aa(lp861
F49.16595101356506
ag2
aI522
aa(lp862
F49.197391986846924
ag4
aI336
aa(lp863
F49.22479701042175
ag2
aI523
aa(lp864
F49.27138805389404
ag2
aI524
aa(lp865
F49.301982164382935
ag4
aI337
aa(lp866
F49.373483180999756
ag2
aI525
aa(lp867
F49.39660716056824
ag4
aI338
aa(lp868
F49.420510053634644
ag2
aI526
aa(lp869
F49.44637703895569
ag4
aI339
aa(lp870
F49.468831062316895
ag2
aI527
aa(lp871
F49.511903047561646
ag2
aI528
aa(lp872
F49.5466890335083
ag4
aI340
aa(lp873
F49.56982207298279
ag2
aI529
aa(lp874
F49.59491515159607
ag4
aI341
aa(lp875
F49.62876605987549
ag2
aI530
aa(lp876
F49.68079113960266
ag2
aI531
aa(lp877
F49.73072409629822
ag2
aI532
aa(lp878
F49.754029989242554
ag4
aI342
aa(lp879
F49.77619004249573
ag2
aI533
aa(lp880
F49.80092811584473
ag4
aI343
aa(lp881
F49.82585000991821
ag2
aI534
aa(lp882
F49.876201152801514
ag2
aI535
aa(lp883
F49.92435812950134
ag2
aI536
aa(lp884
F49.977632999420166
ag2
aI537
aa(lp885
F50.0225510597229
ag2
aI538
aa(lp886
F50.04834318161011
ag4
aI344
aa(lp887
F50.076778173446655
ag2
aI539
aa(lp888
F50.100646018981934
ag4
aI345
aa(lp889
F50.12432408332825
ag2
aI540
aa(lp890
F50.17648220062256
ag2
aI541
aa(lp891
F50.228296995162964
ag2
aI542
aa(lp892
F50.25221109390259
ag4
aI346
aa(lp893
F50.28123116493225
ag2
aI543
aa(lp894
F50.30432415008545
ag4
aI347
aa(lp895
F50.329315185546875
ag2
aI544
aa(lp896
F50.381065130233765
ag2
aI545
aa(lp897
F50.45671510696411
ag4
aI348
aa(lp898
F50.48518419265747
ag2
aI546
aa(lp899
F50.51101112365723
ag4
aI349
aa(lp900
F50.543546199798584
ag2
aI547
aa(lp901
F50.618497133255005
ag4
aI350
aa(lp902
F50.644567012786865
ag2
aI548
aa(lp903
F50.68795704841614
ag2
aI549
aa(lp904
F50.71667003631592
ag4
aI351
aa(lp905
F50.74077105522156
ag2
aI550
aa(lp906
F50.793148040771484
ag2
aI551
aa(lp907
F50.82090616226196
ag4
aI352
aa(lp908
F50.84558606147766
ag2
aI552
aa(lp909
F50.868632078170776
ag4
aI353
aa(lp910
F50.89351415634155
ag2
aI553
aa(lp911
F50.944844007492065
ag2
aI554
aa(lp912
F50.97257709503174
ag4
aI354
aa(lp913
F50.99850797653198
ag2
aI555
aa(lp914
F51.05150318145752
ag2
aI556
aa(lp915
F51.102689027786255
ag2
aI557
aa(lp916
F51.13470697402954
ag4
aI355
aa(lp917
F51.256123065948486
ag2
aI558
aa(lp918
F51.28462815284729
ag4
aI356
aa(lp919
F51.34423017501831
ag2
aI559
aa(lp920
F51.40473198890686
ag4
aI357
aa(lp921
F51.464462995529175
ag2
aI560
aa(lp922
F51.56014609336853
ag2
aI561
aa(lp923
F51.584360122680664
ag4
aI358
aa(lp924
F51.647956132888794
ag2
aI562
aa(lp925
F51.70854997634888
ag4
aI359
aa(lp926
F51.76863098144531
ag2
aI563
aa(lp927
F51.85584211349487
ag2
aI564
aa(lp928
F51.90080904960632
ag4
aI360
aa(lp929
F51.94357204437256
ag2
aI565
aa(lp930
F52.006667137145996
ag4
aI361
aa(lp931
F52.12426519393921
ag2
aI566
aa(lp932
F52.1531400680542
ag4
aI362
aa(lp933
F52.29548501968384
ag4
aI363
aa(lp934
F52.34435510635376
ag2
aI567
aa(lp935
F52.43189215660095
ag2
aI568
aa(lp936
F52.46000409126282
ag4
aI364
aa(lp937
F52.52422618865967
ag2
aI569
aa(lp938
F52.59206199645996
ag4
aI365
aa(lp939
F52.65664505958557
ag2
aI570
aa(lp940
F52.72389817237854
ag2
aI571
aa(lp941
F52.764440059661865
ag4
aI366
aa(lp942
F52.8322970867157
ag2
aI572
aa(lp943
F52.90072798728943
ag4
aI367
aa(lp944
F52.94473719596863
ag2
aI573
aa(lp945
F53.03626108169556
ag2
aI574
aa(lp946
F53.060516119003296
ag4
aI368
aa(lp947
F53.12827110290527
ag2
aI575
aa(lp948
F53.19653010368347
ag4
aI369
aa(lp949
F53.2448091506958
ag2
aI576
aa(lp950
F53.33592414855957
ag2
aI577
aa(lp951
F53.360332012176514
ag4
aI370
aa(lp952
F53.424328088760376
ag2
aI578
aa(lp953
F53.49237108230591
ag4
aI371
aa(lp954
F53.56078815460205
ag2
aI579
aa(lp955
F53.628005027770996
ag2
aI580
aa(lp956
F53.67180013656616
ag4
aI372
aa(lp957
F53.732495069503784
ag2
aI581
aa(lp958
F53.791932106018066
ag4
aI373
aa(lp959
F53.85668611526489
ag2
aI582
aa(lp960
F53.92414307594299
ag2
aI583
aa(lp961
F53.96798801422119
ag4
aI374
aa(lp962
F54.028351068496704
ag2
aI584
aa(lp963
F54.08784198760986
ag4
aI375
aa(lp964
F54.14860200881958
ag2
aI585
aa(lp965
F54.24408411979675
ag2
aI586
aa(lp966
F54.272178173065186
ag4
aI376
aa(lp967
F54.33206009864807
ag2
aI587
aa(lp968
F54.39247107505798
ag4
aI377
aa(lp969
F54.45226311683655
ag2
aI588
aa(lp970
F54.58000707626343
ag2
aI589
aa(lp971
F54.62507200241089
ag4
aI378
aa(lp972
F54.688148021698
ag2
aI590
aa(lp973
F54.75212216377258
ag4
aI379
aa(lp974
F54.804829120635986
ag2
aI591
aa(lp975
F54.89634108543396
ag2
aI592
aa(lp976
F54.92405104637146
ag4
aI380
aa(lp977
F54.991995096206665
ag2
aI593
aa(lp978
F55.0163791179657
ag4
aI381
aa(lp979
F55.096811056137085
ag2
aI594
aa(lp980
F55.184269189834595
ag2
aI595
aa(lp981
F55.22423720359802
ag4
aI382
aa(lp982
F55.283889055252075
ag2
aI596
aa(lp983
F55.34459114074707
ag4
aI383
aa(lp984
F55.368399143218994
ag2
aI597
aa(lp985
F55.47630214691162
ag2
aI598
aa(lp986
F55.5241379737854
ag4
aI384
aa(lp987
F55.54859113693237
ag2
aI599
aa(lp988
F55.6326630115509
ag4
aI385
aa(lp989
F55.70016598701477
ag2
aI600
aa(lp990
F55.79196500778198
ag2
aI601
aa(lp991
F55.81910014152527
ag4
aI386
aa(lp992
F55.911811113357544
ag4
aI387
aa(lp993
F56.022693157196045
ag4
aI388
aa(lp994
F56.087162017822266
ag4
aI389
aa(lp995
F56.21187901496887
ag2
aI602
aa(lp996
F56.2483069896698
ag4
aI390
aa(lp997
F56.398946046829224
ag4
aI391
aa(lp998
F56.48716998100281
ag2
aI603
aa(lp999
F56.51550912857056
ag4
aI392
aa(lp1000
F56.53616809844971
ag2
aI604
aa(lp1001
F56.57969117164612
ag4
aI393
aa(lp1002
F56.678059101104736
ag2
aI605
aa(lp1003
F56.780301094055176
ag2
aI606
aa(lp1004
F56.8109450340271
ag4
aI394
aa(lp1005
F56.903664112091064
ag4
aI395
aa(lp1006
F56.93527102470398
ag2
aI607
aa(lp1007
F57.02779817581177
ag2
aI608
aa(lp1008
F57.05519509315491
ag4
aI396
aa(lp1009
F57.18667817115784
ag4
aI397
aa(lp1010
F57.321686029434204
ag4
aI398
aa(lp1011
F57.450870990753174
ag2
aI609
aa(lp1012
F57.511526107788086
ag4
aI399
aa(lp1013
F57.623409032821655
ag2
aI610
aa(lp1014
F57.64784216880798
ag4
aI400
aa(lp1015
F57.73960304260254
ag4
aI401
aa(lp1016
F57.81828212738037
ag2
aI611
aa(lp1017
F57.891448974609375
ag2
aI612
aa(lp1018
F58.051509141922
ag2
aI613
aa(lp1019
F58.087584018707275
ag4
aI402
aa(lp1020
F58.152029037475586
ag2
aI614
aa(lp1021
F58.21901607513428
ag4
aI403
aa(lp1022
F58.2839560508728
ag2
aI615
aa(lp1023
F58.36803698539734
ag2
aI616
aa(lp1024
F58.39638805389404
ag4
aI404
aa(lp1025
F58.4639310836792
ag2
aI617
aa(lp1026
F58.51972818374634
ag4
aI405
aa(lp1027
F58.58378219604492
ag2
aI618
aa(lp1028
F58.67180013656616
ag2
aI619
aa(lp1029
F58.70379614830017
ag4
aI406
aa(lp1030
F58.764456033706665
ag2
aI620
aa(lp1031
F58.867948055267334
ag4
aI407
aa(lp1032
F58.984214067459106
ag2
aI621
aa(lp1033
F59.01158308982849
ag4
aI408
aa(lp1034
F59.07578897476196
ag2
aI622
aa(lp1035
F59.14030909538269
ag4
aI409
aa(lp1036
F59.17968511581421
ag2
aI623
aa(lp1037
F59.2630090713501
ag2
aI624
aa(lp1038
F59.339378118515015
ag2
aI625
aa(lp1039
F59.37176513671875
ag4
aI410
aa(lp1040
F59.479572057724
ag2
aI626
aa(lp1041
F59.54277300834656
ag4
aI411
aa(lp1042
F59.61150407791138
ag2
aI627
aa(lp1043
F59.67556619644165
ag2
aI628
aa(lp1044
F59.719603061676025
ag4
aI412
aa(lp1045
F59.791675090789795
ag2
aI629
aa(lp1046
F59.815268993377686
ag4
aI413
aa(lp1047
F59.89720916748047
ag2
aI630
aa(lp1048
F59.987261056900024
ag2
aI631
aa(lp1049
F60.035134077072144
ag4
aI414
aa(lp1050
F60.09625005722046
ag2
aI632
aa(lp1051
F60.199951171875
ag4
aI415
aa(lp1052
F60.26400899887085
ag2
aI633
aa(lp1053
F60.36360311508179
ag2
aI634
aa(lp1054
F60.435487031936646
ag4
aI416
aa(lp1055
F60.495572090148926
ag2
aI635
aa(lp1056
F60.559349060058594
ag4
aI417
aa(lp1057
F60.6475830078125
ag2
aI636
aa(lp1058
F60.7555570602417
ag2
aI637
aa(lp1059
F60.80362105369568
ag4
aI418
aa(lp1060
F60.826810121536255
ag2
aI638
aa(lp1061
F60.907713174819946
ag4
aI419
aa(lp1062
F61.02766704559326
ag2
aI639
aa(lp1063
F61.07468819618225
ag2
aI640
aa(lp1064
F61.12425899505615
ag4
aI420
aa(lp1065
F61.222700119018555
ag2
aI641
aa(lp1066
F61.28774404525757
ag4
aI421
aa(lp1067
F61.34733605384827
ag2
aI642
aa(lp1068
F61.43531012535095
ag2
aI643
aa(lp1069
F61.459657192230225
ag4
aI422
aa(lp1070
F61.52733111381531
ag2
aI644
aa(lp1071
F61.59520506858826
ag4
aI423
aa(lp1072
F61.65890097618103
ag2
aI645
aa(lp1073
F61.78387999534607
ag2
aI646
aa(lp1074
F61.836053133010864
ag4
aI424
aa(lp1075
F61.95893311500549
ag4
aI425
aa(lp1076
F62.00763702392578
ag2
aI647
aa(lp1077
F62.099961042404175
ag2
aI648
aa(lp1078
F62.131306171417236
ag4
aI426
aa(lp1079
F62.173444986343384
ag2
aI649
aa(lp1080
F62.238929986953735
ag4
aI427
aa(lp1081
F62.30718207359314
ag2
aI650
aa(lp1082
F62.38323497772217
ag2
aI651
aa(lp1083
F62.43110799789429
ag4
aI428
aa(lp1084
F62.496387004852295
ag2
aI652
aa(lp1085
F62.59368419647217
ag4
aI429
aa(lp1086
F62.65955710411072
ag2
aI653
aa(lp1087
F62.74749517440796
ag2
aI654
aa(lp1088
F62.77092719078064
ag4
aI430
aa(lp1089
F62.8356351852417
ag2
aI655
aa(lp1090
F62.903855085372925
ag4
aI431
aa(lp1091
F63.011208057403564
ag2
aI656
aa(lp1092
F63.102946043014526
ag2
aI657
aa(lp1093
F63.142855167388916
ag4
aI432
aa(lp1094
F63.24809408187866
ag2
aI658
aa(lp1095
F63.31071901321411
ag4
aI433
aa(lp1096
F63.38733506202698
ag2
aI659
aa(lp1097
F63.451472997665405
ag2
aI660
aa(lp1098
F63.499399185180664
ag4
aI434
aa(lp1099
F63.5671751499176
ag2
aI661
aa(lp1100
F63.61514210700989
ag4
aI435
aa(lp1101
F63.67894220352173
ag2
aI662
aa(lp1102
F63.74737000465393
ag2
aI663
aa(lp1103
F63.791306018829346
ag4
aI436
aa(lp1104
F63.86436200141907
ag2
aI664
aa(lp1105
F63.96284103393555
ag4
aI437
aa(lp1106
F64.02696800231934
ag2
aI665
aa(lp1107
F64.11587405204773
ag2
aI666
aa(lp1108
F64.15991997718811
ag4
aI438
aa(lp1109
F64.20413517951965
ag2
aI667
aa(lp1110
F64.26832604408264
ag4
aI439
aa(lp1111
F64.33896517753601
ag2
aI668
aa(lp1112
F64.40745997428894
ag2
aI669
aa(lp1113
F64.44740104675293
ag4
aI440
aa(lp1114
F64.51583909988403
ag2
aI670
aa(lp1115
F64.55840516090393
ag4
aI441
aa(lp1116
F64.6231780052185
ag2
aI671
aa(lp1117
F64.7187111377716
ag2
aI672
aa(lp1118
F64.7470121383667
ag4
aI442
aa(lp1119
F64.81188797950745
ag2
aI673
aa(lp1120
F64.85617017745972
ag4
aI443
aa(lp1121
F64.93203401565552
ag2
aI674
aa(lp1122
F65.02015805244446
ag2
aI675
aa(lp1123
F65.05565214157104
ag4
aI444
aa(lp1124
F65.0999321937561
ag2
aI676
aa(lp1125
F65.15915298461914
ag4
aI445
aa(lp1126
F65.21980619430542
ag2
aI677
aa(lp1127
F65.31586813926697
ag2
aI678
aa(lp1128
F65.34429812431335
ag4
aI446
aa(lp1129
F65.4469051361084
ag2
aI679
aa(lp1130
F65.51548314094543
ag4
aI447
aa(lp1131
F65.57920002937317
ag2
aI680
aa(lp1132
F65.66679811477661
ag2
aI681
aa(lp1133
F65.706787109375
ag4
aI448
aa(lp1134
F65.7637231349945
ag2
aI682
aa(lp1135
F65.78675818443298
ag4
aI449
aa(lp1136
F65.86108613014221
ag2
aI683
aa(lp1137
F65.94314813613892
ag2
aI684
aa(lp1138
F65.99117803573608
ag4
aI450
aa(lp1139
F66.05582809448242
ag2
aI685
aa(lp1140
F66.1550121307373
ag4
aI451
aa(lp1141
F66.21960997581482
ag2
aI686
aa(lp1142
F66.33974814414978
ag4
aI452
aa(lp1143
F66.38721704483032
ag4
aI453
aa(lp1144
F66.41948413848877
ag2
aI687
aa(lp1145
F66.50438499450684
ag2
aI688
aa(lp1146
F66.55556917190552
ag4
aI454
aa(lp1147
F66.59990906715393
ag2
aI689
aa(lp1148
F66.67176008224487
ag4
aI455
aa(lp1149
F66.71623110771179
ag2
aI690
aa(lp1150
F66.81170511245728
ag2
aI691
aa(lp1151
F66.84362006187439
ag4
aI456
aa(lp1152
F66.91600203514099
ag2
aI692
aa(lp1153
F66.97183299064636
ag4
aI457
aa(lp1154
F67.09712505340576
ag4
aI458
aa(lp1155
F67.23869013786316
ag4
aI459
aa(lp1156
F67.30438613891602
ag2
aI693
aa(lp1157
F67.37238121032715
ag2
aI694
aa(lp1158
F67.45993614196777
ag4
aI460
aa(lp1159
F67.55918002128601
ag4
aI461
aa(lp1160
F67.59152412414551
ag2
aI695
aa(lp1161
F67.70239305496216
ag4
aI462
aa(lp1162
F67.7701370716095
ag4
aI463
aa(lp1163
F67.8894271850586
ag2
aI696
aa(lp1164
F67.91919803619385
ag4
aI464
aa(lp1165
F67.96771216392517
ag2
aI697
aa(lp1166
F68.05525803565979
ag2
aI698
aa(lp1167
F68.1032600402832
ag2
aI699
aa(lp1168
F68.14770007133484
ag4
aI465
aa(lp1169
F68.28643798828125
ag4
aI466
aa(lp1170
F68.34209418296814
ag4
aI467
aa(lp1171
F68.44812202453613
ag2
aI700
aa(lp1172
F68.51592206954956
ag2
aI701
aa(lp1173
F68.55987310409546
ag4
aI468
aa(lp1174
F68.62815999984741
ag2
aI702
aa(lp1175
F68.68777513504028
ag4
aI469
aa(lp1176
F68.79832720756531
ag2
aI703
aa(lp1177
F68.89944219589233
ag2
aI704
aa(lp1178
F68.92760014533997
ag4
aI470
aa(lp1179
F69.00381112098694
ag2
aI705
aa(lp1180
F69.07189202308655
ag2
aI706
aa(lp1181
F69.11152219772339
ag4
aI471
aa(lp1182
F69.21113109588623
ag2
aI707
aa(lp1183
F69.30766201019287
ag2
aI708
aa(lp1184
F69.33995008468628
ag4
aI472
aa(lp1185
F69.40863704681396
ag2
aI709
aa(lp1186
F69.46009707450867
ag4
aI473
aa(lp1187
F69.53212809562683
ag2
aI710
aa(lp1188
F69.61570000648499
ag2
aI711
aa(lp1189
F69.67177700996399
ag2
aI712
aa(lp1190
F69.71928405761719
ag2
aI713
aa(lp1191
F69.78752398490906
ag2
aI714
aa(lp1192
F69.8479950428009
ag2
aI715
aa(lp1193
F69.89892911911011
ag2
aI716
aa(lp1194
F69.97099709510803
ag2
aI717
aa(lp1195
F70.02313899993896
ag2
aI718
aa(lp1196
F70.06786918640137
ag4
aI474
aa(lp1197
F70.14303398132324
ag4
aI475
aa(lp1198
F70.22306418418884
ag2
aI719
aa(lp1199
F70.31110906600952
ag2
aI720
aa(lp1200
F70.41145515441895
ag2
aI721
aa(lp1201
F70.44260907173157
ag4
aI476
aa(lp1202
F70.55590605735779
ag4
aI477
aa(lp1203
F70.63528108596802
ag2
aI722
aa(lp1204
F70.69161009788513
ag2
aI723
aa(lp1205
F70.74374198913574
ag2
aI724
aa(lp1206
F70.79907011985779
ag2
aI725
aa(lp1207
F70.88725399971008
ag4
aI478
aa(lp1208
F70.95952606201172
ag2
aI726
aa(lp1209
F71.04742503166199
ag2
aI727
aa(lp1210
F71.0989511013031
ag2
aI728
aa(lp1211
F71.14766502380371
ag4
aI479
aa(lp1212
F71.25556898117065
ag2
aI729
aa(lp1213
F71.29136514663696
ag4
aI480
aa(lp1214
F71.33927416801453
ag2
aI730
aa(lp1215
F71.43575811386108
ag2
aI731
aa(lp1216
F71.46303606033325
ag4
aI481
aa(lp1217
F71.51128911972046
ag2
aI732
aa(lp1218
F71.6150290966034
ag2
aI733
aa(lp1219
F71.64374804496765
ag4
aI482
aa(lp1220
F71.73161315917969
ag4
aI483
aa(lp1221
F71.8383240699768
ag4
aI484
aa(lp1222
F71.90261316299438
ag4
aI485
aa(lp1223
F71.98809003829956
ag2
aI734
aa(lp1224
F72.06020212173462
ag2
aI735
aa(lp1225
F72.13080620765686
ag2
aI736
aa(lp1226
F72.2475860118866
ag2
aI737
aa(lp1227
F72.31564211845398
ag2
aI738
aa(lp1228
F72.37130808830261
ag2
aI739
aa(lp1229
F72.45111513137817
ag4
aI486
aa(lp1230
F72.52443218231201
ag2
aI740
aa(lp1231
F72.58308100700378
ag4
aI487
aa(lp1232
F72.63240718841553
ag2
aI741
aa(lp1233
F72.72780299186707
ag2
aI742
aa(lp1234
F72.79647612571716
ag2
aI743
aa(lp1235
F72.82703113555908
ag4
aI488
aa(lp1236
F72.87672805786133
ag2
aI744
aa(lp1237
F72.94786620140076
ag4
aI489
aa(lp1238
F73.00372910499573
ag2
aI745
aa(lp1239
F73.07225608825684
ag2
aI746
aa(lp1240
F73.12077903747559
ag4
aI490
aa(lp1241
F73.16877102851868
ag2
aI747
aa(lp1242
F73.2396731376648
ag4
aI491
aa(lp1243
F73.28414511680603
ag2
aI748
aa(lp1244
F73.37204718589783
ag2
aI749
aa(lp1245
F73.42026114463806
ag4
aI492
aa(lp1246
F73.4645140171051
ag2
aI750
aa(lp1247
F73.55583214759827
ag2
aI751
aa(lp1248
F73.59981918334961
ag4
aI493
aa(lp1249
F73.64406418800354
ag2
aI752
aa(lp1250
F73.73149299621582
ag2
aI753
aa(lp1251
F73.82737612724304
ag2
aI754
aa(lp1252
F73.92529320716858
ag4
aI494
aa(lp1253
F73.98387312889099
ag2
aI755
aa(lp1254
F74.05229210853577
ag4
aI495
aa(lp1255
F74.11547517776489
ag2
aI756
aa(lp1256
F74.20813417434692
ag2
aI757
aa(lp1257
F74.23520803451538
ag4
aI496
aa(lp1258
F74.34719014167786
ag4
aI497
aa(lp1259
F74.41621518135071
ag2
aI758
aa(lp1260
F74.49223208427429
ag2
aI759
aa(lp1261
F74.54428911209106
ag2
aI760
aa(lp1262
F74.5885910987854
ag4
aI498
aa(lp1263
F74.63264298439026
ag2
aI761
aa(lp1264
F74.71191501617432
ag2
aI762
aa(lp1265
F74.75191807746887
ag4
aI499
aa(lp1266
F74.80785512924194
ag2
aI763
aa(lp1267
F74.9002001285553
ag2
aI764
aa(lp1268
F74.95959711074829
ag4
aI500
aa(lp1269
F75.01896905899048
ag2
aI765
aa(lp1270
F75.0873110294342
ag4
aI501
aa(lp1271
F75.1472430229187
ag2
aI766
aa(lp1272
F75.26317501068115
ag2
aI767
aa(lp1273
F75.32375907897949
ag4
aI502
aa(lp1274
F75.36769318580627
ag2
aI768
aa(lp1275
F75.43118715286255
ag4
aI503
aa(lp1276
F75.49642515182495
ag2
aI769
aa(lp1277
F75.62744116783142
ag2
aI770
aa(lp1278
F75.67528319358826
ag4
aI504
aa(lp1279
F75.7728819847107
ag2
aI771
aa(lp1280
F75.83538103103638
ag4
aI505
aa(lp1281
F75.90398502349854
ag2
aI772
aa(lp1282
F75.9919650554657
ag2
aI773
aa(lp1283
F76.02347207069397
ag4
aI506
aa(lp1284
F76.08389210700989
ag2
aI774
aa(lp1285
F76.18708109855652
ag4
aI507
aa(lp1286
F76.24777603149414
ag2
aI775
aa(lp1287
F76.33965301513672
ag2
aI776
aa(lp1288
F76.3758192062378
ag4
aI508
aa(lp1289
F76.44815611839294
ag2
aI777
aa(lp1290
F76.49961709976196
ag4
aI509
aa(lp1291
F76.56407618522644
ag2
aI778
aa(lp1292
F76.64749217033386
ag2
aI779
aa(lp1293
F76.67572212219238
ag4
aI510
aa(lp1294
F76.74005508422852
ag2
aI780
aa(lp1295
F76.8067991733551
ag4
aI511
aa(lp1296
F76.85604906082153
ag2
aI781
aa(lp1297
F76.99626207351685
ag2
aI782
aa(lp1298
F77.0802071094513
ag4
aI512
aa(lp1299
F77.14461612701416
ag2
aI783
aa(lp1300
F77.21169519424438
ag4
aI513
aa(lp1301
F77.31576919555664
ag2
aI784
aa(lp1302
F77.4001259803772
ag2
aI785
aa(lp1303
F77.44407200813293
ag4
aI514
aa(lp1304
F77.48811221122742
ag2
aI786
aa(lp1305
F77.55159711837769
ag4
aI515
aa(lp1306
F77.61617612838745
ag2
aI787
aa(lp1307
F77.70753717422485
ag2
aI788
aa(lp1308
F77.73992419242859
ag4
aI516
aa(lp1309
F77.85196208953857
ag2
aI789
aa(lp1310
F77.91515398025513
ag4
aI517
aa(lp1311
F77.9797670841217
ag2
aI790
aa(lp1312
F78.07179617881775
ag2
aI791
aa(lp1313
F78.10398817062378
ag4
aI518
aa(lp1314
F78.17718505859375
ag2
aI792
aa(lp1315
F78.22364711761475
ag4
aI519
aa(lp1316
F78.29128217697144
ag2
aI793
aa(lp1317
F78.36019110679626
ag2
aI794
aa(lp1318
F78.41122007369995
ag4
aI520
aa(lp1319
F78.45601916313171
ag2
aI795
aa(lp1320
F78.52724599838257
ag4
aI521
aa(lp1321
F78.58861303329468
ag2
aI796
aa(lp1322
F78.72343897819519
ag2
aI797
aa(lp1323
F78.80546498298645
ag4
aI522
aa(lp1324
F78.87107515335083
ag2
aI798
aa(lp1325
F78.94718909263611
ag4
aI523
aa(lp1326
F79.01960897445679
ag2
aI799
aa(lp1327
F79.08815097808838
ag2
aI800
aa(lp1328
F79.1322660446167
ag4
aI524
aa(lp1329
F79.17628717422485
ag2
aI801
aa(lp1330
F79.24362421035767
ag4
aI525
aa(lp1331
F79.42535209655762
ag4
aI526
aa(lp1332
F79.58358812332153
ag4
aI527
aa(lp1333
F79.66834211349487
ag2
aI802
aa(lp1334
F79.7566430568695
ag2
aI803
aa(lp1335
F79.80752205848694
ag4
aI528
aa(lp1336
F79.8516731262207
ag2
aI804
aa(lp1337
F79.92358899116516
ag4
aI529
aa(lp1338
F79.98720908164978
ag2
aI805
aa(lp1339
F80.05568218231201
ag2
aI806
aa(lp1340
F80.13172698020935
ag2
aI807
aa(lp1341
F80.18813705444336
ag2
aI808
aa(lp1342
F80.24741911888123
ag2
aI809
aa(lp1343
F80.2836811542511
ag4
aI530
aa(lp1344
F80.39563417434692
ag2
aI810
aa(lp1345
F80.46357011795044
ag4
aI531
aa(lp1346
F80.51102709770203
ag2
aI811
aa(lp1347
F80.60410904884338
ag2
aI812
aa(lp1348
F80.68825912475586
ag4
aI532
aa(lp1349
F80.75182700157166
ag2
aI813
aa(lp1350
F80.82354402542114
ag4
aI533
aa(lp1351
F80.89204216003418
ag2
aI814
aa(lp1352
F80.97581100463867
ag2
aI815
aa(lp1353
F81.00368618965149
ag4
aI534
aa(lp1354
F81.06765508651733
ag2
aI816
aa(lp1355
F81.17144012451172
ag4
aI535
aa(lp1356
F81.23618197441101
ag2
aI817
aa(lp1357
F81.36302614212036
ag2
aI818
aa(lp1358
F81.40755820274353
ag4
aI536
aa(lp1359
F81.47578716278076
ag2
aI819
aa(lp1360
F81.53609919548035
ag4
aI537
aa(lp1361
F81.59582018852234
ag2
aI820
aa(lp1362
F81.72284317016602
ag2
aI821
aa(lp1363
F81.77090501785278
ag4
aI538
aa(lp1364
F81.8156840801239
ag2
aI822
aa(lp1365
F81.89091801643372
ag4
aI539
aa(lp1366
F81.95605802536011
ag2
aI823
aa(lp1367
F82.0243890285492
ag2
aI824
aa(lp1368
F82.07595705986023
ag4
aI540
aa(lp1369
F82.12722897529602
ag2
aI825
aa(lp1370
F82.18828511238098
ag4
aI541
aa(lp1371
F82.23260116577148
ag2
aI826
aa(lp1372
F82.3238730430603
ag2
aI827
aa(lp1373
F82.40490412712097
ag4
aI542
aa(lp1374
F82.47113704681396
ag2
aI828
aa(lp1375
F82.54707312583923
ag4
aI543
aa(lp1376
F82.59531807899475
ag2
aI829
aa(lp1377
F82.69209909439087
ag2
aI830
aa(lp1378
F82.72758316993713
ag4
aI544
aa(lp1379
F82.77614712715149
ag2
aI831
aa(lp1380
F82.84843611717224
ag4
aI545
aa(lp1381
F82.89658117294312
ag2
aI832
aa(lp1382
F82.99175000190735
ag2
aI833
aa(lp1383
F83.02357506752014
ag4
aI546
aa(lp1384
F83.06807518005371
ag2
aI834
aa(lp1385
F83.13097810745239
ag4
aI547
aa(lp1386
F83.22039008140564
ag2
aI835
aa(lp1387
F83.29499912261963
ag2
aI836
aa(lp1388
F83.32381820678711
ag4
aI548
aa(lp1389
F83.38698101043701
ag2
aI837
aa(lp1390
F83.49519300460815
ag4
aI549
aa(lp1391
F83.56383109092712
ag2
aI838
aa(lp1392
F83.65200304985046
ag2
aI839
aa(lp1393
F83.68024897575378
ag4
aI550
aa(lp1394
F83.75105214118958
ag2
aI840
aa(lp1395
F83.79983711242676
ag4
aI551
aa(lp1396
F83.86356520652771
ag2
aI841
aa(lp1397
F83.93614912033081
ag2
aI842
aa(lp1398
F84.01771306991577
ag4
aI552
aa(lp1399
F84.08304119110107
ag2
aI843
aa(lp1400
F84.1513421535492
ag4
aI553
aa(lp1401
F84.19204521179199
ag2
aI844
aa(lp1402
F84.27973508834839
ag2
aI845
aa(lp1403
F84.32696509361267
ag4
aI554
aa(lp1404
F84.39152717590332
ag2
aI846
aa(lp1405
F84.43597102165222
ag4
aI555
aa(lp1406
F84.49991011619568
ag2
aI847
aa(lp1407
F84.59603810310364
ag2
aI848
aa(lp1408
F84.62343215942383
ag4
aI556
aa(lp1409
F84.70020008087158
ag2
aI849
aa(lp1410
F84.75196504592896
ag4
aI557
aa(lp1411
F84.81612610816956
ag2
aI850
aa(lp1412
F84.89621210098267
ag2
aI851
aa(lp1413
F84.93597197532654
ag4
aI558
aa(lp1414
F85.05152606964111
ag2
aI852
aa(lp1415
F85.110995054245
ag4
aI559
aa(lp1416
F85.17963004112244
ag2
aI853
aa(lp1417
F85.24324011802673
ag2
aI854
aa(lp1418
F85.28730201721191
ag4
aI560
aa(lp1419
F85.35912299156189
ag2
aI855
aa(lp1420
F85.41637802124023
ag4
aI561
aa(lp1421
F85.52342319488525
ag2
aI856
aa(lp1422
F85.61883521080017
ag2
aI857
aa(lp1423
F85.64723610877991
ag4
aI562
aa(lp1424
F85.71170711517334
ag2
aI858
aa(lp1425
F85.75954818725586
ag4
aI563
aa(lp1426
F85.82827711105347
ag2
aI859
aa(lp1427
F85.90328001976013
ag2
aI860
aa(lp1428
F85.95242309570312
ag4
aI564
aa(lp1429
F86.00450801849365
ag2
aI861
aa(lp1430
F86.06796216964722
ag4
aI565
aa(lp1431
F86.12869501113892
ag2
aI862
aa(lp1432
F86.19591498374939
ag2
aI863
aa(lp1433
F86.24426817893982
ag4
aI566
aa(lp1434
F86.29654717445374
ag2
aI864
aa(lp1435
F86.40285110473633
ag4
aI567
aa(lp1436
F86.467698097229
ag2
aI865
aa.