(lp0
(lp1
F9.989738464355469e-05
aS'TCP'
p2
aI0
aa(lp3
F0.027745962142944336
aS'UDP'
p4
aI0
aa(lp5
F0.05549192428588867
ag2
aI1
aa(lp6
F0.1447000503540039
ag4
aI1
aa(lp7
F0.22000503540039062
ag2
aI2
aa(lp8
F0.2920398712158203
ag4
aI2
aa(lp9
F0.3674640655517578
ag2
aI3
aa(lp10
F0.5114049911499023
ag4
aI3
aa(lp11
F0.626230001449585
ag4
aI4
aa(lp12
F0.7028069496154785
ag4
aI5
aa(lp13
F0.7877590656280518
ag2
aI4
aa(lp14
F0.8999009132385254
ag4
aI6
aa(lp15
F1.0285708904266357
ag4
aI7
aa(lp16
F1.0983638763427734
ag2
aI5
aa(lp17
F1.1652569770812988
ag4
aI8
aa(lp18
F1.2859339714050293
ag2
aI6
aa(lp19
F1.3539800643920898
ag4
aI9
aa(lp20
F1.428027868270874
ag2
aI7
aa(lp21
F1.5092759132385254
ag2
aI8
aa(lp22
F1.5591540336608887
ag4
aI10
aa(lp23
F1.6162419319152832
ag2
aI9
aa(lp24
F1.6679179668426514
ag4
aI11
aa(lp25
F1.719085931777954
ag2
aI10
aa(lp26
F1.783517837524414
ag4
aI12
aa(lp27
F1.8590710163116455
ag2
aI11
aa(lp28
F1.9074928760528564
ag4
aI13
aa(lp29
F1.9614160060882568
ag2
aI12
aa(lp30
F2.02291202545166
ag4
aI14
aa(lp31
F2.1070518493652344
ag4
aI15
aa(lp32
F2.1556248664855957
ag2
aI13
aa(lp33
F2.2077040672302246
ag4
aI16
aa(lp34
F2.2797210216522217
ag2
aI14
aa(lp35
F2.3438680171966553
ag4
aI17
aa(lp36
F2.3958170413970947
ag2
aI15
aa(lp37
F2.4962210655212402
ag2
aI16
aa(lp38
F2.536263942718506
ag4
aI18
aa(lp39
F2.637596845626831
ag2
aI17
aa(lp40
F2.779458999633789
ag2
aI18
aa(lp41
F2.8130459785461426
ag2
aI19
aa(lp42
F2.995987892150879
ag4
aI19
aa(lp43
F3.0875110626220703
ag2
aI20
aa(lp44
F3.156599998474121
ag2
aI21
aa(lp45
F3.195755958557129
ag4
aI20
aa(lp46
F3.22284197807312
ag2
aI22
aa(lp47
F3.3356480598449707
ag4
aI21
aa(lp48
F3.4005320072174072
ag4
aI22
aa(lp49
F3.5159189701080322
ag4
aI23
aa(lp50
F3.591413974761963
ag4
aI24
aa(lp51
F3.666943073272705
ag2
aI23
aa(lp52
F3.700279951095581
ag4
aI25
aa(lp53
F3.736798048019409
ag4
aI26
aa(lp54
F3.8601770401000977
ag4
aI27
aa(lp55
F4.003684043884277
ag2
aI24
aa(lp56
F4.120096921920776
ag4
aI28
aa(lp57
F4.232357978820801
ag4
aI29
aa(lp58
F4.31250786781311
ag2
aI25
aa(lp59
F4.33973503112793
ag4
aI30
aa(lp60
F4.367660045623779
ag2
aI26
aa(lp61
F4.4005889892578125
ag4
aI31
aa(lp62
F4.451015949249268
ag2
aI27
aa(lp63
F4.485625982284546
ag4
aI32
aa(lp64
F4.523139953613281
ag2
aI28
aa(lp65
F4.57431697845459
ag4
aI33
aa(lp66
F4.620175838470459
ag2
aI29
aa(lp67
F4.6621198654174805
ag4
aI34
aa(lp68
F4.709389925003052
ag2
aI30
aa(lp69
F4.775857925415039
ag4
aI35
aa(lp70
F4.844533920288086
ag2
aI31
aa(lp71
F4.880725860595703
ag4
aI36
aa(lp72
F4.904690980911255
ag2
aI32
aa(lp73
F4.941570997238159
ag4
aI37
aa(lp74
F4.969660043716431
ag2
aI33
aa(lp75
F4.996120929718018
ag4
aI38
aa(lp76
F5.026535987854004
ag4
aI39
aa(lp77
F5.066055059432983
ag2
aI34
aa(lp78
F5.124583959579468
ag4
aI40
aa(lp79
F5.153401851654053
ag4
aI41
aa(lp80
F5.181321859359741
ag2
aI35
aa(lp81
F5.221395969390869
ag4
aI42
aa(lp82
F5.253619909286499
ag2
aI36
aa(lp83
F5.289252996444702
ag4
aI43
aa(lp84
F5.3137688636779785
ag2
aI37
aa(lp85
F5.348285913467407
ag4
aI44
aa(lp86
F5.381403923034668
ag4
aI45
aa(lp87
F5.417557001113892
ag2
aI38
aa(lp88
F5.4635820388793945
ag4
aI46
aa(lp89
F5.650617837905884
ag2
aI39
aa(lp90
F5.768254995346069
ag4
aI47
aa(lp91
F5.896124839782715
ag2
aI40
aa(lp92
F5.959787845611572
ag4
aI48
aa(lp93
F5.993814945220947
ag2
aI41
aa(lp94
F6.091707944869995
ag4
aI49
aa(lp95
F6.155945062637329
ag2
aI42
aa(lp96
F6.300432920455933
ag4
aI50
aa(lp97
F6.36030387878418
ag2
aI43
aa(lp98
F6.419137001037598
ag4
aI51
aa(lp99
F6.476114988327026
ag2
aI44
aa(lp100
F6.5389909744262695
ag4
aI52
aa(lp101
F6.568809986114502
ag2
aI45
aa(lp102
F6.662996053695679
ag4
aI53
aa(lp103
F6.692097902297974
ag2
aI46
aa(lp104
F6.791736841201782
ag4
aI54
aa(lp105
F6.853219032287598
ag2
aI47
aa(lp106
F6.88025689125061
ag4
aI55
aa(lp107
F6.996526002883911
ag2
aI48
aa(lp108
F7.06052303314209
ag4
aI56
aa(lp109
F7.12502384185791
ag2
aI49
aa(lp110
F7.17550802230835
ag4
aI57
aa(lp111
F7.207535028457642
ag2
aI50
aa(lp112
F7.30761194229126
ag4
aI58
aa(lp113
F7.4322569370269775
ag2
aI51
aa(lp114
F7.460190057754517
ag4
aI59
aa(lp115
F7.508488893508911
ag2
aI52
aa(lp116
F7.719513893127441
ag2
aI53
aa(lp117
F7.755840063095093
ag4
aI60
aa(lp118
F7.827942848205566
ag4
aI61
aa(lp119
F7.905123949050903
ag4
aI62
aa(lp120
F7.984966039657593
ag2
aI54
aa(lp121
F8.11823296546936
ag4
aI63
aa(lp122
F8.236243963241577
ag2
aI55
aa(lp123
F8.296113014221191
ag4
aI64
aa(lp124
F8.385742902755737
ag2
aI56
aa(lp125
F8.483178853988647
ag4
aI65
aa(lp126
F8.617493867874146
ag2
aI57
aa(lp127
F8.748437881469727
ag4
aI66
aa(lp128
F8.868643045425415
ag4
aI67
aa(lp129
F9.088145971298218
ag2
aI58
aa(lp130
F9.249645948410034
ag4
aI68
aa(lp131
F9.351408004760742
ag2
aI59
aa(lp132
F9.424201011657715
ag4
aI69
aa(lp133
F9.496721982955933
ag2
aI60
aa(lp134
F9.611194849014282
ag4
aI70
aa(lp135
F9.678953886032104
ag2
aI61
aa(lp136
F9.71091604232788
ag4
aI71
aa(lp137
F9.810802936553955
ag2
aI62
aa(lp138
F9.843685865402222
ag4
aI72
aa(lp139
F9.963942050933838
ag2
aI63
aa(lp140
F10.035259008407593
ag4
aI73
aa(lp141
F10.151880979537964
ag2
aI64
aa(lp142
F10.272364854812622
ag4
aI74
aa(lp143
F10.342943906784058
ag4
aI75
aa(lp144
F10.4704110622406
ag4
aI76
aa(lp145
F10.556051015853882
ag2
aI65
aa(lp146
F10.69584584236145
ag4
aI77
aa(lp147
F10.8193359375
ag2
aI66
aa(lp148
F10.893158912658691
ag4
aI78
aa(lp149
F11.077690839767456
ag4
aI79
aa(lp150
F11.204288959503174
ag2
aI67
aa(lp151
F11.388097047805786
ag2
aI68
aa(lp152
F11.484561920166016
ag4
aI80
aa(lp153
F11.605047941207886
ag2
aI69
aa(lp154
F11.685131072998047
ag4
aI81
aa(lp155
F11.804698944091797
ag2
aI70
aa(lp156
F11.927983045578003
ag4
aI82
aa(lp157
F12.01149606704712
ag2
aI71
aa(lp158
F12.151290893554688
ag4
aI83
aa(lp159
F12.28383207321167
ag2
aI72
aa(lp160
F12.376621007919312
ag4
aI84
aa(lp161
F12.439823865890503
ag2
aI73
aa(lp162
F12.497205972671509
ag4
aI85
aa(lp163
F12.524123907089233
ag2
aI74
aa(lp164
F12.572502851486206
ag4
aI86
aa(lp165
F12.644296884536743
ag2
aI75
aa(lp166
F12.83880090713501
ag4
aI87
aa(lp167
F12.909137964248657
ag2
aI76
aa(lp168
F12.993552923202515
ag4
aI88
aa(lp169
F13.061255931854248
ag2
aI77
aa(lp170
F13.197859048843384
ag4
aI89
aa(lp171
F13.30199384689331
ag2
aI78
aa(lp172
F13.349464893341064
ag4
aI90
aa(lp173
F13.412912845611572
ag4
aI91
aa(lp174
F13.470346927642822
ag2
aI79
aa(lp175
F13.5470609664917
ag4
aI92
aa(lp176
F13.67180585861206
ag2
aI80
aa(lp177
F13.701375007629395
ag4
aI93
aa(lp178
F13.745288848876953
ag2
aI81
aa(lp179
F13.859246015548706
ag4
aI94
aa(lp180
F13.955785989761353
ag4
aI95
aa(lp181
F14.023916006088257
ag2
aI82
aa(lp182
F14.138789892196655
ag4
aI96
aa(lp183
F14.206796884536743
ag2
aI83
aa(lp184
F14.260360956192017
ag4
aI97
aa(lp185
F14.353493928909302
ag2
aI84
aa(lp186
F14.412836074829102
ag4
aI98
aa(lp187
F14.524983882904053
ag2
aI85
aa(lp188
F14.60843300819397
ag4
aI99
aa(lp189
F14.661233901977539
ag2
aI86
aa(lp190
F14.811903953552246
ag4
aI100
aa(lp191
F14.852081060409546
ag2
aI87
aa(lp192
F14.923454999923706
ag4
aI101
aa(lp193
F15.000118017196655
ag4
aI102
aa(lp194
F15.05588698387146
ag4
aI103
aa(lp195
F15.139689922332764
ag4
aI104
aa(lp196
F15.213234901428223
ag2
aI88
aa(lp197
F15.288069009780884
ag4
aI105
aa(lp198
F15.391906023025513
ag4
aI106
aa(lp199
F15.464344024658203
ag2
aI89
aa(lp200
F15.579887866973877
ag4
aI107
aa(lp201
F15.64570689201355
ag2
aI90
aa(lp202
F15.766227006912231
ag4
aI108
aa(lp203
F15.855371952056885
ag2
aI91
aa(lp204
F15.89515995979309
ag4
aI109
aa(lp205
F15.96787691116333
ag2
aI92
aa(lp206
F16.16321897506714
ag4
aI110
aa(lp207
F16.302653074264526
ag2
aI93
aa(lp208
F16.367586851119995
ag4
aI111
aa(lp209
F16.427398920059204
ag2
aI94
aa(lp210
F16.501028060913086
ag2
aI95
aa(lp211
F16.558743953704834
ag4
aI112
aa(lp212
F16.619484901428223
ag4
aI113
aa(lp213
F16.696873903274536
ag2
aI96
aa(lp214
F16.784299850463867
ag4
aI114
aa(lp215
F16.892616987228394
ag2
aI97
aa(lp216
F16.96119499206543
ag4
aI115
aa(lp217
F16.98838496208191
ag2
aI98
aa(lp218
F17.03235101699829
ag4
aI116
aa(lp219
F17.139883995056152
ag2
aI99
aa(lp220
F17.213412046432495
ag4
aI117
aa(lp221
F17.340688943862915
ag2
aI100
aa(lp222
F17.41619896888733
ag4
aI118
aa(lp223
F17.519119024276733
ag2
aI101
aa(lp224
F17.589460849761963
ag4
aI119
aa(lp225
F17.71241593360901
ag2
aI102
aa(lp226
F17.7857768535614
ag4
aI120
aa(lp227
F17.892876863479614
ag2
aI103
aa(lp228
F18.020303964614868
ag4
aI121
aa(lp229
F18.100398063659668
ag2
aI104
aa(lp230
F18.213292837142944
ag2
aI105
aa(lp231
F18.364434957504272
ag4
aI122
aa(lp232
F18.49929404258728
ag2
aI106
aa(lp233
F18.567359924316406
ag4
aI123
aa(lp234
F18.69174289703369
ag2
aI107
aa(lp235
F18.718809843063354
ag4
aI124
aa(lp236
F18.815582990646362
ag2
aI108
aa(lp237
F18.846701860427856
ag4
aI125
aa(lp238
F18.943443059921265
ag2
aI109
aa(lp239
F18.975523948669434
ag4
aI126
aa(lp240
F19.067209005355835
ag2
aI110
aa(lp241
F19.206979036331177
ag4
aI127
aa(lp242
F19.27663803100586
ag2
aI111
aa(lp243
F19.360794067382812
ag4
aI128
aa(lp244
F19.440095901489258
ag2
aI112
aa(lp245
F19.551156044006348
ag4
aI129
aa(lp246
F19.636119842529297
ag2
aI113
aa(lp247
F19.852036952972412
ag4
aI130
aa(lp248
F19.901313066482544
ag2
aI114
aa(lp249
F19.9663028717041
ag4
aI131
aa(lp250
F20.03601598739624
ag4
aI132
aa(lp251
F20.103890895843506
ag4
aI133
aa(lp252
F20.216930866241455
ag2
aI115
aa(lp253
F20.29519295692444
ag4
aI134
aa(lp254
F20.42034387588501
ag2
aI116
aa(lp255
F20.55964183807373
ag4
aI135
aa(lp256
F20.62336802482605
ag4
aI136
aa(lp257
F20.731621980667114
ag2
aI117
aa(lp258
F20.76834988594055
ag2
aI118
aa(lp259
F20.82693600654602
ag4
aI137
aa(lp260
F20.953783988952637
ag4
aI138
aa(lp261
F21.095037937164307
ag4
aI139
aa(lp262
F21.176564931869507
ag2
aI119
aa(lp263
F21.297298908233643
ag2
aI120
aa(lp264
F21.437253952026367
ag2
aI121
aa(lp265
F21.631764888763428
ag4
aI140
aa(lp266
F21.711756944656372
ag2
aI122
aa(lp267
F21.77522301673889
ag4
aI141
aa(lp268
F21.83997392654419
ag4
aI142
aa(lp269
F21.955610036849976
ag4
aI143
aa(lp270
F22.027364015579224
ag4
aI144
aa(lp271
F22.089951038360596
ag4
aI145
aa(lp272
F22.216268062591553
ag2
aI123
aa(lp273
F22.299669981002808
ag2
aI124
aa(lp274
F22.43590784072876
ag2
aI125
aa(lp275
F22.569198846817017
ag4
aI146
aa(lp276
F22.64741587638855
ag4
aI147
aa(lp277
F22.715801000595093
ag4
aI148
aa(lp278
F22.835994005203247
ag2
aI126
aa(lp279
F22.907397985458374
ag2
aI127
aa(lp280
F22.975111961364746
ag4
aI149
aa(lp281
F23.081872940063477
ag2
aI128
aa(lp282
F23.359508991241455
ag4
aI150
aa(lp283
F23.50395107269287
ag2
aI129
aa(lp284
F23.56372094154358
ag4
aI151
aa(lp285
F23.691969871520996
ag2
aI130
aa(lp286
F23.823762893676758
ag4
aI152
aa(lp287
F23.90959405899048
ag2
aI131
aa(lp288
F24.035277843475342
ag4
aI153
aa(lp289
F24.15723705291748
ag2
aI132
aa(lp290
F24.293649911880493
ag4
aI154
aa(lp291
F24.383720874786377
ag2
aI133
aa(lp292
F24.455332040786743
ag4
aI155
aa(lp293
F24.559430837631226
ag2
aI134
aa(lp294
F24.643751859664917
ag4
aI156
aa(lp295
F24.695934057235718
ag2
aI135
aa(lp296
F24.812753915786743
ag4
aI157
aa(lp297
F24.94055986404419
ag2
aI136
aa(lp298
F25.012742042541504
ag4
aI158
aa(lp299
F25.077327966690063
ag2
aI137
aa(lp300
F25.192750930786133
ag4
aI159
aa(lp301
F25.24896001815796
ag2
aI138
aa(lp302
F25.441086053848267
ag2
aI139
aa(lp303
F25.561347007751465
ag4
aI160
aa(lp304
F25.692458868026733
ag4
aI161
aa(lp305
F25.750521898269653
ag2
aI140
aa(lp306
F25.80585789680481
ag4
aI162
aa(lp307
F25.86527395248413
ag2
aI141
aa(lp308
F26.000427961349487
ag4
aI163
aa(lp309
F26.14829707145691
ag4
aI164
aa(lp310
F26.23634386062622
ag2
aI142
aa(lp311
F26.352328062057495
ag4
aI165
aa(lp312
F26.432188034057617
ag2
aI143
aa(lp313
F26.564045906066895
ag4
aI166
aa(lp314
F26.687052011489868
ag2
aI144
aa(lp315
F26.77876591682434
ag4
aI167
aa(lp316
F26.828208923339844
ag2
aI145
aa(lp317
F26.947442054748535
ag4
aI168
aa(lp318
F26.97974991798401
ag2
aI146
aa(lp319
F27.085679054260254
ag4
aI169
aa(lp320
F27.320415019989014
ag2
aI147
aa(lp321
F27.451519012451172
ag4
aI170
aa(lp322
F27.599478006362915
ag2
aI148
aa(lp323
F27.736105918884277
ag2
aI149
aa(lp324
F27.874100923538208
ag4
aI171
aa(lp325
F27.95328187942505
ag4
aI172
aa(lp326
F28.01577091217041
ag4
aI173
aa(lp327
F28.126868963241577
ag2
aI150
aa(lp328
F28.273633003234863
ag4
aI174
aa(lp329
F28.50040102005005
ag2
aI151
aa(lp330
F28.57684302330017
ag4
aI175
aa(lp331
F28.699503898620605
ag2
aI152
aa(lp332
F28.816235065460205
ag4
aI176
aa(lp333
F28.901444911956787
ag4
aI177
aa(lp334
F28.982315063476562
ag4
aI178
aa(lp335
F29.03084897994995
ag2
aI153
aa(lp336
F29.097157955169678
ag2
aI154
aa(lp337
F29.161186933517456
ag4
aI179
aa(lp338
F29.214130878448486
ag2
aI155
aa(lp339
F29.35814595222473
ag4
aI180
aa(lp340
F29.40414786338806
ag4
aI181
aa(lp341
F29.47359299659729
ag2
aI156
aa(lp342
F29.540624856948853
ag4
aI182
aa(lp343
F29.609596014022827
ag2
aI157
aa(lp344
F29.680055856704712
ag4
aI183
aa(lp345
F29.74465298652649
ag2
aI158
aa(lp346
F29.945122957229614
ag4
aI184
aa(lp347
F30.025413036346436
ag2
aI159
aa(lp348
F30.076102018356323
ag4
aI185
aa(lp349
F30.112984895706177
ag2
aI160
aa(lp350
F30.223914861679077
ag4
aI186
aa(lp351
F30.289156913757324
ag2
aI161
aa(lp352
F30.34250497817993
ag4
aI187
aa(lp353
F30.42611002922058
ag2
aI162
aa(lp354
F30.485168933868408
ag4
aI188
aa(lp355
F30.541884899139404
ag2
aI163
aa(lp356
F30.60853886604309
ag2
aI164
aa(lp357
F30.779846906661987
ag4
aI189
aa(lp358
F30.825525999069214
ag2
aI165
aa(lp359
F30.892322063446045
ag4
aI190
aa(lp360
F30.96072006225586
ag2
aI166
aa(lp361
F31.028259992599487
ag4
aI191
aa(lp362
F31.093064069747925
ag2
aI167
aa(lp363
F31.210942029953003
ag4
aI192
aa(lp364
F31.244870901107788
ag2
aI168
aa(lp365
F31.35659384727478
ag4
aI193
aa(lp366
F31.42501997947693
ag2
aI169
aa(lp367
F31.50903606414795
ag4
aI194
aa(lp368
F31.568760871887207
ag2
aI170
aa(lp369
F31.629157066345215
ag4
aI195
aa(lp370
F31.6925630569458
ag2
aI171
aa(lp371
F31.756901025772095
ag4
aI196
aa(lp372
F31.820905923843384
ag2
aI172
aa(lp373
F31.849398851394653
ag4
aI197
aa(lp374
F31.94158387184143
ag2
aI173
aa(lp375
F32.004684925079346
ag4
aI198
aa(lp376
F32.0862250328064
ag2
aI174
aa(lp377
F32.153745889663696
ag2
aI175
aa(lp378
F32.194586992263794
ag2
aI176
aa(lp379
F32.25503993034363
ag2
aI177
aa(lp380
F32.37351703643799
ag2
aI178
aa(lp381
F32.41453003883362
ag4
aI199
aa(lp382
F32.54571294784546
ag2
aI179
aa(lp383
F32.60429906845093
ag4
aI200
aa(lp384
F32.71195101737976
ag2
aI180
aa(lp385
F32.78850984573364
ag4
aI201
aa(lp386
F32.91368889808655
ag2
aI181
aa(lp387
F32.96994400024414
ag4
aI202
aa(lp388
F33.04565095901489
ag2
aI182
aa(lp389
F33.11171793937683
ag2
aI183
aa(lp390
F33.17119097709656
ag4
aI203
aa(lp391
F33.283977031707764
ag2
aI184
aa(lp392
F33.4085578918457
ag4
aI204
aa(lp393
F33.46563792228699
ag2
aI185
aa(lp394
F33.53620100021362
ag4
aI205
aa(lp395
F33.596160888671875
ag2
aI186
aa(lp396
F33.704509973526
ag4
aI206
aa(lp397
F33.740885972976685
ag2
aI187
aa(lp398
F33.90579700469971
ag2
aI188
aa(lp399
F34.04390788078308
ag4
aI207
aa(lp400
F34.17058205604553
ag2
aI189
aa(lp401
F34.27332901954651
ag2
aI190
aa(lp402
F34.377009868621826
ag4
aI208
aa(lp403
F34.493178844451904
ag2
aI191
aa(lp404
F34.71312689781189
ag2
aI192
aa(lp405
F34.78462290763855
ag4
aI209
aa(lp406
F34.845388889312744
ag2
aI193
aa(lp407
F34.90486693382263
ag4
aI210
aa(lp408
F35.01431894302368
ag2
aI194
aa(lp409
F35.149333000183105
ag4
aI211
aa(lp410
F35.31143403053284
ag2
aI195
aa(lp411
F35.3972909450531
ag4
aI212
aa(lp412
F35.52977705001831
ag2
aI196
aa(lp413
F35.58969593048096
ag4
aI213
aa(lp414
F35.70235300064087
ag2
aI197
aa(lp415
F35.7876079082489
ag4
aI214
aa(lp416
F35.84074401855469
ag2
aI198
aa(lp417
F35.896075963974
ag4
aI215
aa(lp418
F35.92067193984985
ag2
aI199
aa(lp419
F35.96470594406128
ag4
aI216
aa(lp420
F36.04453802108765
ag2
aI200
aa(lp421
F36.15972900390625
ag4
aI217
aa(lp422
F36.24476385116577
ag2
aI201
aa(lp423
F36.309828996658325
ag4
aI218
aa(lp424
F36.36750888824463
ag2
aI202
aa(lp425
F36.51099395751953
ag2
aI203
aa(lp426
F36.58724904060364
ag4
aI219
aa(lp427
F36.65060591697693
ag2
aI204
aa(lp428
F36.72688102722168
ag4
aI220
aa(lp429
F36.79720997810364
ag2
aI205
aa(lp430
F36.928133964538574
ag4
aI221
aa(lp431
F36.96490693092346
ag2
aI206
aa(lp432
F37.081862926483154
ag4
aI222
aa(lp433
F37.1363959312439
ag2
aI207
aa(lp434
F37.358397006988525
ag2
aI208
aa(lp435
F37.43956184387207
ag4
aI223
aa(lp436
F37.58440184593201
ag2
aI209
aa(lp437
F37.71210193634033
ag4
aI224
aa(lp438
F37.74145483970642
ag2
aI210
aa(lp439
F37.7904589176178
ag4
aI225
aa(lp440
F37.86610794067383
ag2
aI211
aa(lp441
F37.999074935913086
ag4
aI226
aa(lp442
F38.02088284492493
ag2
aI212
aa(lp443
F38.13679504394531
ag4
aI227
aa(lp444
F38.2606840133667
ag2
aI213
aa(lp445
F38.365198850631714
ag2
aI214
aa(lp446
F38.392951011657715
ag4
aI228
aa(lp447
F38.43761086463928
ag2
aI215
aa(lp448
F38.595540046691895
ag2
aI216
aa(lp449
F38.62779498100281
ag4
aI229
aa(lp450
F38.68512797355652
ag2
aI217
aa(lp451
F38.760074853897095
ag4
aI230
aa(lp452
F38.82600688934326
ag2
aI218
aa(lp453
F38.889267921447754
ag4
aI231
aa(lp454
F39.024770975112915
ag2
aI219
aa(lp455
F39.10154390335083
ag4
aI232
aa(lp456
F39.23131489753723
ag2
aI220
aa(lp457
F39.30975604057312
ag2
aI221
aa(lp458
F39.33564496040344
ag4
aI233
aa(lp459
F39.439960956573486
ag2
aI222
aa(lp460
F39.5204918384552
ag4
aI234
aa(lp461
F39.637572050094604
ag4
aI235
aa(lp462
F39.74324989318848
ag2
aI223
aa(lp463
F39.8533079624176
ag2
aI224
aa(lp464
F39.9595000743866
ag2
aI225
aa(lp465
F40.09452295303345
ag2
aI226
aa(lp466
F40.26375389099121
ag2
aI227
aa(lp467
F40.32478404045105
ag4
aI236
aa(lp468
F40.439306020736694
ag2
aI228
aa(lp469
F40.51618003845215
ag4
aI237
aa(lp470
F40.57264304161072
ag2
aI229
aa(lp471
F40.60462689399719
ag2
aI230
aa(lp472
F40.7087779045105
ag4
aI238
aa(lp473
F40.765267848968506
ag2
aI231
aa(lp474
F40.845579862594604
ag2
aI232
aa(lp475
F40.8961820602417
ag2
aI233
aa(lp476
F40.92724299430847
ag2
aI234
aa(lp477
F41.02281188964844
ag4
aI239
aa(lp478
F41.1128568649292
ag2
aI235
aa(lp479
F41.15195298194885
ag4
aI240
aa(lp480
F41.18524503707886
ag2
aI236
aa(lp481
F41.27776598930359
ag4
aI241
aa(lp482
F41.35479784011841
ag4
aI242
aa(lp483
F41.41910791397095
ag2
aI237
aa(lp484
F41.48302698135376
ag4
aI243
aa(lp485
F41.598381996154785
ag2
aI238
aa(lp486
F41.66352891921997
ag4
aI244
aa(lp487
F41.743622064590454
ag2
aI239
aa(lp488
F41.79138684272766
ag4
aI245
aa(lp489
F41.81930589675903
ag2
aI240
aa(lp490
F41.8673050403595
ag4
aI246
aa(lp491
F41.93153405189514
ag2
aI241
aa(lp492
F42.041101932525635
ag4
aI247
aa(lp493
F42.12796092033386
ag2
aI242
aa(lp494
F42.155237913131714
ag4
aI248
aa(lp495
F42.24423098564148
ag2
aI243
aa(lp496
F42.31580400466919
ag2
aI244
aa(lp497
F42.343912839889526
ag4
aI249
aa(lp498
F42.44051694869995
ag2
aI245
aa(lp499
F42.464179039001465
ag4
aI250
aa(lp500
F42.51172184944153
ag2
aI246
aa(lp501
F42.576210021972656
ag4
aI251
aa(lp502
F42.643720865249634
ag2
aI247
aa(lp503
F42.75235605239868
ag4
aI252
aa(lp504
F42.784504890441895
ag2
aI248
aa(lp505
F42.888094902038574
ag4
aI253
aa(lp506
F42.938276052474976
ag2
aI249
aa(lp507
F43.005077838897705
ag4
aI254
aa(lp508
F43.040364027023315
ag4
aI255
aa(lp509
F43.12660503387451
ag2
aI250
aa(lp510
F43.20017695426941
ag4
aI256
aa(lp511
F43.255626916885376
ag2
aI251
aa(lp512
F43.28510284423828
ag4
aI257
aa(lp513
F43.40055298805237
ag2
aI252
aa(lp514
F43.4766058921814
ag4
aI258
aa(lp515
F43.52543497085571
ag2
aI253
aa(lp516
F43.65777087211609
ag2
aI254
aa(lp517
F43.72476506233215
ag4
aI259
aa(lp518
F43.78128695487976
ag2
aI255
aa(lp519
F43.84089994430542
ag4
aI260
aa(lp520
F43.905925989151
ag2
aI256
aa(lp521
F44.01606893539429
ag4
aI261
aa(lp522
F44.13518404960632
ag2
aI257
aa(lp523
F44.21222996711731
ag4
aI262
aa(lp524
F44.24069285392761
ag2
aI258
aa(lp525
F44.3249089717865
ag2
aI259
aa(lp526
F44.38655090332031
ag4
aI263
aa(lp527
F44.451683044433594
ag4
aI264
aa(lp528
F44.51939296722412
ag4
aI265
aa(lp529
F44.58294892311096
ag2
aI260
aa(lp530
F44.7072069644928
ag4
aI266
aa(lp531
F44.76422691345215
ag2
aI261
aa(lp532
F44.849143981933594
ag4
aI267
aa(lp533
F44.89336705207825
ag2
aI262
aa(lp534
F44.95699596405029
ag4
aI268
aa(lp535
F45.01533603668213
ag2
aI263
aa(lp536
F45.13320302963257
ag2
aI264
aa(lp537
F45.177639961242676
ag4
aI269
aa(lp538
F45.235934019088745
ag2
aI265
aa(lp539
F45.30499887466431
ag4
aI270
aa(lp540
F45.34827995300293
ag2
aI266
aa(lp541
F45.43194389343262
ag4
aI271
aa(lp542
F45.47151494026184
ag2
aI267
aa(lp543
F45.55933690071106
ag4
aI272
aa(lp544
F45.599570989608765
ag2
aI268
aa(lp545
F45.67947793006897
ag4
aI273
aa(lp546
F45.73899292945862
ag2
aI269
aa(lp547
F45.803369998931885
ag4
aI274
aa(lp548
F45.86719989776611
ag2
aI270
aa(lp549
F45.9353129863739
ag4
aI275
aa(lp550
F45.98690104484558
ag2
aI271
aa(lp551
F46.0591139793396
ag4
aI276
aa(lp552
F46.13150191307068
ag2
aI272
aa(lp553
F46.17409896850586
ag4
aI277
aa(lp554
F46.26850986480713
ag4
aI278
aa(lp555
F46.309072971343994
ag2
aI273
aa(lp556
F46.40000104904175
ag2
aI274
aa(lp557
F46.43636703491211
ag4
aI279
aa(lp558
F46.51289105415344
ag2
aI275
aa(lp559
F46.56827187538147
ag4
aI280
aa(lp560
F46.62513494491577
ag2
aI276
aa(lp561
F46.70042300224304
ag4
aI281
aa(lp562
F46.75296401977539
ag2
aI277
aa(lp563
F46.824296951293945
ag4
aI282
aa(lp564
F46.88107991218567
ag2
aI278
aa(lp565
F46.95317602157593
ag4
aI283
aa(lp566
F47.01274800300598
ag2
aI279
aa(lp567
F47.08050084114075
ag4
aI284
aa(lp568
F47.120611906051636
ag2
aI280
aa(lp569
F47.212103843688965
ag4
aI285
aa(lp570
F47.24922704696655
ag2
aI281
aa(lp571
F47.33673906326294
ag4
aI286
aa(lp572
F47.39996004104614
ag2
aI282
aa(lp573
F47.46036696434021
ag4
aI287
aa(lp574
F47.524353981018066
ag2
aI283
aa(lp575
F47.584954023361206
ag4
aI288
aa(lp576
F47.659745931625366
ag2
aI284
aa(lp577
F47.72821497917175
ag2
aI285
aa(lp578
F47.77179193496704
ag4
aI289
aa(lp579
F47.8323540687561
ag2
aI286
aa(lp580
F47.92427206039429
ag4
aI290
aa(lp581
F47.964380979537964
ag2
aI287
aa(lp582
F48.01983094215393
ag4
aI291
aa(lp583
F48.096176862716675
ag2
aI288
aa(lp584
F48.21239995956421
ag4
aI292
aa(lp585
F48.27621102333069
ag2
aI289
aa(lp586
F48.33100891113281
ag4
aI293
aa(lp587
F48.395596981048584
ag2
aI290
aa(lp588
F48.47500801086426
ag4
aI294
aa(lp589
F48.539361000061035
ag2
aI291
aa(lp590
F48.59548592567444
ag4
aI295
aa(lp591
F48.6554319858551
ag2
aI292
aa(lp592
F48.711195945739746
ag4
aI296
aa(lp593
F48.79946494102478
ag2
aI293
aa(lp594
F48.84332799911499
ag4
aI297
aa(lp595
F48.8996479511261
ag2
aI294
aa(lp596
F48.97968006134033
ag4
aI298
aa(lp597
F49.027626037597656
ag2
aI295
aa(lp598
F49.14000201225281
ag2
aI296
aa(lp599
F49.184141874313354
ag4
aI299
aa(lp600
F49.23627305030823
ag4
aI300
aa(lp601
F49.2992730140686
ag4
aI301
aa(lp602
F49.3636200428009
ag2
aI297
aa(lp603
F49.43945384025574
ag4
aI302
aa(lp604
F49.511210918426514
ag2
aI298
aa(lp605
F49.54341793060303
ag4
aI303
aa(lp606
F49.63543391227722
ag2
aI299
aa(lp607
F49.687581062316895
ag4
aI304
aa(lp608
F49.764256954193115
ag4
aI305
aa(lp609
F49.8279869556427
ag4
aI306
aa(lp610
F49.88844084739685
ag2
aI300
aa(lp611
F49.971561908721924
ag4
aI307
aa(lp612
F50.0151150226593
ag2
aI301
aa(lp613
F50.07991600036621
ag4
aI308
aa(lp614
F50.123594999313354
ag2
aI302
aa(lp615
F50.21157884597778
ag2
aI303
aa(lp616
F50.2514488697052
ag2
aI304
aa(lp617
F50.34780502319336
ag2
aI305
aa(lp618
F50.38797903060913
ag4
aI309
aa(lp619
F50.447831869125366
ag4
aI310
aa(lp620
F50.512542963027954
ag2
aI306
aa(lp621
F50.603841066360474
ag2
aI307
aa(lp622
F50.65152096748352
ag2
aI308
aa(lp623
F50.69517397880554
ag4
aI311
aa(lp624
F50.73109197616577
ag4
aI312
aa(lp625
F50.81980490684509
ag2
aI309
aa(lp626
F50.89578104019165
ag2
aI310
aa(lp627
F50.97545003890991
ag4
aI313
aa(lp628
F51.015908002853394
ag4
aI314
aa(lp629
F51.10718894004822
ag4
aI315
aa(lp630
F51.147408962249756
ag4
aI316
aa(lp631
F51.23231506347656
ag2
aI311
aa(lp632
F51.27114486694336
ag2
aI312
aa(lp633
F51.35537004470825
ag2
aI313
aa(lp634
F51.416099071502686
ag2
aI314
aa(lp635
F51.47566485404968
ag2
aI315
aa(lp636
F51.53567385673523
ag2
aI316
aa(lp637
F51.60323786735535
ag4
aI317
aa(lp638
F51.67260003089905
ag2
aI317
aa(lp639
F51.73135304450989
ag4
aI318
aa(lp640
F51.82809090614319
ag4
aI319
aa(lp641
F51.87573599815369
ag4
aI320
aa(lp642
F51.967267990112305
ag2
aI318
aa(lp643
F52.05134391784668
ag4
aI321
aa(lp644
F52.10300087928772
ag4
aI322
aa(lp645
F52.16796588897705
ag2
aI319
aa(lp646
F52.24086093902588
ag4
aI323
aa(lp647
F52.299509048461914
ag2
aI320
aa(lp648
F52.363860845565796
ag4
aI324
aa(lp649
F52.42568492889404
ag2
aI321
aa(lp650
F52.489556074142456
ag4
aI325
aa(lp651
F52.54940104484558
ag2
aI322
aa(lp652
F52.61494493484497
ag4
aI326
aa(lp653
F52.67309498786926
ag2
aI323
aa(lp654
F52.728760957717896
ag4
aI327
aa(lp655
F52.819732904434204
ag2
aI324
aa(lp656
F52.8819260597229
ag4
aI328
aa(lp657
F52.945554971694946
ag2
aI325
aa(lp658
F53.04125690460205
ag2
aI326
aa(lp659
F53.08529806137085
ag4
aI329
aa(lp660
F53.150359869003296
ag2
aI327
aa(lp661
F53.20923590660095
ag4
aI330
aa(lp662
F53.26562786102295
ag2
aI328
aa(lp663
F53.344642877578735
ag4
aI331
aa(lp664
F53.3891339302063
ag2
aI329
aa(lp665
F53.46516489982605
ag4
aI332
aa(lp666
F53.52560591697693
ag2
aI330
aa(lp667
F53.585366010665894
ag4
aI333
aa(lp668
F53.70673489570618
ag2
aI331
aa(lp669
F53.77429986000061
ag4
aI334
aa(lp670
F53.84218406677246
ag2
aI332
aa(lp671
F53.89782905578613
ag4
aI335
aa(lp672
F53.95039391517639
ag2
aI333
aa(lp673
F54.02589392662048
ag4
aI336
aa(lp674
F54.076289892196655
ag2
aI334
aa(lp675
F54.165452003479004
ag4
aI337
aa(lp676
F54.22650098800659
ag2
aI335
aa(lp677
F54.287808895111084
ag4
aI338
aa(lp678
F54.348883867263794
ag2
aI336
aa(lp679
F54.44416904449463
ag4
aI339
aa(lp680
F54.487947940826416
ag4
aI340
aa(lp681
F54.5528838634491
ag2
aI337
aa(lp682
F54.65923094749451
ag2
aI338
aa(lp683
F54.73422193527222
ag4
aI341
aa(lp684
F54.78599190711975
ag2
aI339
aa(lp685
F54.838907957077026
ag4
aI342
aa(lp686
F54.90383005142212
ag2
aI340
aa(lp687
F54.961792945861816
ag2
aI341
aa(lp688
F55.02214288711548
ag2
aI342
aa(lp689
F55.13993501663208
ag4
aI343
aa(lp690
F55.18068790435791
ag2
aI343
aa(lp691
F55.23965287208557
ag4
aI344
aa(lp692
F55.30046987533569
ag2
aI344
aa(lp693
F55.387906074523926
ag4
aI345
aa(lp694
F55.443774938583374
ag4
aI346
aa(lp695
F55.50836491584778
ag2
aI345
aa(lp696
F55.58056402206421
ag4
aI347
aa(lp697
F55.6196129322052
ag2
aI346
aa(lp698
F55.69963598251343
ag4
aI348
aa(lp699
F55.76426100730896
ag2
aI347
aa(lp700
F55.859638929367065
ag2
aI348
aa(lp701
F55.89564490318298
ag4
aI349
aa(lp702
F55.952080965042114
ag2
aI349
aa(lp703
F56.013067960739136
ag4
aI350
aa(lp704
F56.06815195083618
ag2
aI350
aa(lp705
F56.15573787689209
ag4
aI351
aa(lp706
F56.1967978477478
ag2
aI351
aa(lp707
F56.27803087234497
ag2
aI352
aa(lp708
F56.337976932525635
ag2
aI353
aa(lp709
F56.39554286003113
ag4
aI352
aa(lp710
F56.45357084274292
ag2
aI354
aa(lp711
F56.51238799095154
ag4
aI353
aa(lp712
F56.60583186149597
ag2
aI355
aa(lp713
F56.67002201080322
ag4
aI354
aa(lp714
F56.70903491973877
ag2
aI356
aa(lp715
F56.81313991546631
ag4
aI355
aa(lp716
F56.85370683670044
ag2
aI357
aa(lp717
F56.913317918777466
ag4
aI356
aa(lp718
F56.95998191833496
ag2
aI358
aa(lp719
F57.04572892189026
ag4
aI357
aa(lp720
F57.08872103691101
ag2
aI359
aa(lp721
F57.17009902000427
ag4
aI358
aa(lp722
F57.229771852493286
ag2
aI360
aa(lp723
F57.320353984832764
ag4
aI359
aa(lp724
F57.364553928375244
ag2
aI361
aa(lp725
F57.4083149433136
ag4
aI360
aa(lp726
F57.46921992301941
ag4
aI361
aa(lp727
F57.52852487564087
ag2
aI362
aa(lp728
F57.6120719909668
ag4
aI362
aa(lp729
F57.67696499824524
ag2
aI363
aa(lp730
F57.803338050842285
ag4
aI363
aa(lp731
F57.873432874679565
ag4
aI364
aa(lp732
F57.939372062683105
ag2
aI364
aa(lp733
F57.99610900878906
ag4
aI365
aa(lp734
F58.056334018707275
ag2
aI365
aa(lp735
F58.13118386268616
ag2
aI366
aa(lp736
F58.17565584182739
ag4
aI366
aa(lp737
F58.25598692893982
ag2
aI367
aa(lp738
F58.295222997665405
ag2
aI368
aa(lp739
F58.32850098609924
ag2
aI369
aa(lp740
F58.42405390739441
ag4
aI367
aa(lp741
F58.49622392654419
ag2
aI370
aa(lp742
F58.556477069854736
ag4
aI368
aa(lp743
F58.61024594306946
ag2
aI371
aa(lp744
F58.72747993469238
ag2
aI372
aa(lp745
F58.77407789230347
ag4
aI369
aa(lp746
F58.83924698829651
ag2
aI373
aa(lp747
F58.88865399360657
ag4
aI370
aa(lp748
F58.973716020584106
ag4
aI371
aa(lp749
F59.02848792076111
ag2
aI374
aa(lp750
F59.079789876937866
ag4
aI372
aa(lp751
F59.17194199562073
ag4
aI373
aa(lp752
F59.227339029312134
ag4
aI374
aa(lp753
F59.2800509929657
ag4
aI375
aa(lp754
F59.36059284210205
ag2
aI375
aa(lp755
F59.423099994659424
ag2
aI376
aa(lp756
F59.457391023635864
ag4
aI376
aa(lp757
F59.55475997924805
ag2
aI377
aa(lp758
F59.62382793426514
ag4
aI377
aa(lp759
F59.69616389274597
ag2
aI378
aa(lp760
F59.73180794715881
ag4
aI378
aa(lp761
F59.808104038238525
ag2
aI379
aa(lp762
F59.907639026641846
ag2
aI380
aa(lp763
F59.9465708732605
ag4
aI379
aa(lp764
F60.068289041519165
ag2
aI381
aa(lp765
F60.13218402862549
ag4
aI380
aa(lp766
F60.18756294250488
ag2
aI382
aa(lp767
F60.271986961364746
ag4
aI381
aa(lp768
F60.326940059661865
ag2
aI383
aa(lp769
F60.38943099975586
ag4
aI382
aa(lp770
F60.44903588294983
ag2
aI384
aa(lp771
F60.505388021469116
ag4
aI383
aa(lp772
F60.57299089431763
ag2
aI385
aa(lp773
F60.63345694541931
ag4
aI384
aa(lp774
F60.6849479675293
ag2
aI386
aa(lp775
F60.7734169960022
ag4
aI385
aa(lp776
F60.82503390312195
ag2
aI387
aa(lp777
F60.89042687416077
ag4
aI386
aa(lp778
F60.951371908187866
ag2
aI388
aa(lp779
F61.00804090499878
ag4
aI387
aa(lp780
F61.03633093833923
ag2
aI389
aa(lp781
F61.15291500091553
ag4
aI388
aa(lp782
F61.20145797729492
ag2
aI390
aa(lp783
F61.29788899421692
ag2
aI391
aa(lp784
F61.3341429233551
ag4
aI389
aa(lp785
F61.431658029556274
ag2
aI392
aa(lp786
F61.471946001052856
ag2
aI393
aa(lp787
F61.564157009124756
ag4
aI390
aa(lp788
F61.60561490058899
ag2
aI394
aa(lp789
F61.687893867492676
ag2
aI395
aa(lp790
F61.767459869384766
ag4
aI391
aa(lp791
F61.82827305793762
ag2
aI396
aa(lp792
F61.896241903305054
ag4
aI392
aa(lp793
F61.949684858322144
ag2
aI397
aa(lp794
F61.998623847961426
ag4
aI393
aa(lp795
F62.07608199119568
ag2
aI398
aa(lp796
F62.139785051345825
ag4
aI394
aa(lp797
F62.20097804069519
ag2
aI399
aa(lp798
F62.25598502159119
ag4
aI395
aa(lp799
F62.33206486701965
ag2
aI400
aa(lp800
F62.39602589607239
ag4
aI396
aa(lp801
F62.46422100067139
ag2
aI401
aa(lp802
F62.519912004470825
ag4
aI397
aa(lp803
F62.595897912979126
ag2
aI402
aa(lp804
F62.66062688827515
ag4
aI398
aa(lp805
F62.71502494812012
ag2
aI403
aa(lp806
F62.804039001464844
ag2
aI404
aa(lp807
F62.83690595626831
ag4
aI399
aa(lp808
F62.90839195251465
ag2
aI405
aa(lp809
F63.0374710559845
ag4
aI400
aa(lp810
F63.13299489021301
ag2
aI406
aa(lp811
F63.223844051361084
ag4
aI401
aa(lp812
F63.28883504867554
ag2
aI407
aa(lp813
F63.329330921173096
ag4
aI402
aa(lp814
F63.40482306480408
ag2
aI408
aa(lp815
F63.46112895011902
ag4
aI403
aa(lp816
F63.535584926605225
ag4
aI404
aa(lp817
F63.598000049591064
ag2
aI409
aa(lp818
F63.68022704124451
ag2
aI410
aa(lp819
F63.719931840896606
ag4
aI405
aa(lp820
F63.78402090072632
ag2
aI411
aa(lp821
F63.83541798591614
ag4
aI406
aa(lp822
F63.89656186103821
ag2
aI412
aa(lp823
F63.967254877090454
ag4
aI407
aa(lp824
F64.02340984344482
ag2
aI413
aa(lp825
F64.08054900169373
ag4
aI408
aa(lp826
F64.20329689979553
ag2
aI414
aa(lp827
F64.23599696159363
ag4
aI409
aa(lp828
F64.32442784309387
ag2
aI415
aa(lp829
F64.36803197860718
ag4
aI410
aa(lp830
F64.45250701904297
ag2
aI416
aa(lp831
F64.48960089683533
ag4
aI411
aa(lp832
F64.5678379535675
ag2
aI417
aa(lp833
F64.62355899810791
ag4
aI412
aa(lp834
F64.67602300643921
ag2
aI418
aa(lp835
F64.77713298797607
ag4
aI413
aa(lp836
F64.80826187133789
ag2
aI419
aa(lp837
F64.90264201164246
ag4
aI414
aa(lp838
F64.94386696815491
ag2
aI420
aa(lp839
F65.00858783721924
ag4
aI415
aa(lp840
F65.06786298751831
ag4
aI416
aa(lp841
F65.1358790397644
ag4
aI417
aa(lp842
F65.17756485939026
ag2
aI421
aa(lp843
F65.25988101959229
ag2
aI422
aa(lp844
F65.32816696166992
ag2
aI423
aa(lp845
F65.39195704460144
ag4
aI418
aa(lp846
F65.46401000022888
ag2
aI424
aa(lp847
F65.54827499389648
ag2
aI425
aa(lp848
F65.58350396156311
ag4
aI419
aa(lp849
F65.64419102668762
ag2
aI426
aa(lp850
F65.69949197769165
ag4
aI420
aa(lp851
F65.75738406181335
ag2
aI427
aa(lp852
F65.83600687980652
ag4
aI421
aa(lp853
F65.899729013443
ag2
aI428
aa(lp854
F65.96392583847046
ag4
aI422
aa(lp855
F66.04383993148804
ag2
aI429
aa(lp856
F66.0897319316864
ag4
aI423
aa(lp857
F66.14599394798279
ag2
aI430
aa(lp858
F66.21404600143433
ag4
aI424
aa(lp859
F66.27863693237305
ag2
aI431
aa(lp860
F66.34440398216248
ag4
aI425
aa(lp861
F66.40446901321411
ag2
aI432
aa(lp862
F66.47334790229797
ag4
aI426
aa(lp863
F66.53731298446655
ag2
aI433
aa(lp864
F66.58864784240723
ag4
aI427
aa(lp865
F66.66563391685486
ag2
aI434
aa(lp866
F66.71551585197449
ag4
aI428
aa(lp867
F66.79340887069702
ag2
aI435
aa(lp868
F66.87354898452759
ag2
aI436
aa(lp869
F66.96394491195679
ag4
aI429
aa(lp870
F67.03521990776062
ag2
aI437
aa(lp871
F67.09576797485352
ag4
aI430
aa(lp872
F67.15165495872498
ag2
aI438
aa(lp873
F67.23147892951965
ag4
aI431
aa(lp874
F67.29617404937744
ag2
aI439
aa(lp875
F67.36333084106445
ag4
aI432
aa(lp876
F67.42443084716797
ag2
aI440
aa(lp877
F67.48418092727661
ag4
aI433
aa(lp878
F67.54778695106506
ag2
aI441
aa(lp879
F67.60844588279724
ag4
aI434
aa(lp880
F67.66397404670715
ag2
aI442
aa(lp881
F67.72367787361145
ag4
aI435
aa(lp882
F67.79955792427063
ag2
aI443
aa(lp883
F67.85963106155396
ag4
aI436
aa(lp884
F67.93147897720337
ag2
aI444
aa(lp885
F67.97164297103882
ag4
aI437
aa(lp886
F68.05597496032715
ag2
aI445
aa(lp887
F68.11620092391968
ag4
aI438
aa(lp888
F68.17932391166687
ag2
aI446
aa(lp889
F68.27635884284973
ag2
aI447
aa(lp890
F68.31663203239441
ag4
aI439
aa(lp891
F68.35899090766907
ag2
aI448
aa(lp892
F68.39628195762634
ag4
aI440
aa(lp893
F68.49594497680664
ag2
aI449
aa(lp894
F68.56022095680237
ag4
aI441
aa(lp895
F68.63151407241821
ag2
aI450
aa(lp896
F68.69600796699524
ag4
aI442
aa(lp897
F68.72759485244751
ag2
aI451
aa(lp898
F68.8043749332428
ag4
aI443
aa(lp899
F68.89281296730042
ag2
aI452
aa(lp900
F68.9599359035492
ag2
aI453
aa(lp901
F69.01719999313354
ag4
aI444
aa(lp902
F69.05437898635864
ag2
aI454
aa(lp903
F69.13161301612854
ag4
aI445
aa(lp904
F69.18418884277344
ag2
aI455
aa(lp905
F69.26429986953735
ag4
aI446
aa(lp906
F69.32778096199036
ag2
aI456
aa.